{
   <insert_a_suppression_name_here>
   Memcheck:Cond
   obj:/usr/lib/x86_64-linux-gnu/libgdal.so.36.3.10.2
   fun:_ZN14GDALRasterBand9IRasterIOE10GDALRWFlagiiiiPvii12GDALDataTypexxP20GDALRasterIOExtraArg
   obj:/usr/lib/x86_64-linux-gnu/libgdal.so.36.3.10.2
   fun:_ZN14GDALRasterBand8RasterIOE10GDALRWFlagiiiiPvii12GDALDataTypexxP20GDALRasterIOExtraArg
   fun:_ZN11CSimulation19bWriteRasterGISFileEiPKNSt7__cxx1112basic_stringIcSt11char_traitsIcESaIcEEEid
   fun:_ZN11CSimulation22bSaveAllRasterGISFilesEv
   fun:_ZN11CSimulation13nDoSimulationEiPPKc
   fun:main
}
{
   <insert_a_suppression_name_here>
   Memcheck:Cond
   fun:_ZN14GDALRasterBand17ComputeStatisticsEiPdS0_S0_S0_PFidPKcPvES3_
   fun:_ZN11CSimulation19bWriteRasterGISFileEiPKNSt7__cxx1112basic_stringIcSt11char_traitsIcESaIcEEEid
   fun:_ZN11CSimulation22bSaveAllRasterGISFilesEv
   fun:_ZN11CSimulation13nDoSimulationEiPPKc
   fun:main
}
{
   <insert_a_suppression_name_here>
   Memcheck:Cond
   fun:__printf_fp_buffer_1.isra.0
   fun:__printf_fp_l_buffer
   fun:__printf_fp_spec
   fun:__printf_buffer
   fun:__vsnprintf_internal
   fun:__snprintf_chk
   fun:CPLvsnprintf
   fun:CPLsnprintf
   fun:_ZN14GDALRasterBand13SetStatisticsEdddd
   fun:_ZN14GDALRasterBand17ComputeStatisticsEiPdS0_S0_S0_PFidPKcPvES3_
   fun:_ZN11CSimulation19bWriteRasterGISFileEiPKNSt7__cxx1112basic_stringIcSt11char_traitsIcESaIcEEEid
   fun:_ZN11CSimulation22bSaveAllRasterGISFilesEv
   fun:_ZN11CSimulation13nDoSimulationEiPPKc
}
{
   <insert_a_suppression_name_here>
   Memcheck:Cond
   fun:__mpn_extract_double
   fun:__printf_fp_buffer_1.isra.0
   fun:__printf_fp_l_buffer
   fun:__printf_fp_spec
   fun:__printf_buffer
   fun:__vsnprintf_internal
   fun:__snprintf_chk
   fun:CPLvsnprintf
   fun:CPLsnprintf
   fun:_ZN14GDALRasterBand13SetStatisticsEdddd
   fun:_ZN14GDALRasterBand17ComputeStatisticsEiPdS0_S0_S0_PFidPKcPvES3_
   fun:_ZN11CSimulation19bWriteRasterGISFileEiPKNSt7__cxx1112basic_stringIcSt11char_traitsIcESaIcEEEid
   fun:_ZN11CSimulation22bSaveAllRasterGISFilesEv
}
{
   <insert_a_suppression_name_here>
   Memcheck:Cond
   fun:round_away
   fun:__printf_fp_buffer_1.isra.0
   fun:__printf_fp_l_buffer
   fun:__printf_fp_spec
   fun:__printf_buffer
   fun:__vsnprintf_internal
   fun:__snprintf_chk
   fun:CPLvsnprintf
   fun:CPLsnprintf
   fun:_ZN14GDALRasterBand13SetStatisticsEdddd
   fun:_ZN14GDALRasterBand17ComputeStatisticsEiPdS0_S0_S0_PFidPKcPvES3_
   fun:_ZN11CSimulation19bWriteRasterGISFileEiPKNSt7__cxx1112basic_stringIcSt11char_traitsIcESaIcEEEid
   fun:_ZN11CSimulation22bSaveAllRasterGISFilesEv
   fun:_ZN11CSimulation13nDoSimulationEiPPKc
}
{
   <insert_a_suppression_name_here>
   Memcheck:Value8
   obj:/usr/lib/x86_64-linux-gnu/libtiff.so.6.0.1
   fun:TIFFWriteEncodedStrip
   obj:/usr/lib/x86_64-linux-gnu/libgdal.so.36.3.10.2
   obj:/usr/lib/x86_64-linux-gnu/libgdal.so.36.3.10.2
   fun:_ZN19CPLWorkerThreadPool20WorkerThreadFunctionEPv
   obj:/usr/lib/x86_64-linux-gnu/libgdal.so.36.3.10.2
   fun:start_thread
   fun:clone
}
{
   <insert_a_suppression_name_here>
   Memcheck:Cond
   obj:/usr/lib/x86_64-linux-gnu/libtiff.so.6.0.1
   fun:TIFFWriteEncodedStrip
   obj:/usr/lib/x86_64-linux-gnu/libgdal.so.36.3.10.2
   obj:/usr/lib/x86_64-linux-gnu/libgdal.so.36.3.10.2
   fun:_ZN19CPLWorkerThreadPool20WorkerThreadFunctionEPv
   obj:/usr/lib/x86_64-linux-gnu/libgdal.so.36.3.10.2
   fun:start_thread
   fun:clone
}
{
   <insert_a_suppression_name_here>
   Memcheck:Param
   write(buf)
   fun:__syscall_cancel_arch
   fun:__internal_syscall_cancel
   fun:__syscall_cancel
   fun:write
   fun:_IO_file_write@@GLIBC_2.2.5
   fun:new_do_write
   fun:_IO_new_file_xsputn
   fun:_IO_file_xsputn@@GLIBC_2.2.5
   fun:fwrite
   obj:/usr/lib/x86_64-linux-gnu/libgdal.so.36.3.10.2
   obj:/usr/lib/x86_64-linux-gnu/libgdal.so.36.3.10.2
   fun:TIFFRewriteDirectory
   obj:/usr/lib/x86_64-linux-gnu/libgdal.so.36.3.10.2
   obj:/usr/lib/x86_64-linux-gnu/libgdal.so.36.3.10.2
   obj:/usr/lib/x86_64-linux-gnu/libgdal.so.36.3.10.2
}
{
   <insert_a_suppression_name_here>
   Memcheck:Cond
   fun:_ZN14GDALRasterBand17ComputeStatisticsEiPdS0_S0_S0_PFidPKcPvES3_
   fun:_ZN11CSimulation19bWriteRasterGISFileEiPKNSt7__cxx1112basic_stringIcSt11char_traitsIcESaIcEEEid
   fun:_ZN11CSimulation22bSaveAllRasterGISFilesEv
   fun:_ZN11CSimulation19nWriteEndRunDetailsEv
   fun:_ZN11CSimulation13nDoSimulationEiPPKc
   fun:main
}
{
   <insert_a_suppression_name_here>
   Memcheck:Leak
   match-leak-kinds: reachable
   fun:malloc
   fun:VSIStrdup
   fun:VSIStrdupVerbose
   fun:_ZN13CPLStringList9AddStringEPKc
   fun:_ZN23GDALMultiDomainMetadata15SetMetadataItemEPKcS1_S1_
   fun:GDALRegister_VRT
   fun:GDALAllRegister
   fun:_ZN11CSimulation27bCheckRasterGISOutputFormatEv
   fun:_ZN11CSimulation13nDoSimulationEiPPKc
   fun:main
}
{
   <insert_a_suppression_name_here>
   Memcheck:Leak
   match-leak-kinds: reachable
   fun:malloc
   fun:VSIStrdup
   fun:VSIStrdupVerbose
   fun:_ZN13CPLStringList9AddStringEPKc
   fun:_ZN23GDALMultiDomainMetadata15SetMetadataItemEPKcS1_S1_
   fun:GDALRegister_Derived
   fun:GDALAllRegister
   fun:_ZN11CSimulation27bCheckRasterGISOutputFormatEv
   fun:_ZN11CSimulation13nDoSimulationEiPPKc
   fun:main
}
{
   <insert_a_suppression_name_here>
   Memcheck:Leak
   match-leak-kinds: reachable
   fun:malloc
   fun:VSIStrdup
   fun:VSIStrdupVerbose
   fun:_ZN13CPLStringList9AddStringEPKc
   fun:_ZN23GDALMultiDomainMetadata15SetMetadataItemEPKcS1_S1_
   fun:GDALRegister_GTI
   fun:GDALAllRegister
   fun:_ZN11CSimulation27bCheckRasterGISOutputFormatEv
   fun:_ZN11CSimulation13nDoSimulationEiPPKc
   fun:main
}
{
   <insert_a_suppression_name_here>
   Memcheck:Leak
   match-leak-kinds: reachable
   fun:malloc
   fun:VSIStrdup
   fun:VSIStrdupVerbose
   fun:_ZN13CPLStringList9AddStringEPKc
   fun:_ZN23GDALMultiDomainMetadata15SetMetadataItemEPKcS1_S1_
   fun:GDALRegister_SNAP_TIFF
   fun:GDALAllRegister
   fun:_ZN11CSimulation27bCheckRasterGISOutputFormatEv
   fun:_ZN11CSimulation13nDoSimulationEiPPKc
   fun:main
}
{
   <insert_a_suppression_name_here>
   Memcheck:Leak
   match-leak-kinds: reachable
   fun:malloc
   fun:VSIStrdup
   fun:VSIStrdupVerbose
   fun:_ZN13CPLStringList9AddStringEPKc
   fun:_ZN23GDALMultiDomainMetadata15SetMetadataItemEPKcS1_S1_
   fun:GDALRegister_GTiff
   fun:GDALAllRegister
   fun:_ZN11CSimulation27bCheckRasterGISOutputFormatEv
   fun:_ZN11CSimulation13nDoSimulationEiPPKc
   fun:main
}
{
   <insert_a_suppression_name_here>
   Memcheck:Leak
   match-leak-kinds: reachable
   fun:malloc
   fun:VSIStrdup
   fun:VSIStrdupVerbose
   fun:_ZN13CPLStringList9AddStringEPKc
   fun:_ZN23GDALMultiDomainMetadata15SetMetadataItemEPKcS1_S1_
   fun:GDALRegister_COG
   fun:GDALAllRegister
   fun:_ZN11CSimulation27bCheckRasterGISOutputFormatEv
   fun:_ZN11CSimulation13nDoSimulationEiPPKc
   fun:main
}
{
   <insert_a_suppression_name_here>
   Memcheck:Leak
   match-leak-kinds: reachable
   fun:malloc
   fun:VSIStrdup
   fun:VSIStrdupVerbose
   fun:_ZN13CPLStringList9AddStringEPKc
   fun:_ZN23GDALMultiDomainMetadata15SetMetadataItemEPKcS1_S1_
   fun:GDALRegister_NITF
   fun:GDALAllRegister
   fun:_ZN11CSimulation27bCheckRasterGISOutputFormatEv
   fun:_ZN11CSimulation13nDoSimulationEiPPKc
   fun:main
}
{
   <insert_a_suppression_name_here>
   Memcheck:Leak
   match-leak-kinds: reachable
   fun:malloc
   fun:VSIStrdup
   fun:VSIStrdupVerbose
   fun:_ZN13CPLStringList9AddStringEPKc
   fun:_ZN23GDALMultiDomainMetadata15SetMetadataItemEPKcS1_S1_
   fun:GDALRegister_RPFTOC
   fun:GDALAllRegister
   fun:_ZN11CSimulation27bCheckRasterGISOutputFormatEv
   fun:_ZN11CSimulation13nDoSimulationEiPPKc
   fun:main
}
{
   <insert_a_suppression_name_here>
   Memcheck:Leak
   match-leak-kinds: reachable
   fun:malloc
   fun:VSIStrdup
   fun:VSIStrdupVerbose
   fun:_ZN13CPLStringList9AddStringEPKc
   fun:_ZN23GDALMultiDomainMetadata15SetMetadataItemEPKcS1_S1_
   fun:GDALRegister_ECRGTOC
   fun:GDALAllRegister
   fun:_ZN11CSimulation27bCheckRasterGISOutputFormatEv
   fun:_ZN11CSimulation13nDoSimulationEiPPKc
   fun:main
}
{
   <insert_a_suppression_name_here>
   Memcheck:Leak
   match-leak-kinds: reachable
   fun:malloc
   fun:VSIStrdup
   fun:VSIStrdupVerbose
   fun:_ZN13CPLStringList9AddStringEPKc
   fun:_ZN23GDALMultiDomainMetadata15SetMetadataItemEPKcS1_S1_
   fun:GDALRegister_HFA
   fun:GDALAllRegister
   fun:_ZN11CSimulation27bCheckRasterGISOutputFormatEv
   fun:_ZN11CSimulation13nDoSimulationEiPPKc
   fun:main
}
{
   <insert_a_suppression_name_here>
   Memcheck:Leak
   match-leak-kinds: reachable
   fun:malloc
   fun:VSIStrdup
   fun:VSIStrdupVerbose
   fun:_ZN13CPLStringList9AddStringEPKc
   fun:_ZN23GDALMultiDomainMetadata15SetMetadataItemEPKcS1_S1_
   fun:GDALRegister_SAR_CEOS
   fun:GDALAllRegister
   fun:_ZN11CSimulation27bCheckRasterGISOutputFormatEv
   fun:_ZN11CSimulation13nDoSimulationEiPPKc
   fun:main
}
{
   <insert_a_suppression_name_here>
   Memcheck:Leak
   match-leak-kinds: reachable
   fun:malloc
   fun:VSIStrdup
   fun:VSIStrdupVerbose
   fun:_ZN13CPLStringList9AddStringEPKc
   fun:_ZN23GDALMultiDomainMetadata15SetMetadataItemEPKcS1_S1_
   fun:GDALRegister_CEOS
   fun:GDALAllRegister
   fun:_ZN11CSimulation27bCheckRasterGISOutputFormatEv
   fun:_ZN11CSimulation13nDoSimulationEiPPKc
   fun:main
}
{
   <insert_a_suppression_name_here>
   Memcheck:Leak
   match-leak-kinds: reachable
   fun:malloc
   fun:VSIStrdup
   fun:VSIStrdupVerbose
   fun:_ZN13CPLStringList9AddStringEPKc
   fun:_ZN23GDALMultiDomainMetadata15SetMetadataItemEPKcS1_S1_
   fun:GDALRegister_PALSARJaxa
   fun:GDALAllRegister
   fun:_ZN11CSimulation27bCheckRasterGISOutputFormatEv
   fun:_ZN11CSimulation13nDoSimulationEiPPKc
   fun:main
}
{
   <insert_a_suppression_name_here>
   Memcheck:Leak
   match-leak-kinds: reachable
   fun:malloc
   fun:VSIStrdup
   fun:VSIStrdupVerbose
   fun:_ZN13CPLStringList9AddStringEPKc
   fun:_ZN23GDALMultiDomainMetadata15SetMetadataItemEPKcS1_S1_
   fun:GDALRegister_GFF
   fun:GDALAllRegister
   fun:_ZN11CSimulation27bCheckRasterGISOutputFormatEv
   fun:_ZN11CSimulation13nDoSimulationEiPPKc
   fun:main
}
{
   <insert_a_suppression_name_here>
   Memcheck:Leak
   match-leak-kinds: reachable
   fun:malloc
   fun:VSIStrdup
   fun:VSIStrdupVerbose
   fun:_ZN13CPLStringList9AddStringEPKc
   fun:_ZN23GDALMultiDomainMetadata15SetMetadataItemEPKcS1_S1_
   fun:GDALRegister_ELAS
   fun:GDALAllRegister
   fun:_ZN11CSimulation27bCheckRasterGISOutputFormatEv
   fun:_ZN11CSimulation13nDoSimulationEiPPKc
   fun:main
}
{
   <insert_a_suppression_name_here>
   Memcheck:Leak
   match-leak-kinds: reachable
   fun:malloc
   fun:VSIStrdup
   fun:VSIStrdupVerbose
   fun:_ZN13CPLStringList9AddStringEPKc
   fun:_ZN23GDALMultiDomainMetadata15SetMetadataItemEPKcS1_S1_
   fun:GDALRegister_ESRIC
   fun:GDALAllRegister
   fun:_ZN11CSimulation27bCheckRasterGISOutputFormatEv
   fun:_ZN11CSimulation13nDoSimulationEiPPKc
   fun:main
}
{
   <insert_a_suppression_name_here>
   Memcheck:Leak
   match-leak-kinds: reachable
   fun:malloc
   fun:VSIStrdup
   fun:VSIStrdupVerbose
   fun:_ZN13CPLStringList9AddStringEPKc
   fun:_ZN23GDALMultiDomainMetadata15SetMetadataItemEPKcS1_S1_
   fun:GDALRegister_AIGrid
   fun:GDALAllRegister
   fun:_ZN11CSimulation27bCheckRasterGISOutputFormatEv
   fun:_ZN11CSimulation13nDoSimulationEiPPKc
   fun:main
}
{
   <insert_a_suppression_name_here>
   Memcheck:Leak
   match-leak-kinds: reachable
   fun:malloc
   fun:VSIStrdup
   fun:VSIStrdupVerbose
   fun:_ZN13CPLStringList9AddStringEPKc
   fun:_ZN23GDALMultiDomainMetadata15SetMetadataItemEPKcS1_S1_
   fun:GDALRegister_AAIGrid
   fun:GDALAllRegister
   fun:_ZN11CSimulation27bCheckRasterGISOutputFormatEv
   fun:_ZN11CSimulation13nDoSimulationEiPPKc
   fun:main
}
{
   <insert_a_suppression_name_here>
   Memcheck:Leak
   match-leak-kinds: reachable
   fun:malloc
   fun:VSIStrdup
   fun:VSIStrdupVerbose
   fun:_ZN13CPLStringList9AddStringEPKc
   fun:_ZN23GDALMultiDomainMetadata15SetMetadataItemEPKcS1_S1_
   fun:GDALRegister_GRASSASCIIGrid
   fun:GDALAllRegister
   fun:_ZN11CSimulation27bCheckRasterGISOutputFormatEv
   fun:_ZN11CSimulation13nDoSimulationEiPPKc
   fun:main
}
{
   <insert_a_suppression_name_here>
   Memcheck:Leak
   match-leak-kinds: reachable
   fun:malloc
   fun:VSIStrdup
   fun:VSIStrdupVerbose
   fun:_ZN13CPLStringList9AddStringEPKc
   fun:_ZN23GDALMultiDomainMetadata15SetMetadataItemEPKcS1_S1_
   fun:GDALRegister_ISG
   fun:GDALAllRegister
   fun:_ZN11CSimulation27bCheckRasterGISOutputFormatEv
   fun:_ZN11CSimulation13nDoSimulationEiPPKc
   fun:main
}
{
   <insert_a_suppression_name_here>
   Memcheck:Leak
   match-leak-kinds: reachable
   fun:malloc
   fun:VSIStrdup
   fun:VSIStrdupVerbose
   fun:_ZN13CPLStringList9AddStringEPKc
   fun:_ZN23GDALMultiDomainMetadata15SetMetadataItemEPKcS1_S1_
   fun:GDALRegister_SDTS
   fun:GDALAllRegister
   fun:_ZN11CSimulation27bCheckRasterGISOutputFormatEv
   fun:_ZN11CSimulation13nDoSimulationEiPPKc
   fun:main
}
{
   <insert_a_suppression_name_here>
   Memcheck:Leak
   match-leak-kinds: reachable
   fun:malloc
   fun:VSIStrdup
   fun:VSIStrdupVerbose
   fun:_ZN13CPLStringList9AddStringEPKc
   fun:_ZN23GDALMultiDomainMetadata15SetMetadataItemEPKcS1_S1_
   fun:GDALRegister_DTED
   fun:GDALAllRegister
   fun:_ZN11CSimulation27bCheckRasterGISOutputFormatEv
   fun:_ZN11CSimulation13nDoSimulationEiPPKc
   fun:main
}
{
   <insert_a_suppression_name_here>
   Memcheck:Leak
   match-leak-kinds: reachable
   fun:malloc
   fun:VSIStrdup
   fun:VSIStrdupVerbose
   fun:_ZN13CPLStringList9AddStringEPKc
   fun:_ZN23GDALMultiDomainMetadata15SetMetadataItemEPKcS1_S1_
   fun:GDALRegister_PNG
   fun:GDALAllRegister
   fun:_ZN11CSimulation27bCheckRasterGISOutputFormatEv
   fun:_ZN11CSimulation13nDoSimulationEiPPKc
   fun:main
}
{
   <insert_a_suppression_name_here>
   Memcheck:Leak
   match-leak-kinds: reachable
   fun:malloc
   fun:VSIStrdup
   fun:VSIStrdupVerbose
   fun:_ZN13CPLStringList9AddStringEPKc
   fun:_ZN23GDALMultiDomainMetadata15SetMetadataItemEPKcS1_S1_
   fun:GDALRegister_JPEG
   fun:GDALAllRegister
   fun:_ZN11CSimulation27bCheckRasterGISOutputFormatEv
   fun:_ZN11CSimulation13nDoSimulationEiPPKc
   fun:main
}
{
   <insert_a_suppression_name_here>
   Memcheck:Leak
   match-leak-kinds: reachable
   fun:malloc
   fun:VSIStrdup
   fun:VSIStrdupVerbose
   fun:_ZN13CPLStringList9AddStringEPKc
   fun:_ZN23GDALMultiDomainMetadata15SetMetadataItemEPKcS1_S1_
   fun:GDALRegister_MEM
   fun:GDALAllRegister
   fun:_ZN11CSimulation27bCheckRasterGISOutputFormatEv
   fun:_ZN11CSimulation13nDoSimulationEiPPKc
   fun:main
}
{
   <insert_a_suppression_name_here>
   Memcheck:Leak
   match-leak-kinds: reachable
   fun:malloc
   fun:VSIStrdup
   fun:VSIStrdupVerbose
   fun:_ZN13CPLStringList9AddStringEPKc
   fun:_ZN23GDALMultiDomainMetadata15SetMetadataItemEPKcS1_S1_
   fun:GDALRegister_JDEM
   fun:GDALAllRegister
   fun:_ZN11CSimulation27bCheckRasterGISOutputFormatEv
   fun:_ZN11CSimulation13nDoSimulationEiPPKc
   fun:main
}
{
   <insert_a_suppression_name_here>
   Memcheck:Leak
   match-leak-kinds: reachable
   fun:malloc
   fun:VSIStrdup
   fun:VSIStrdupVerbose
   fun:_ZN13CPLStringList9AddStringEPKc
   fun:_ZN23GDALMultiDomainMetadata15SetMetadataItemEPKcS1_S1_
   fun:GDALRegister_GIF
   fun:GDALAllRegister
   fun:_ZN11CSimulation27bCheckRasterGISOutputFormatEv
   fun:_ZN11CSimulation13nDoSimulationEiPPKc
   fun:main
}
{
   <insert_a_suppression_name_here>
   Memcheck:Leak
   match-leak-kinds: reachable
   fun:malloc
   fun:VSIStrdup
   fun:VSIStrdupVerbose
   fun:_ZN13CPLStringList9AddStringEPKc
   fun:_ZN23GDALMultiDomainMetadata15SetMetadataItemEPKcS1_S1_
   fun:GDALRegister_BIGGIF
   fun:GDALAllRegister
   fun:_ZN11CSimulation27bCheckRasterGISOutputFormatEv
   fun:_ZN11CSimulation13nDoSimulationEiPPKc
   fun:main
}
{
   <insert_a_suppression_name_here>
   Memcheck:Leak
   match-leak-kinds: reachable
   fun:malloc
   fun:VSIStrdup
   fun:VSIStrdupVerbose
   fun:_ZN13CPLStringList9AddStringEPKc
   fun:_ZN23GDALMultiDomainMetadata15SetMetadataItemEPKcS1_S1_
   fun:GDALRegister_Envisat
   fun:GDALAllRegister
   fun:_ZN11CSimulation27bCheckRasterGISOutputFormatEv
   fun:_ZN11CSimulation13nDoSimulationEiPPKc
   fun:main
}
{
   <insert_a_suppression_name_here>
   Memcheck:Leak
   match-leak-kinds: reachable
   fun:malloc
   fun:VSIStrdup
   fun:VSIStrdupVerbose
   fun:_ZN13CPLStringList9AddStringEPKc
   fun:_ZN23GDALMultiDomainMetadata15SetMetadataItemEPKcS1_S1_
   fun:GDALRegister_FITS
   fun:GDALAllRegister
   fun:_ZN11CSimulation27bCheckRasterGISOutputFormatEv
   fun:_ZN11CSimulation13nDoSimulationEiPPKc
   fun:main
}
{
   <insert_a_suppression_name_here>
   Memcheck:Leak
   match-leak-kinds: reachable
   fun:malloc
   fun:VSIStrdup
   fun:VSIStrdupVerbose
   fun:_ZN13CPLStringList9AddStringEPKc
   fun:_ZN23GDALMultiDomainMetadata15SetMetadataItemEPKcS1_S1_
   fun:GDALRegister_BSB
   fun:GDALAllRegister
   fun:_ZN11CSimulation27bCheckRasterGISOutputFormatEv
   fun:_ZN11CSimulation13nDoSimulationEiPPKc
   fun:main
}
{
   <insert_a_suppression_name_here>
   Memcheck:Leak
   match-leak-kinds: reachable
   fun:malloc
   fun:VSIStrdup
   fun:VSIStrdupVerbose
   fun:_ZN13CPLStringList9AddStringEPKc
   fun:_ZN23GDALMultiDomainMetadata15SetMetadataItemEPKcS1_S1_
   fun:GDALRegister_XPM
   fun:GDALAllRegister
   fun:_ZN11CSimulation27bCheckRasterGISOutputFormatEv
   fun:_ZN11CSimulation13nDoSimulationEiPPKc
   fun:main
}
{
   <insert_a_suppression_name_here>
   Memcheck:Leak
   match-leak-kinds: reachable
   fun:malloc
   fun:VSIStrdup
   fun:VSIStrdupVerbose
   fun:_ZN13CPLStringList9AddStringEPKc
   fun:_ZN23GDALMultiDomainMetadata15SetMetadataItemEPKcS1_S1_
   fun:GDALRegister_BMP
   fun:GDALAllRegister
   fun:_ZN11CSimulation27bCheckRasterGISOutputFormatEv
   fun:_ZN11CSimulation13nDoSimulationEiPPKc
   fun:main
}
{
   <insert_a_suppression_name_here>
   Memcheck:Leak
   match-leak-kinds: reachable
   fun:malloc
   fun:VSIStrdup
   fun:VSIStrdupVerbose
   fun:_ZN13CPLStringList9AddStringEPKc
   fun:_ZN23GDALMultiDomainMetadata15SetMetadataItemEPKcS1_S1_
   fun:GDALRegister_DIMAP
   fun:GDALAllRegister
   fun:_ZN11CSimulation27bCheckRasterGISOutputFormatEv
   fun:_ZN11CSimulation13nDoSimulationEiPPKc
   fun:main
}
{
   <insert_a_suppression_name_here>
   Memcheck:Leak
   match-leak-kinds: reachable
   fun:malloc
   fun:VSIStrdup
   fun:VSIStrdupVerbose
   fun:_ZN13CPLStringList9AddStringEPKc
   fun:_ZN23GDALMultiDomainMetadata15SetMetadataItemEPKcS1_S1_
   fun:GDALRegister_AirSAR
   fun:GDALAllRegister
   fun:_ZN11CSimulation27bCheckRasterGISOutputFormatEv
   fun:_ZN11CSimulation13nDoSimulationEiPPKc
   fun:main
}
{
   <insert_a_suppression_name_here>
   Memcheck:Leak
   match-leak-kinds: reachable
   fun:malloc
   fun:VSIStrdup
   fun:VSIStrdupVerbose
   fun:_ZN13CPLStringList9AddStringEPKc
   fun:_ZN23GDALMultiDomainMetadata15SetMetadataItemEPKcS1_S1_
   fun:GDALRegister_RS2
   fun:GDALAllRegister
   fun:_ZN11CSimulation27bCheckRasterGISOutputFormatEv
   fun:_ZN11CSimulation13nDoSimulationEiPPKc
   fun:main
}
{
   <insert_a_suppression_name_here>
   Memcheck:Leak
   match-leak-kinds: reachable
   fun:malloc
   fun:VSIStrdup
   fun:VSIStrdupVerbose
   fun:_ZN13CPLStringList9AddStringEPKc
   fun:_ZN23GDALMultiDomainMetadata15SetMetadataItemEPKcS1_S1_
   fun:GDALRegister_SAFE
   fun:GDALAllRegister
   fun:_ZN11CSimulation27bCheckRasterGISOutputFormatEv
   fun:_ZN11CSimulation13nDoSimulationEiPPKc
   fun:main
}
{
   <insert_a_suppression_name_here>
   Memcheck:Leak
   match-leak-kinds: reachable
   fun:malloc
   fun:VSIStrdup
   fun:VSIStrdupVerbose
   fun:_ZN13CPLStringList9AddStringEPKc
   fun:_ZN23GDALMultiDomainMetadata15SetMetadataItemEPKcS1_S1_
   fun:GDALRegister_PCIDSK
   fun:GDALAllRegister
   fun:_ZN11CSimulation27bCheckRasterGISOutputFormatEv
   fun:_ZN11CSimulation13nDoSimulationEiPPKc
   fun:main
}
{
   <insert_a_suppression_name_here>
   Memcheck:Leak
   match-leak-kinds: reachable
   fun:malloc
   fun:VSIStrdup
   fun:VSIStrdupVerbose
   fun:_ZN13CPLStringList9AddStringEPKc
   fun:_ZN23GDALMultiDomainMetadata15SetMetadataItemEPKcS1_S1_
   fun:GDALRegister_PCRaster
   fun:GDALAllRegister
   fun:_ZN11CSimulation27bCheckRasterGISOutputFormatEv
   fun:_ZN11CSimulation13nDoSimulationEiPPKc
   fun:main
}
{
   <insert_a_suppression_name_here>
   Memcheck:Leak
   match-leak-kinds: reachable
   fun:malloc
   fun:VSIStrdup
   fun:VSIStrdupVerbose
   fun:_ZN13CPLStringList9AddStringEPKc
   fun:_ZN23GDALMultiDomainMetadata15SetMetadataItemEPKcS1_S1_
   fun:GDALRegister_ILWIS
   fun:GDALAllRegister
   fun:_ZN11CSimulation27bCheckRasterGISOutputFormatEv
   fun:_ZN11CSimulation13nDoSimulationEiPPKc
   fun:main
}
{
   <insert_a_suppression_name_here>
   Memcheck:Leak
   match-leak-kinds: reachable
   fun:malloc
   fun:VSIStrdup
   fun:VSIStrdupVerbose
   fun:_ZN13CPLStringList9AddStringEPKc
   fun:_ZN23GDALMultiDomainMetadata15SetMetadataItemEPKcS1_S1_
   fun:GDALRegister_SGI
   fun:GDALAllRegister
   fun:_ZN11CSimulation27bCheckRasterGISOutputFormatEv
   fun:_ZN11CSimulation13nDoSimulationEiPPKc
   fun:main
}
{
   <insert_a_suppression_name_here>
   Memcheck:Leak
   match-leak-kinds: reachable
   fun:malloc
   fun:VSIStrdup
   fun:VSIStrdupVerbose
   fun:_ZN13CPLStringList9AddStringEPKc
   fun:_ZN23GDALMultiDomainMetadata15SetMetadataItemEPKcS1_S1_
   fun:GDALRegister_SRTMHGT
   fun:GDALAllRegister
   fun:_ZN11CSimulation27bCheckRasterGISOutputFormatEv
   fun:_ZN11CSimulation13nDoSimulationEiPPKc
   fun:main
}
{
   <insert_a_suppression_name_here>
   Memcheck:Leak
   match-leak-kinds: reachable
   fun:malloc
   fun:VSIStrdup
   fun:VSIStrdupVerbose
   fun:_ZN13CPLStringList9AddStringEPKc
   fun:_ZN23GDALMultiDomainMetadata15SetMetadataItemEPKcS1_S1_
   fun:GDALRegister_Leveller
   fun:GDALAllRegister
   fun:_ZN11CSimulation27bCheckRasterGISOutputFormatEv
   fun:_ZN11CSimulation13nDoSimulationEiPPKc
   fun:main
}
{
   <insert_a_suppression_name_here>
   Memcheck:Leak
   match-leak-kinds: reachable
   fun:malloc
   fun:VSIStrdup
   fun:VSIStrdupVerbose
   fun:_ZN13CPLStringList9AddStringEPKc
   fun:_ZN23GDALMultiDomainMetadata15SetMetadataItemEPKcS1_S1_
   fun:GDALRegister_Terragen
   fun:GDALAllRegister
   fun:_ZN11CSimulation27bCheckRasterGISOutputFormatEv
   fun:_ZN11CSimulation13nDoSimulationEiPPKc
   fun:main
}
{
   <insert_a_suppression_name_here>
   Memcheck:Leak
   match-leak-kinds: reachable
   fun:malloc
   fun:VSIStrdup
   fun:VSIStrdupVerbose
   fun:_ZN13CPLStringList9AddStringEPKc
   fun:_ZN23GDALMultiDomainMetadata15SetMetadataItemEPKcS1_S1_
   fun:GDALRegister_netCDF
   fun:GDALAllRegister
   fun:_ZN11CSimulation27bCheckRasterGISOutputFormatEv
   fun:_ZN11CSimulation13nDoSimulationEiPPKc
   fun:main
}
{
   <insert_a_suppression_name_here>
   Memcheck:Leak
   match-leak-kinds: reachable
   fun:malloc
   fun:VSIStrdup
   fun:VSIStrdupVerbose
   fun:_ZN13CPLStringList9AddStringEPKc
   fun:_ZN23GDALMultiDomainMetadata15SetMetadataItemEPKcS1_S1_
   fun:GDALRegister_HDF4
   fun:GDALAllRegister
   fun:_ZN11CSimulation27bCheckRasterGISOutputFormatEv
   fun:_ZN11CSimulation13nDoSimulationEiPPKc
   fun:main
}
{
   <insert_a_suppression_name_here>
   Memcheck:Leak
   match-leak-kinds: reachable
   fun:malloc
   fun:VSIStrdup
   fun:VSIStrdupVerbose
   fun:_ZN13CPLStringList9AddStringEPKc
   fun:_ZN23GDALMultiDomainMetadata15SetMetadataItemEPKcS1_S1_
   fun:GDALRegister_HDF4Image
   fun:GDALAllRegister
   fun:_ZN11CSimulation27bCheckRasterGISOutputFormatEv
   fun:_ZN11CSimulation13nDoSimulationEiPPKc
   fun:main
}
{
   <insert_a_suppression_name_here>
   Memcheck:Leak
   match-leak-kinds: reachable
   fun:malloc
   fun:VSIStrdup
   fun:VSIStrdupVerbose
   fun:_ZN13CPLStringList9AddStringEPKc
   fun:_ZN23GDALMultiDomainMetadata15SetMetadataItemEPKcS1_S1_
   fun:GDALRegister_ISIS3
   fun:GDALAllRegister
   fun:_ZN11CSimulation27bCheckRasterGISOutputFormatEv
   fun:_ZN11CSimulation13nDoSimulationEiPPKc
   fun:main
}
{
   <insert_a_suppression_name_here>
   Memcheck:Leak
   match-leak-kinds: reachable
   fun:malloc
   fun:VSIStrdup
   fun:VSIStrdupVerbose
   fun:_ZN13CPLStringList9AddStringEPKc
   fun:_ZN23GDALMultiDomainMetadata15SetMetadataItemEPKcS1_S1_
   fun:GDALRegister_ISIS2
   fun:GDALAllRegister
   fun:_ZN11CSimulation27bCheckRasterGISOutputFormatEv
   fun:_ZN11CSimulation13nDoSimulationEiPPKc
   fun:main
}
{
   <insert_a_suppression_name_here>
   Memcheck:Leak
   match-leak-kinds: reachable
   fun:malloc
   fun:VSIStrdup
   fun:VSIStrdupVerbose
   fun:_ZN13CPLStringList9AddStringEPKc
   fun:_ZN23GDALMultiDomainMetadata15SetMetadataItemEPKcS1_S1_
   fun:GDALRegister_PDS
   fun:GDALAllRegister
   fun:_ZN11CSimulation27bCheckRasterGISOutputFormatEv
   fun:_ZN11CSimulation13nDoSimulationEiPPKc
   fun:main
}
{
   <insert_a_suppression_name_here>
   Memcheck:Leak
   match-leak-kinds: reachable
   fun:malloc
   fun:VSIStrdup
   fun:VSIStrdupVerbose
   fun:_ZN13CPLStringList9AddStringEPKc
   fun:_ZN23GDALMultiDomainMetadata15SetMetadataItemEPKcS1_S1_
   fun:GDALRegister_PDS4
   fun:GDALAllRegister
   fun:_ZN11CSimulation27bCheckRasterGISOutputFormatEv
   fun:_ZN11CSimulation13nDoSimulationEiPPKc
   fun:main
}
{
   <insert_a_suppression_name_here>
   Memcheck:Leak
   match-leak-kinds: reachable
   fun:malloc
   fun:VSIStrdup
   fun:VSIStrdupVerbose
   fun:_ZN13CPLStringList9AddStringEPKc
   fun:_ZN23GDALMultiDomainMetadata15SetMetadataItemEPKcS1_S1_
   fun:GDALRegister_VICAR
   fun:GDALAllRegister
   fun:_ZN11CSimulation27bCheckRasterGISOutputFormatEv
   fun:_ZN11CSimulation13nDoSimulationEiPPKc
   fun:main
}
{
   <insert_a_suppression_name_here>
   Memcheck:Leak
   match-leak-kinds: reachable
   fun:malloc
   fun:VSIStrdup
   fun:VSIStrdupVerbose
   fun:_ZN13CPLStringList9AddStringEPKc
   fun:_ZN23GDALMultiDomainMetadata15SetMetadataItemEPKcS1_S1_
   fun:GDALRegister_TIL
   fun:GDALAllRegister
   fun:_ZN11CSimulation27bCheckRasterGISOutputFormatEv
   fun:_ZN11CSimulation13nDoSimulationEiPPKc
   fun:main
}
{
   <insert_a_suppression_name_here>
   Memcheck:Leak
   match-leak-kinds: reachable
   fun:malloc
   fun:VSIStrdup
   fun:VSIStrdupVerbose
   fun:_ZN13CPLStringList9AddStringEPKc
   fun:_ZN23GDALMultiDomainMetadata15SetMetadataItemEPKcS1_S1_
   fun:GDALRegister_ERS
   fun:GDALAllRegister
   fun:_ZN11CSimulation27bCheckRasterGISOutputFormatEv
   fun:_ZN11CSimulation13nDoSimulationEiPPKc
   fun:main
}
{
   <insert_a_suppression_name_here>
   Memcheck:Leak
   match-leak-kinds: reachable
   fun:malloc
   fun:VSIStrdup
   fun:VSIStrdupVerbose
   fun:_ZN13CPLStringList9AddStringEPKc
   fun:_ZN23GDALMultiDomainMetadata15SetMetadataItemEPKcS1_S1_
   fun:GDALRegister_JP2OpenJPEG
   fun:GDALAllRegister
   fun:_ZN11CSimulation27bCheckRasterGISOutputFormatEv
   fun:_ZN11CSimulation13nDoSimulationEiPPKc
   fun:main
}
{
   <insert_a_suppression_name_here>
   Memcheck:Leak
   match-leak-kinds: reachable
   fun:malloc
   fun:VSIStrdup
   fun:VSIStrdupVerbose
   fun:_ZN13CPLStringList9AddStringEPKc
   fun:_ZN23GDALMultiDomainMetadata15SetMetadataItemEPKcS1_S1_
   fun:GDALRegister_L1B
   fun:GDALAllRegister
   fun:_ZN11CSimulation27bCheckRasterGISOutputFormatEv
   fun:_ZN11CSimulation13nDoSimulationEiPPKc
   fun:main
}
{
   <insert_a_suppression_name_here>
   Memcheck:Leak
   match-leak-kinds: reachable
   fun:malloc
   fun:VSIStrdup
   fun:VSIStrdupVerbose
   fun:_ZN13CPLStringList9AddStringEPKc
   fun:_ZN23GDALMultiDomainMetadata15SetMetadataItemEPKcS1_S1_
   fun:GDALRegister_FIT
   fun:GDALAllRegister
   fun:_ZN11CSimulation27bCheckRasterGISOutputFormatEv
   fun:_ZN11CSimulation13nDoSimulationEiPPKc
   fun:main
}
{
   <insert_a_suppression_name_here>
   Memcheck:Leak
   match-leak-kinds: reachable
   fun:malloc
   fun:VSIStrdup
   fun:VSIStrdupVerbose
   fun:_ZN13CPLStringList9AddStringEPKc
   fun:_ZN23GDALMultiDomainMetadata15SetMetadataItemEPKcS1_S1_
   fun:GDALRegister_GRIB
   fun:GDALAllRegister
   fun:_ZN11CSimulation27bCheckRasterGISOutputFormatEv
   fun:_ZN11CSimulation13nDoSimulationEiPPKc
   fun:main
}
{
   <insert_a_suppression_name_here>
   Memcheck:Leak
   match-leak-kinds: reachable
   fun:malloc
   fun:VSIStrdup
   fun:VSIStrdupVerbose
   fun:_ZN13CPLStringList9AddStringEPKc
   fun:_ZN23GDALMultiDomainMetadata15SetMetadataItemEPKcS1_S1_
   fun:GDALRegister_RMF
   fun:GDALAllRegister
   fun:_ZN11CSimulation27bCheckRasterGISOutputFormatEv
   fun:_ZN11CSimulation13nDoSimulationEiPPKc
   fun:main
}
{
   <insert_a_suppression_name_here>
   Memcheck:Leak
   match-leak-kinds: reachable
   fun:malloc
   fun:VSIStrdup
   fun:VSIStrdupVerbose
   fun:_ZN13CPLStringList9AddStringEPKc
   fun:_ZN23GDALMultiDomainMetadata15SetMetadataItemEPKcS1_S1_
   fun:GDALRegister_WCS
   fun:GDALAllRegister
   fun:_ZN11CSimulation27bCheckRasterGISOutputFormatEv
   fun:_ZN11CSimulation13nDoSimulationEiPPKc
   fun:main
}
{
   <insert_a_suppression_name_here>
   Memcheck:Leak
   match-leak-kinds: reachable
   fun:malloc
   fun:VSIStrdup
   fun:VSIStrdupVerbose
   fun:_ZN13CPLStringList9AddStringEPKc
   fun:_ZN23GDALMultiDomainMetadata15SetMetadataItemEPKcS1_S1_
   fun:GDALRegister_WMS
   fun:GDALAllRegister
   fun:_ZN11CSimulation27bCheckRasterGISOutputFormatEv
   fun:_ZN11CSimulation13nDoSimulationEiPPKc
   fun:main
}
{
   <insert_a_suppression_name_here>
   Memcheck:Leak
   match-leak-kinds: reachable
   fun:malloc
   fun:VSIStrdup
   fun:VSIStrdupVerbose
   fun:_ZN13CPLStringList9AddStringEPKc
   fun:_ZN23GDALMultiDomainMetadata15SetMetadataItemEPKcS1_S1_
   fun:GDALRegister_MSGN
   fun:GDALAllRegister
   fun:_ZN11CSimulation27bCheckRasterGISOutputFormatEv
   fun:_ZN11CSimulation13nDoSimulationEiPPKc
   fun:main
}
{
   <insert_a_suppression_name_here>
   Memcheck:Leak
   match-leak-kinds: reachable
   fun:malloc
   fun:VSIStrdup
   fun:VSIStrdupVerbose
   fun:_ZN13CPLStringList9AddStringEPKc
   fun:_ZN23GDALMultiDomainMetadata15SetMetadataItemEPKcS1_S1_
   fun:GDALRegister_IDRISI
   fun:GDALAllRegister
   fun:_ZN11CSimulation27bCheckRasterGISOutputFormatEv
   fun:_ZN11CSimulation13nDoSimulationEiPPKc
   fun:main
}
{
   <insert_a_suppression_name_here>
   Memcheck:Leak
   match-leak-kinds: reachable
   fun:malloc
   fun:VSIStrdup
   fun:VSIStrdupVerbose
   fun:_ZN13CPLStringList9AddStringEPKc
   fun:_ZN23GDALMultiDomainMetadata15SetMetadataItemEPKcS1_S1_
   fun:GDALRegister_GSAG
   fun:GDALAllRegister
   fun:_ZN11CSimulation27bCheckRasterGISOutputFormatEv
   fun:_ZN11CSimulation13nDoSimulationEiPPKc
   fun:main
}
{
   <insert_a_suppression_name_here>
   Memcheck:Leak
   match-leak-kinds: reachable
   fun:malloc
   fun:VSIStrdup
   fun:VSIStrdupVerbose
   fun:_ZN13CPLStringList9AddStringEPKc
   fun:_ZN23GDALMultiDomainMetadata15SetMetadataItemEPKcS1_S1_
   fun:GDALRegister_GSBG
   fun:GDALAllRegister
   fun:_ZN11CSimulation27bCheckRasterGISOutputFormatEv
   fun:_ZN11CSimulation13nDoSimulationEiPPKc
   fun:main
}
{
   <insert_a_suppression_name_here>
   Memcheck:Leak
   match-leak-kinds: reachable
   fun:malloc
   fun:VSIStrdup
   fun:VSIStrdupVerbose
   fun:_ZN13CPLStringList9AddStringEPKc
   fun:_ZN23GDALMultiDomainMetadata15SetMetadataItemEPKcS1_S1_
   fun:GDALRegister_GS7BG
   fun:GDALAllRegister
   fun:_ZN11CSimulation27bCheckRasterGISOutputFormatEv
   fun:_ZN11CSimulation13nDoSimulationEiPPKc
   fun:main
}
{
   <insert_a_suppression_name_here>
   Memcheck:Leak
   match-leak-kinds: reachable
   fun:malloc
   fun:VSIStrdup
   fun:VSIStrdupVerbose
   fun:_ZN13CPLStringList9AddStringEPKc
   fun:_ZN23GDALMultiDomainMetadata15SetMetadataItemEPKcS1_S1_
   fun:GDALRegister_COSAR
   fun:GDALAllRegister
   fun:_ZN11CSimulation27bCheckRasterGISOutputFormatEv
   fun:_ZN11CSimulation13nDoSimulationEiPPKc
   fun:main
}
{
   <insert_a_suppression_name_here>
   Memcheck:Leak
   match-leak-kinds: reachable
   fun:malloc
   fun:VSIStrdup
   fun:VSIStrdupVerbose
   fun:_ZN13CPLStringList9AddStringEPKc
   fun:_ZN23GDALMultiDomainMetadata15SetMetadataItemEPKcS1_S1_
   fun:GDALRegister_TSX
   fun:GDALAllRegister
   fun:_ZN11CSimulation27bCheckRasterGISOutputFormatEv
   fun:_ZN11CSimulation13nDoSimulationEiPPKc
   fun:main
}
{
   <insert_a_suppression_name_here>
   Memcheck:Leak
   match-leak-kinds: reachable
   fun:malloc
   fun:VSIStrdup
   fun:VSIStrdupVerbose
   fun:_ZN13CPLStringList9AddStringEPKc
   fun:_ZN23GDALMultiDomainMetadata15SetMetadataItemEPKcS1_S1_
   fun:GDALRegister_COASP
   fun:GDALAllRegister
   fun:_ZN11CSimulation27bCheckRasterGISOutputFormatEv
   fun:_ZN11CSimulation13nDoSimulationEiPPKc
   fun:main
}
{
   <insert_a_suppression_name_here>
   Memcheck:Leak
   match-leak-kinds: reachable
   fun:malloc
   fun:VSIStrdup
   fun:VSIStrdupVerbose
   fun:_ZN13CPLStringList9AddStringEPKc
   fun:_ZN23GDALMultiDomainMetadata15SetMetadataItemEPKcS1_S1_
   fun:GDALRegister_R
   fun:GDALAllRegister
   fun:_ZN11CSimulation27bCheckRasterGISOutputFormatEv
   fun:_ZN11CSimulation13nDoSimulationEiPPKc
   fun:main
}
{
   <insert_a_suppression_name_here>
   Memcheck:Leak
   match-leak-kinds: reachable
   fun:malloc
   fun:VSIStrdup
   fun:VSIStrdupVerbose
   fun:_ZN13CPLStringList9AddStringEPKc
   fun:_ZN23GDALMultiDomainMetadata15SetMetadataItemEPKcS1_S1_
   fun:GDALRegister_MAP
   fun:GDALAllRegister
   fun:_ZN11CSimulation27bCheckRasterGISOutputFormatEv
   fun:_ZN11CSimulation13nDoSimulationEiPPKc
   fun:main
}
{
   <insert_a_suppression_name_here>
   Memcheck:Leak
   match-leak-kinds: reachable
   fun:malloc
   fun:VSIStrdup
   fun:VSIStrdupVerbose
   fun:_ZN13CPLStringList9AddStringEPKc
   fun:_ZN23GDALMultiDomainMetadata15SetMetadataItemEPKcS1_S1_
   fun:GDALRegister_KMLSUPEROVERLAY
   fun:GDALAllRegister
   fun:_ZN11CSimulation27bCheckRasterGISOutputFormatEv
   fun:_ZN11CSimulation13nDoSimulationEiPPKc
   fun:main
}
{
   <insert_a_suppression_name_here>
   Memcheck:Leak
   match-leak-kinds: reachable
   fun:malloc
   fun:VSIStrdup
   fun:VSIStrdupVerbose
   fun:_ZN13CPLStringList9AddStringEPKc
   fun:_ZN23GDALMultiDomainMetadata15SetMetadataItemEPKcS1_S1_
   fun:GDALRegister_WEBP
   fun:GDALAllRegister
   fun:_ZN11CSimulation27bCheckRasterGISOutputFormatEv
   fun:_ZN11CSimulation13nDoSimulationEiPPKc
   fun:main
}
{
   <insert_a_suppression_name_here>
   Memcheck:Leak
   match-leak-kinds: reachable
   fun:malloc
   fun:VSIStrdup
   fun:VSIStrdupVerbose
   fun:_ZN13CPLStringList9AddStringEPKc
   fun:_ZN23GDALMultiDomainMetadata15SetMetadataItemEPKcS1_S1_
   fun:GDALRegister_PDF
   fun:GDALAllRegister
   fun:_ZN11CSimulation27bCheckRasterGISOutputFormatEv
   fun:_ZN11CSimulation13nDoSimulationEiPPKc
   fun:main
}
{
   <insert_a_suppression_name_here>
   Memcheck:Leak
   match-leak-kinds: reachable
   fun:malloc
   fun:VSIStrdup
   fun:VSIStrdupVerbose
   fun:_ZN13CPLStringList9AddStringEPKc
   fun:_ZN23GDALMultiDomainMetadata15SetMetadataItemEPKcS1_S1_
   fun:GDALRegister_Rasterlite
   fun:GDALAllRegister
   fun:_ZN11CSimulation27bCheckRasterGISOutputFormatEv
   fun:_ZN11CSimulation13nDoSimulationEiPPKc
   fun:main
}
{
   <insert_a_suppression_name_here>
   Memcheck:Leak
   match-leak-kinds: reachable
   fun:malloc
   fun:VSIStrdup
   fun:VSIStrdupVerbose
   fun:_ZN13CPLStringList9AddStringEPKc
   fun:_ZN23GDALMultiDomainMetadata15SetMetadataItemEPKcS1_S1_
   fun:GDALRegister_MBTiles
   fun:GDALAllRegister
   fun:_ZN11CSimulation27bCheckRasterGISOutputFormatEv
   fun:_ZN11CSimulation13nDoSimulationEiPPKc
   fun:main
}
{
   <insert_a_suppression_name_here>
   Memcheck:Leak
   match-leak-kinds: reachable
   fun:malloc
   fun:VSIStrdup
   fun:VSIStrdupVerbose
   fun:_ZN13CPLStringList9AddStringEPKc
   fun:_ZN23GDALMultiDomainMetadata15SetMetadataItemEPKcS1_S1_
   fun:GDALRegister_PLMOSAIC
   fun:GDALAllRegister
   fun:_ZN11CSimulation27bCheckRasterGISOutputFormatEv
   fun:_ZN11CSimulation13nDoSimulationEiPPKc
   fun:main
}
{
   <insert_a_suppression_name_here>
   Memcheck:Leak
   match-leak-kinds: reachable
   fun:malloc
   fun:VSIStrdup
   fun:VSIStrdupVerbose
   fun:_ZN13CPLStringList9AddStringEPKc
   fun:_ZN23GDALMultiDomainMetadata15SetMetadataItemEPKcS1_S1_
   fun:GDALRegister_CALS
   fun:GDALAllRegister
   fun:_ZN11CSimulation27bCheckRasterGISOutputFormatEv
   fun:_ZN11CSimulation13nDoSimulationEiPPKc
   fun:main
}
{
   <insert_a_suppression_name_here>
   Memcheck:Leak
   match-leak-kinds: reachable
   fun:malloc
   fun:VSIStrdup
   fun:VSIStrdupVerbose
   fun:_ZN13CPLStringList9AddStringEPKc
   fun:_ZN23GDALMultiDomainMetadata15SetMetadataItemEPKcS1_S1_
   fun:GDALRegister_WMTS
   fun:GDALAllRegister
   fun:_ZN11CSimulation27bCheckRasterGISOutputFormatEv
   fun:_ZN11CSimulation13nDoSimulationEiPPKc
   fun:main
}
{
   <insert_a_suppression_name_here>
   Memcheck:Leak
   match-leak-kinds: reachable
   fun:malloc
   fun:VSIStrdup
   fun:VSIStrdupVerbose
   fun:_ZN13CPLStringList9AddStringEPKc
   fun:_ZN23GDALMultiDomainMetadata15SetMetadataItemEPKcS1_S1_
   fun:GDALRegister_SENTINEL2
   fun:GDALAllRegister
   fun:_ZN11CSimulation27bCheckRasterGISOutputFormatEv
   fun:_ZN11CSimulation13nDoSimulationEiPPKc
   fun:main
}
{
   <insert_a_suppression_name_here>
   Memcheck:Leak
   match-leak-kinds: reachable
   fun:malloc
   fun:VSIStrdup
   fun:VSIStrdupVerbose
   fun:_ZN13CPLStringList9AddStringEPKc
   fun:_ZN23GDALMultiDomainMetadata15SetMetadataItemEPKcS1_S1_
   fun:GDALRegister_mrf
   fun:GDALAllRegister
   fun:_ZN11CSimulation27bCheckRasterGISOutputFormatEv
   fun:_ZN11CSimulation13nDoSimulationEiPPKc
   fun:main
}
{
   <insert_a_suppression_name_here>
   Memcheck:Leak
   match-leak-kinds: reachable
   fun:malloc
   fun:VSIStrdup
   fun:VSIStrdupVerbose
   fun:_ZN13CPLStringList9AddStringEPKc
   fun:_ZN23GDALMultiDomainMetadata15SetMetadataItemEPKcS1_S1_
   fun:GDALRegister_PNM
   fun:GDALRegister_raw_no_sidecar
   fun:GDALAllRegister
   fun:_ZN11CSimulation27bCheckRasterGISOutputFormatEv
   fun:_ZN11CSimulation13nDoSimulationEiPPKc
   fun:main
}
{
   <insert_a_suppression_name_here>
   Memcheck:Leak
   match-leak-kinds: reachable
   fun:malloc
   fun:VSIStrdup
   fun:VSIStrdupVerbose
   fun:_ZN13CPLStringList9AddStringEPKc
   fun:_ZN23GDALMultiDomainMetadata15SetMetadataItemEPKcS1_S1_
   fun:GDALRegister_DOQ1
   fun:GDALRegister_raw_no_sidecar
   fun:GDALAllRegister
   fun:_ZN11CSimulation27bCheckRasterGISOutputFormatEv
   fun:_ZN11CSimulation13nDoSimulationEiPPKc
   fun:main
}
{
   <insert_a_suppression_name_here>
   Memcheck:Leak
   match-leak-kinds: reachable
   fun:malloc
   fun:VSIStrdup
   fun:VSIStrdupVerbose
   fun:_ZN13CPLStringList9AddStringEPKc
   fun:_ZN23GDALMultiDomainMetadata15SetMetadataItemEPKcS1_S1_
   fun:GDALRegister_DOQ2
   fun:GDALRegister_raw_no_sidecar
   fun:GDALAllRegister
   fun:_ZN11CSimulation27bCheckRasterGISOutputFormatEv
   fun:_ZN11CSimulation13nDoSimulationEiPPKc
   fun:main
}
{
   <insert_a_suppression_name_here>
   Memcheck:Leak
   match-leak-kinds: reachable
   fun:malloc
   fun:VSIStrdup
   fun:VSIStrdupVerbose
   fun:_ZN13CPLStringList9AddStringEPKc
   fun:_ZN23GDALMultiDomainMetadata15SetMetadataItemEPKcS1_S1_
   fun:GDALRegister_PAux
   fun:GDALRegister_raw_no_sidecar
   fun:GDALAllRegister
   fun:_ZN11CSimulation27bCheckRasterGISOutputFormatEv
   fun:_ZN11CSimulation13nDoSimulationEiPPKc
   fun:main
}
{
   <insert_a_suppression_name_here>
   Memcheck:Leak
   match-leak-kinds: reachable
   fun:malloc
   fun:VSIStrdup
   fun:VSIStrdupVerbose
   fun:_ZN13CPLStringList9AddStringEPKc
   fun:_ZN23GDALMultiDomainMetadata15SetMetadataItemEPKcS1_S1_
   fun:GDALRegister_MFF
   fun:GDALRegister_raw_no_sidecar
   fun:GDALAllRegister
   fun:_ZN11CSimulation27bCheckRasterGISOutputFormatEv
   fun:_ZN11CSimulation13nDoSimulationEiPPKc
   fun:main
}
{
   <insert_a_suppression_name_here>
   Memcheck:Leak
   match-leak-kinds: reachable
   fun:malloc
   fun:VSIStrdup
   fun:VSIStrdupVerbose
   fun:_ZN13CPLStringList9AddStringEPKc
   fun:_ZN23GDALMultiDomainMetadata15SetMetadataItemEPKcS1_S1_
   fun:GDALRegister_HKV
   fun:GDALRegister_raw_no_sidecar
   fun:GDALAllRegister
   fun:_ZN11CSimulation27bCheckRasterGISOutputFormatEv
   fun:_ZN11CSimulation13nDoSimulationEiPPKc
   fun:main
}
{
   <insert_a_suppression_name_here>
   Memcheck:Leak
   match-leak-kinds: reachable
   fun:malloc
   fun:VSIStrdup
   fun:VSIStrdupVerbose
   fun:_ZN13CPLStringList9AddStringEPKc
   fun:_ZN23GDALMultiDomainMetadata15SetMetadataItemEPKcS1_S1_
   fun:GDALRegister_GSC
   fun:GDALRegister_raw_no_sidecar
   fun:GDALAllRegister
   fun:_ZN11CSimulation27bCheckRasterGISOutputFormatEv
   fun:_ZN11CSimulation13nDoSimulationEiPPKc
   fun:main
}
{
   <insert_a_suppression_name_here>
   Memcheck:Leak
   match-leak-kinds: reachable
   fun:malloc
   fun:VSIStrdup
   fun:VSIStrdupVerbose
   fun:_ZN13CPLStringList9AddStringEPKc
   fun:_ZN23GDALMultiDomainMetadata15SetMetadataItemEPKcS1_S1_
   fun:GDALRegister_FAST
   fun:GDALRegister_raw_no_sidecar
   fun:GDALAllRegister
   fun:_ZN11CSimulation27bCheckRasterGISOutputFormatEv
   fun:_ZN11CSimulation13nDoSimulationEiPPKc
   fun:main
}
{
   <insert_a_suppression_name_here>
   Memcheck:Leak
   match-leak-kinds: reachable
   fun:malloc
   fun:VSIStrdup
   fun:VSIStrdupVerbose
   fun:_ZN13CPLStringList9AddStringEPKc
   fun:_ZN23GDALMultiDomainMetadata15SetMetadataItemEPKcS1_S1_
   fun:GDALRegister_BT
   fun:GDALRegister_raw_no_sidecar
   fun:GDALAllRegister
   fun:_ZN11CSimulation27bCheckRasterGISOutputFormatEv
   fun:_ZN11CSimulation13nDoSimulationEiPPKc
   fun:main
}
{
   <insert_a_suppression_name_here>
   Memcheck:Leak
   match-leak-kinds: reachable
   fun:malloc
   fun:VSIStrdup
   fun:VSIStrdupVerbose
   fun:_ZN13CPLStringList9AddStringEPKc
   fun:_ZN23GDALMultiDomainMetadata15SetMetadataItemEPKcS1_S1_
   fun:GDALRegister_LAN
   fun:GDALRegister_raw_no_sidecar
   fun:GDALAllRegister
   fun:_ZN11CSimulation27bCheckRasterGISOutputFormatEv
   fun:_ZN11CSimulation13nDoSimulationEiPPKc
   fun:main
}
{
   <insert_a_suppression_name_here>
   Memcheck:Leak
   match-leak-kinds: reachable
   fun:malloc
   fun:VSIStrdup
   fun:VSIStrdupVerbose
   fun:_ZN13CPLStringList9AddStringEPKc
   fun:_ZN23GDALMultiDomainMetadata15SetMetadataItemEPKcS1_S1_
   fun:GDALRegister_CPG
   fun:GDALRegister_raw_no_sidecar
   fun:GDALAllRegister
   fun:_ZN11CSimulation27bCheckRasterGISOutputFormatEv
   fun:_ZN11CSimulation13nDoSimulationEiPPKc
   fun:main
}
{
   <insert_a_suppression_name_here>
   Memcheck:Leak
   match-leak-kinds: reachable
   fun:malloc
   fun:VSIStrdup
   fun:VSIStrdupVerbose
   fun:_ZN13CPLStringList9AddStringEPKc
   fun:_ZN23GDALMultiDomainMetadata15SetMetadataItemEPKcS1_S1_
   fun:GDALRegister_NDF
   fun:GDALRegister_raw_no_sidecar
   fun:GDALAllRegister
   fun:_ZN11CSimulation27bCheckRasterGISOutputFormatEv
   fun:_ZN11CSimulation13nDoSimulationEiPPKc
   fun:main
}
{
   <insert_a_suppression_name_here>
   Memcheck:Leak
   match-leak-kinds: reachable
   fun:malloc
   fun:VSIStrdup
   fun:VSIStrdupVerbose
   fun:_ZN13CPLStringList9AddStringEPKc
   fun:_ZN23GDALMultiDomainMetadata15SetMetadataItemEPKcS1_S1_
   fun:GDALRegister_EIR
   fun:GDALRegister_raw_no_sidecar
   fun:GDALAllRegister
   fun:_ZN11CSimulation27bCheckRasterGISOutputFormatEv
   fun:_ZN11CSimulation13nDoSimulationEiPPKc
   fun:main
}
{
   <insert_a_suppression_name_here>
   Memcheck:Leak
   match-leak-kinds: reachable
   fun:malloc
   fun:VSIStrdup
   fun:VSIStrdupVerbose
   fun:_ZN13CPLStringList9AddStringEPKc
   fun:_ZN23GDALMultiDomainMetadata15SetMetadataItemEPKcS1_S1_
   fun:GDALRegister_DIPEx
   fun:GDALRegister_raw_no_sidecar
   fun:GDALAllRegister
   fun:_ZN11CSimulation27bCheckRasterGISOutputFormatEv
   fun:_ZN11CSimulation13nDoSimulationEiPPKc
   fun:main
}
{
   <insert_a_suppression_name_here>
   Memcheck:Leak
   match-leak-kinds: reachable
   fun:malloc
   fun:VSIStrdup
   fun:VSIStrdupVerbose
   fun:_ZN13CPLStringList9AddStringEPKc
   fun:_ZN23GDALMultiDomainMetadata15SetMetadataItemEPKcS1_S1_
   fun:GDALRegister_LCP
   fun:GDALRegister_raw_no_sidecar
   fun:GDALAllRegister
   fun:_ZN11CSimulation27bCheckRasterGISOutputFormatEv
   fun:_ZN11CSimulation13nDoSimulationEiPPKc
   fun:main
}
{
   <insert_a_suppression_name_here>
   Memcheck:Leak
   match-leak-kinds: reachable
   fun:malloc
   fun:VSIStrdup
   fun:VSIStrdupVerbose
   fun:_ZN13CPLStringList9AddStringEPKc
   fun:_ZN23GDALMultiDomainMetadata15SetMetadataItemEPKcS1_S1_
   fun:GDALRegister_GTX
   fun:GDALRegister_raw_no_sidecar
   fun:GDALAllRegister
   fun:_ZN11CSimulation27bCheckRasterGISOutputFormatEv
   fun:_ZN11CSimulation13nDoSimulationEiPPKc
   fun:main
}
{
   <insert_a_suppression_name_here>
   Memcheck:Leak
   match-leak-kinds: reachable
   fun:malloc
   fun:VSIStrdup
   fun:VSIStrdupVerbose
   fun:_ZN13CPLStringList9AddStringEPKc
   fun:_ZN23GDALMultiDomainMetadata15SetMetadataItemEPKcS1_S1_
   fun:GDALRegister_LOSLAS
   fun:GDALRegister_raw_no_sidecar
   fun:GDALAllRegister
   fun:_ZN11CSimulation27bCheckRasterGISOutputFormatEv
   fun:_ZN11CSimulation13nDoSimulationEiPPKc
   fun:main
}
{
   <insert_a_suppression_name_here>
   Memcheck:Leak
   match-leak-kinds: reachable
   fun:malloc
   fun:VSIStrdup
   fun:VSIStrdupVerbose
   fun:_ZN13CPLStringList9AddStringEPKc
   fun:_ZN23GDALMultiDomainMetadata15SetMetadataItemEPKcS1_S1_
   fun:GDALRegister_NTv2
   fun:GDALRegister_raw_no_sidecar
   fun:GDALAllRegister
   fun:_ZN11CSimulation27bCheckRasterGISOutputFormatEv
   fun:_ZN11CSimulation13nDoSimulationEiPPKc
   fun:main
}
{
   <insert_a_suppression_name_here>
   Memcheck:Leak
   match-leak-kinds: reachable
   fun:malloc
   fun:VSIStrdup
   fun:VSIStrdupVerbose
   fun:_ZN13CPLStringList9AddStringEPKc
   fun:_ZN23GDALMultiDomainMetadata15SetMetadataItemEPKcS1_S1_
   fun:GDALRegister_CTable2
   fun:GDALRegister_raw_no_sidecar
   fun:GDALAllRegister
   fun:_ZN11CSimulation27bCheckRasterGISOutputFormatEv
   fun:_ZN11CSimulation13nDoSimulationEiPPKc
   fun:main
}
{
   <insert_a_suppression_name_here>
   Memcheck:Leak
   match-leak-kinds: reachable
   fun:malloc
   fun:VSIStrdup
   fun:VSIStrdupVerbose
   fun:_ZN13CPLStringList9AddStringEPKc
   fun:_ZN23GDALMultiDomainMetadata15SetMetadataItemEPKcS1_S1_
   fun:GDALRegister_ACE2
   fun:GDALRegister_raw_no_sidecar
   fun:GDALAllRegister
   fun:_ZN11CSimulation27bCheckRasterGISOutputFormatEv
   fun:_ZN11CSimulation13nDoSimulationEiPPKc
   fun:main
}
{
   <insert_a_suppression_name_here>
   Memcheck:Leak
   match-leak-kinds: reachable
   fun:malloc
   fun:VSIStrdup
   fun:VSIStrdupVerbose
   fun:_ZN13CPLStringList9AddStringEPKc
   fun:_ZN23GDALMultiDomainMetadata15SetMetadataItemEPKcS1_S1_
   fun:GDALRegister_SNODAS
   fun:GDALRegister_raw_no_sidecar
   fun:GDALAllRegister
   fun:_ZN11CSimulation27bCheckRasterGISOutputFormatEv
   fun:_ZN11CSimulation13nDoSimulationEiPPKc
   fun:main
}
{
   <insert_a_suppression_name_here>
   Memcheck:Leak
   match-leak-kinds: reachable
   fun:malloc
   fun:VSIStrdup
   fun:VSIStrdupVerbose
   fun:_ZN13CPLStringList9AddStringEPKc
   fun:_ZN23GDALMultiDomainMetadata15SetMetadataItemEPKcS1_S1_
   fun:GDALRegister_KRO
   fun:GDALRegister_raw_no_sidecar
   fun:GDALAllRegister
   fun:_ZN11CSimulation27bCheckRasterGISOutputFormatEv
   fun:_ZN11CSimulation13nDoSimulationEiPPKc
   fun:main
}
{
   <insert_a_suppression_name_here>
   Memcheck:Leak
   match-leak-kinds: reachable
   fun:malloc
   fun:VSIStrdup
   fun:VSIStrdupVerbose
   fun:_ZN13CPLStringList9AddStringEPKc
   fun:_ZN23GDALMultiDomainMetadata15SetMetadataItemEPKcS1_S1_
   fun:GDALRegister_ROIPAC
   fun:GDALRegister_raw_no_sidecar
   fun:GDALAllRegister
   fun:_ZN11CSimulation27bCheckRasterGISOutputFormatEv
   fun:_ZN11CSimulation13nDoSimulationEiPPKc
   fun:main
}
{
   <insert_a_suppression_name_here>
   Memcheck:Leak
   match-leak-kinds: reachable
   fun:malloc
   fun:VSIStrdup
   fun:VSIStrdupVerbose
   fun:_ZN13CPLStringList9AddStringEPKc
   fun:_ZN23GDALMultiDomainMetadata15SetMetadataItemEPKcS1_S1_
   fun:GDALRegister_RRASTER
   fun:GDALRegister_raw_no_sidecar
   fun:GDALAllRegister
   fun:_ZN11CSimulation27bCheckRasterGISOutputFormatEv
   fun:_ZN11CSimulation13nDoSimulationEiPPKc
   fun:main
}
{
   <insert_a_suppression_name_here>
   Memcheck:Leak
   match-leak-kinds: reachable
   fun:malloc
   fun:VSIStrdup
   fun:VSIStrdupVerbose
   fun:_ZN13CPLStringList9AddStringEPKc
   fun:_ZN23GDALMultiDomainMetadata15SetMetadataItemEPKcS1_S1_
   fun:GDALRegister_BYN
   fun:GDALRegister_raw_no_sidecar
   fun:GDALAllRegister
   fun:_ZN11CSimulation27bCheckRasterGISOutputFormatEv
   fun:_ZN11CSimulation13nDoSimulationEiPPKc
   fun:main
}
{
   <insert_a_suppression_name_here>
   Memcheck:Leak
   match-leak-kinds: reachable
   fun:malloc
   fun:VSIStrdup
   fun:VSIStrdupVerbose
   fun:_ZN13CPLStringList9AddStringEPKc
   fun:_ZN23GDALMultiDomainMetadata15SetMetadataItemEPKcS1_S1_
   fun:GDALRegister_NOAA_B
   fun:GDALRegister_raw_no_sidecar
   fun:GDALAllRegister
   fun:_ZN11CSimulation27bCheckRasterGISOutputFormatEv
   fun:_ZN11CSimulation13nDoSimulationEiPPKc
   fun:main
}
{
   <insert_a_suppression_name_here>
   Memcheck:Leak
   match-leak-kinds: reachable
   fun:malloc
   fun:VSIStrdup
   fun:VSIStrdupVerbose
   fun:_ZN13CPLStringList9AddStringEPKc
   fun:_ZN23GDALMultiDomainMetadata15SetMetadataItemEPKcS1_S1_
   fun:GDALRegister_NSIDCbin
   fun:GDALAllRegister
   fun:_ZN11CSimulation27bCheckRasterGISOutputFormatEv
   fun:_ZN11CSimulation13nDoSimulationEiPPKc
   fun:main
}
{
   <insert_a_suppression_name_here>
   Memcheck:Leak
   match-leak-kinds: reachable
   fun:malloc
   fun:VSIStrdup
   fun:VSIStrdupVerbose
   fun:_ZN13CPLStringList9AddStringEPKc
   fun:_ZN23GDALMultiDomainMetadata15SetMetadataItemEPKcS1_S1_
   fun:GDALRegister_RIK
   fun:GDALAllRegister
   fun:_ZN11CSimulation27bCheckRasterGISOutputFormatEv
   fun:_ZN11CSimulation13nDoSimulationEiPPKc
   fun:main
}
{
   <insert_a_suppression_name_here>
   Memcheck:Leak
   match-leak-kinds: reachable
   fun:malloc
   fun:VSIStrdup
   fun:VSIStrdupVerbose
   fun:_ZN13CPLStringList9AddStringEPKc
   fun:_ZN23GDALMultiDomainMetadata15SetMetadataItemEPKcS1_S1_
   fun:GDALRegister_USGSDEM
   fun:GDALAllRegister
   fun:_ZN11CSimulation27bCheckRasterGISOutputFormatEv
   fun:_ZN11CSimulation13nDoSimulationEiPPKc
   fun:main
}
{
   <insert_a_suppression_name_here>
   Memcheck:Leak
   match-leak-kinds: reachable
   fun:malloc
   fun:VSIStrdup
   fun:VSIStrdupVerbose
   fun:_ZN13CPLStringList9AddStringEPKc
   fun:_ZN23GDALMultiDomainMetadata15SetMetadataItemEPKcS1_S1_
   fun:GDALRegister_GXF
   fun:GDALAllRegister
   fun:_ZN11CSimulation27bCheckRasterGISOutputFormatEv
   fun:_ZN11CSimulation13nDoSimulationEiPPKc
   fun:main
}
{
   <insert_a_suppression_name_here>
   Memcheck:Leak
   match-leak-kinds: reachable
   fun:malloc
   fun:VSIStrdup
   fun:VSIStrdupVerbose
   fun:_ZN13CPLStringList9AddStringEPKc
   fun:_ZN23GDALMultiDomainMetadata15SetMetadataItemEPKcS1_S1_
   fun:GDALRegister_BAG
   fun:GDALAllRegister
   fun:_ZN11CSimulation27bCheckRasterGISOutputFormatEv
   fun:_ZN11CSimulation13nDoSimulationEiPPKc
   fun:main
}
{
   <insert_a_suppression_name_here>
   Memcheck:Leak
   match-leak-kinds: reachable
   fun:malloc
   fun:VSIStrdup
   fun:VSIStrdupVerbose
   fun:_ZN13CPLStringList9AddStringEPKc
   fun:_ZN23GDALMultiDomainMetadata15SetMetadataItemEPKcS1_S1_
   fun:GDALRegister_S102
   fun:GDALAllRegister
   fun:_ZN11CSimulation27bCheckRasterGISOutputFormatEv
   fun:_ZN11CSimulation13nDoSimulationEiPPKc
   fun:main
}
{
   <insert_a_suppression_name_here>
   Memcheck:Leak
   match-leak-kinds: reachable
   fun:malloc
   fun:VSIStrdup
   fun:VSIStrdupVerbose
   fun:_ZN13CPLStringList9AddStringEPKc
   fun:_ZN23GDALMultiDomainMetadata15SetMetadataItemEPKcS1_S1_
   fun:GDALRegister_S104
   fun:GDALAllRegister
   fun:_ZN11CSimulation27bCheckRasterGISOutputFormatEv
   fun:_ZN11CSimulation13nDoSimulationEiPPKc
   fun:main
}
{
   <insert_a_suppression_name_here>
   Memcheck:Leak
   match-leak-kinds: reachable
   fun:malloc
   fun:VSIStrdup
   fun:VSIStrdupVerbose
   fun:_ZN13CPLStringList9AddStringEPKc
   fun:_ZN23GDALMultiDomainMetadata15SetMetadataItemEPKcS1_S1_
   fun:GDALRegister_S111
   fun:GDALAllRegister
   fun:_ZN11CSimulation27bCheckRasterGISOutputFormatEv
   fun:_ZN11CSimulation13nDoSimulationEiPPKc
   fun:main
}
{
   <insert_a_suppression_name_here>
   Memcheck:Leak
   match-leak-kinds: reachable
   fun:malloc
   fun:VSIStrdup
   fun:VSIStrdupVerbose
   fun:_ZN13CPLStringList9AddStringEPKc
   fun:_ZN23GDALMultiDomainMetadata15SetMetadataItemEPKcS1_S1_
   fun:GDALRegister_HDF5
   fun:GDALAllRegister
   fun:_ZN11CSimulation27bCheckRasterGISOutputFormatEv
   fun:_ZN11CSimulation13nDoSimulationEiPPKc
   fun:main
}
{
   <insert_a_suppression_name_here>
   Memcheck:Leak
   match-leak-kinds: reachable
   fun:malloc
   fun:VSIStrdup
   fun:VSIStrdupVerbose
   fun:_ZN13CPLStringList9AddStringEPKc
   fun:_ZN23GDALMultiDomainMetadata15SetMetadataItemEPKcS1_S1_
   fun:GDALRegister_HDF5Image
   fun:GDALAllRegister
   fun:_ZN11CSimulation27bCheckRasterGISOutputFormatEv
   fun:_ZN11CSimulation13nDoSimulationEiPPKc
   fun:main
}
{
   <insert_a_suppression_name_here>
   Memcheck:Leak
   match-leak-kinds: reachable
   fun:malloc
   fun:VSIStrdup
   fun:VSIStrdupVerbose
   fun:_ZN13CPLStringList9AddStringEPKc
   fun:_ZN23GDALMultiDomainMetadata15SetMetadataItemEPKcS1_S1_
   fun:GDALRegister_NWT_GRD
   fun:GDALAllRegister
   fun:_ZN11CSimulation27bCheckRasterGISOutputFormatEv
   fun:_ZN11CSimulation13nDoSimulationEiPPKc
   fun:main
}
{
   <insert_a_suppression_name_here>
   Memcheck:Leak
   match-leak-kinds: reachable
   fun:malloc
   fun:VSIStrdup
   fun:VSIStrdupVerbose
   fun:_ZN13CPLStringList9AddStringEPKc
   fun:_ZN23GDALMultiDomainMetadata15SetMetadataItemEPKcS1_S1_
   fun:GDALRegister_NWT_GRC
   fun:GDALAllRegister
   fun:_ZN11CSimulation27bCheckRasterGISOutputFormatEv
   fun:_ZN11CSimulation13nDoSimulationEiPPKc
   fun:main
}
{
   <insert_a_suppression_name_here>
   Memcheck:Leak
   match-leak-kinds: reachable
   fun:malloc
   fun:VSIStrdup
   fun:VSIStrdupVerbose
   fun:_ZN13CPLStringList9AddStringEPKc
   fun:_ZN23GDALMultiDomainMetadata15SetMetadataItemEPKcS1_S1_
   fun:GDALRegister_ADRG
   fun:GDALAllRegister
   fun:_ZN11CSimulation27bCheckRasterGISOutputFormatEv
   fun:_ZN11CSimulation13nDoSimulationEiPPKc
   fun:main
}
{
   <insert_a_suppression_name_here>
   Memcheck:Leak
   match-leak-kinds: reachable
   fun:malloc
   fun:VSIStrdup
   fun:VSIStrdupVerbose
   fun:_ZN13CPLStringList9AddStringEPKc
   fun:_ZN23GDALMultiDomainMetadata15SetMetadataItemEPKcS1_S1_
   fun:GDALRegister_SRP
   fun:GDALAllRegister
   fun:_ZN11CSimulation27bCheckRasterGISOutputFormatEv
   fun:_ZN11CSimulation13nDoSimulationEiPPKc
   fun:main
}
{
   <insert_a_suppression_name_here>
   Memcheck:Leak
   match-leak-kinds: reachable
   fun:malloc
   fun:VSIStrdup
   fun:VSIStrdupVerbose
   fun:_ZN13CPLStringList9AddStringEPKc
   fun:_ZN23GDALMultiDomainMetadata15SetMetadataItemEPKcS1_S1_
   fun:GDALRegister_BLX
   fun:GDALAllRegister
   fun:_ZN11CSimulation27bCheckRasterGISOutputFormatEv
   fun:_ZN11CSimulation13nDoSimulationEiPPKc
   fun:main
}
{
   <insert_a_suppression_name_here>
   Memcheck:Leak
   match-leak-kinds: reachable
   fun:malloc
   fun:VSIStrdup
   fun:VSIStrdupVerbose
   fun:_ZN13CPLStringList9AddStringEPKc
   fun:_ZN23GDALMultiDomainMetadata15SetMetadataItemEPKcS1_S1_
   fun:GDALRegister_PostGISRaster
   fun:GDALAllRegister
   fun:_ZN11CSimulation27bCheckRasterGISOutputFormatEv
   fun:_ZN11CSimulation13nDoSimulationEiPPKc
   fun:main
}
{
   <insert_a_suppression_name_here>
   Memcheck:Leak
   match-leak-kinds: reachable
   fun:malloc
   fun:VSIStrdup
   fun:VSIStrdupVerbose
   fun:_ZN13CPLStringList9AddStringEPKc
   fun:_ZN23GDALMultiDomainMetadata15SetMetadataItemEPKcS1_S1_
   fun:GDALRegister_SAGA
   fun:GDALAllRegister
   fun:_ZN11CSimulation27bCheckRasterGISOutputFormatEv
   fun:_ZN11CSimulation13nDoSimulationEiPPKc
   fun:main
}
{
   <insert_a_suppression_name_here>
   Memcheck:Leak
   match-leak-kinds: reachable
   fun:malloc
   fun:VSIStrdup
   fun:VSIStrdupVerbose
   fun:_ZN13CPLStringList9AddStringEPKc
   fun:_ZN23GDALMultiDomainMetadata15SetMetadataItemEPKcS1_S1_
   fun:GDALRegister_XYZ
   fun:GDALAllRegister
   fun:_ZN11CSimulation27bCheckRasterGISOutputFormatEv
   fun:_ZN11CSimulation13nDoSimulationEiPPKc
   fun:main
}
{
   <insert_a_suppression_name_here>
   Memcheck:Leak
   match-leak-kinds: reachable
   fun:malloc
   fun:VSIStrdup
   fun:VSIStrdupVerbose
   fun:_ZN13CPLStringList9AddStringEPKc
   fun:_ZN23GDALMultiDomainMetadata15SetMetadataItemEPKcS1_S1_
   fun:GDALRegister_HF2
   fun:GDALAllRegister
   fun:_ZN11CSimulation27bCheckRasterGISOutputFormatEv
   fun:_ZN11CSimulation13nDoSimulationEiPPKc
   fun:main
}
{
   <insert_a_suppression_name_here>
   Memcheck:Leak
   match-leak-kinds: reachable
   fun:malloc
   fun:VSIStrdup
   fun:VSIStrdupVerbose
   fun:_ZN13CPLStringList9AddStringEPKc
   fun:_ZN23GDALMultiDomainMetadata15SetMetadataItemEPKcS1_S1_
   fun:GDALRegister_OZI
   fun:GDALAllRegister
   fun:_ZN11CSimulation27bCheckRasterGISOutputFormatEv
   fun:_ZN11CSimulation13nDoSimulationEiPPKc
   fun:main
}
{
   <insert_a_suppression_name_here>
   Memcheck:Leak
   match-leak-kinds: reachable
   fun:malloc
   fun:VSIStrdup
   fun:VSIStrdupVerbose
   fun:_ZN13CPLStringList9AddStringEPKc
   fun:_ZN23GDALMultiDomainMetadata15SetMetadataItemEPKcS1_S1_
   fun:GDALRegister_CTG
   fun:GDALAllRegister
   fun:_ZN11CSimulation27bCheckRasterGISOutputFormatEv
   fun:_ZN11CSimulation13nDoSimulationEiPPKc
   fun:main
}
{
   <insert_a_suppression_name_here>
   Memcheck:Leak
   match-leak-kinds: reachable
   fun:malloc
   fun:VSIStrdup
   fun:VSIStrdupVerbose
   fun:_ZN13CPLStringList9AddStringEPKc
   fun:_ZN23GDALMultiDomainMetadata15SetMetadataItemEPKcS1_S1_
   fun:GDALRegister_ZMap
   fun:GDALAllRegister
   fun:_ZN11CSimulation27bCheckRasterGISOutputFormatEv
   fun:_ZN11CSimulation13nDoSimulationEiPPKc
   fun:main
}
{
   <insert_a_suppression_name_here>
   Memcheck:Leak
   match-leak-kinds: reachable
   fun:malloc
   fun:VSIStrdup
   fun:VSIStrdupVerbose
   fun:_ZN13CPLStringList9AddStringEPKc
   fun:_ZN23GDALMultiDomainMetadata15SetMetadataItemEPKcS1_S1_
   fun:GDALRegister_NGSGEOID
   fun:GDALAllRegister
   fun:_ZN11CSimulation27bCheckRasterGISOutputFormatEv
   fun:_ZN11CSimulation13nDoSimulationEiPPKc
   fun:main
}
{
   <insert_a_suppression_name_here>
   Memcheck:Leak
   match-leak-kinds: reachable
   fun:malloc
   fun:VSIStrdup
   fun:VSIStrdupVerbose
   fun:_ZN13CPLStringList9AddStringEPKc
   fun:_ZN23GDALMultiDomainMetadata15SetMetadataItemEPKcS1_S1_
   fun:GDALRegister_IRIS
   fun:GDALAllRegister
   fun:_ZN11CSimulation27bCheckRasterGISOutputFormatEv
   fun:_ZN11CSimulation13nDoSimulationEiPPKc
   fun:main
}
{
   <insert_a_suppression_name_here>
   Memcheck:Leak
   match-leak-kinds: reachable
   fun:malloc
   fun:VSIStrdup
   fun:VSIStrdupVerbose
   fun:_ZN13CPLStringList9AddStringEPKc
   fun:_ZN23GDALMultiDomainMetadata15SetMetadataItemEPKcS1_S1_
   fun:GDALRegister_PRF
   fun:GDALAllRegister
   fun:_ZN11CSimulation27bCheckRasterGISOutputFormatEv
   fun:_ZN11CSimulation13nDoSimulationEiPPKc
   fun:main
}
{
   <insert_a_suppression_name_here>
   Memcheck:Leak
   match-leak-kinds: reachable
   fun:malloc
   fun:VSIStrdup
   fun:VSIStrdupVerbose
   fun:_ZN13CPLStringList9AddStringEPKc
   fun:_ZN23GDALMultiDomainMetadata15SetMetadataItemEPKcS1_S1_
   fun:GDALRegister_EEDAI
   fun:GDALAllRegister
   fun:_ZN11CSimulation27bCheckRasterGISOutputFormatEv
   fun:_ZN11CSimulation13nDoSimulationEiPPKc
   fun:main
}
{
   <insert_a_suppression_name_here>
   Memcheck:Leak
   match-leak-kinds: reachable
   fun:malloc
   fun:VSIStrdup
   fun:VSIStrdupVerbose
   fun:_ZN13CPLStringList9AddStringEPKc
   fun:_ZN23GDALMultiDomainMetadata15SetMetadataItemEPKcS1_S1_
   fun:GDALRegister_EEDA
   fun:GDALAllRegister
   fun:_ZN11CSimulation27bCheckRasterGISOutputFormatEv
   fun:_ZN11CSimulation13nDoSimulationEiPPKc
   fun:main
}
{
   <insert_a_suppression_name_here>
   Memcheck:Leak
   match-leak-kinds: reachable
   fun:malloc
   fun:VSIStrdup
   fun:VSIStrdupVerbose
   fun:_ZN13CPLStringList9AddStringEPKc
   fun:_ZN23GDALMultiDomainMetadata15SetMetadataItemEPKcS1_S1_
   fun:GDALRegister_DAAS
   fun:GDALAllRegister
   fun:_ZN11CSimulation27bCheckRasterGISOutputFormatEv
   fun:_ZN11CSimulation13nDoSimulationEiPPKc
   fun:main
}
{
   <insert_a_suppression_name_here>
   Memcheck:Leak
   match-leak-kinds: reachable
   fun:malloc
   fun:VSIStrdup
   fun:VSIStrdupVerbose
   fun:_ZN13CPLStringList9AddStringEPKc
   fun:_ZN23GDALMultiDomainMetadata15SetMetadataItemEPKcS1_S1_
   fun:GDALRegister_SIGDEM
   fun:GDALAllRegister
   fun:_ZN11CSimulation27bCheckRasterGISOutputFormatEv
   fun:_ZN11CSimulation13nDoSimulationEiPPKc
   fun:main
}
{
   <insert_a_suppression_name_here>
   Memcheck:Leak
   match-leak-kinds: reachable
   fun:malloc
   fun:VSIStrdup
   fun:VSIStrdupVerbose
   fun:_ZN13CPLStringList9AddStringEPKc
   fun:_ZN23GDALMultiDomainMetadata15SetMetadataItemEPKcS1_S1_
   obj:/usr/lib/x86_64-linux-gnu/libgdal.so.36.3.10.2
   fun:GDALRegister_AVIF
   fun:GDALAllRegister
   fun:_ZN11CSimulation27bCheckRasterGISOutputFormatEv
   fun:_ZN11CSimulation13nDoSimulationEiPPKc
   fun:main
}
{
   <insert_a_suppression_name_here>
   Memcheck:Leak
   match-leak-kinds: reachable
   fun:malloc
   fun:VSIStrdup
   fun:VSIStrdupVerbose
   fun:_ZN13CPLStringList9AddStringEPKc
   fun:_ZN23GDALMultiDomainMetadata15SetMetadataItemEPKcS1_S1_
   fun:GDALRegister_HEIF
   fun:GDALAllRegister
   fun:_ZN11CSimulation27bCheckRasterGISOutputFormatEv
   fun:_ZN11CSimulation13nDoSimulationEiPPKc
   fun:main
}
{
   <insert_a_suppression_name_here>
   Memcheck:Leak
   match-leak-kinds: reachable
   fun:malloc
   fun:VSIStrdup
   fun:VSIStrdupVerbose
   fun:_ZN13CPLStringList9AddStringEPKc
   fun:_ZN23GDALMultiDomainMetadata15SetMetadataItemEPKcS1_S1_
   fun:GDALRegister_TGA
   fun:GDALAllRegister
   fun:_ZN11CSimulation27bCheckRasterGISOutputFormatEv
   fun:_ZN11CSimulation13nDoSimulationEiPPKc
   fun:main
}
{
   <insert_a_suppression_name_here>
   Memcheck:Leak
   match-leak-kinds: reachable
   fun:malloc
   fun:VSIStrdup
   fun:VSIStrdupVerbose
   fun:_ZN13CPLStringList9AddStringEPKc
   fun:_ZN23GDALMultiDomainMetadata15SetMetadataItemEPKcS1_S1_
   fun:GDALRegister_OGCAPI
   fun:GDALAllRegister
   fun:_ZN11CSimulation27bCheckRasterGISOutputFormatEv
   fun:_ZN11CSimulation13nDoSimulationEiPPKc
   fun:main
}
{
   <insert_a_suppression_name_here>
   Memcheck:Leak
   match-leak-kinds: reachable
   fun:malloc
   fun:VSIStrdup
   fun:VSIStrdupVerbose
   fun:_ZN13CPLStringList9AddStringEPKc
   fun:_ZN23GDALMultiDomainMetadata15SetMetadataItemEPKcS1_S1_
   fun:GDALRegister_STACTA
   fun:GDALAllRegister
   fun:_ZN11CSimulation27bCheckRasterGISOutputFormatEv
   fun:_ZN11CSimulation13nDoSimulationEiPPKc
   fun:main
}
{
   <insert_a_suppression_name_here>
   Memcheck:Leak
   match-leak-kinds: reachable
   fun:malloc
   fun:VSIStrdup
   fun:VSIStrdupVerbose
   fun:_ZN13CPLStringList9AddStringEPKc
   fun:_ZN23GDALMultiDomainMetadata15SetMetadataItemEPKcS1_S1_
   fun:GDALRegister_STACIT
   fun:GDALAllRegister
   fun:_ZN11CSimulation27bCheckRasterGISOutputFormatEv
   fun:_ZN11CSimulation13nDoSimulationEiPPKc
   fun:main
}
{
   <insert_a_suppression_name_here>
   Memcheck:Leak
   match-leak-kinds: reachable
   fun:malloc
   fun:VSIStrdup
   fun:VSIStrdupVerbose
   fun:_ZN13CPLStringList9AddStringEPKc
   fun:_ZN23GDALMultiDomainMetadata15SetMetadataItemEPKcS1_S1_
   fun:RegisterGNMFile
   fun:GDALAllRegister
   fun:_ZN11CSimulation27bCheckRasterGISOutputFormatEv
   fun:_ZN11CSimulation13nDoSimulationEiPPKc
   fun:main
}
{
   <insert_a_suppression_name_here>
   Memcheck:Leak
   match-leak-kinds: reachable
   fun:malloc
   fun:VSIStrdup
   fun:VSIStrdupVerbose
   fun:_ZN13CPLStringList9AddStringEPKc
   fun:_ZN23GDALMultiDomainMetadata15SetMetadataItemEPKcS1_S1_
   fun:RegisterGNMDatabase
   fun:GDALAllRegister
   fun:_ZN11CSimulation27bCheckRasterGISOutputFormatEv
   fun:_ZN11CSimulation13nDoSimulationEiPPKc
   fun:main
}
{
   <insert_a_suppression_name_here>
   Memcheck:Leak
   match-leak-kinds: reachable
   fun:malloc
   fun:VSIStrdup
   fun:VSIStrdupVerbose
   fun:_ZN13CPLStringList9AddStringEPKc
   fun:_ZN23GDALMultiDomainMetadata15SetMetadataItemEPKcS1_S1_
   fun:RegisterOGRShape
   fun:GDALAllRegister
   fun:_ZN11CSimulation27bCheckRasterGISOutputFormatEv
   fun:_ZN11CSimulation13nDoSimulationEiPPKc
   fun:main
}
{
   <insert_a_suppression_name_here>
   Memcheck:Leak
   match-leak-kinds: reachable
   fun:malloc
   fun:VSIStrdup
   fun:VSIStrdupVerbose
   fun:_ZN13CPLStringList9AddStringEPKc
   fun:_ZN23GDALMultiDomainMetadata15SetMetadataItemEPKcS1_S1_
   fun:RegisterOGRTAB
   fun:GDALAllRegister
   fun:_ZN11CSimulation27bCheckRasterGISOutputFormatEv
   fun:_ZN11CSimulation13nDoSimulationEiPPKc
   fun:main
}
{
   <insert_a_suppression_name_here>
   Memcheck:Leak
   match-leak-kinds: reachable
   fun:malloc
   fun:VSIStrdup
   fun:VSIStrdupVerbose
   fun:_ZN13CPLStringList9AddStringEPKc
   fun:_ZN23GDALMultiDomainMetadata15SetMetadataItemEPKcS1_S1_
   fun:RegisterOGRNTF
   fun:GDALAllRegister
   fun:_ZN11CSimulation27bCheckRasterGISOutputFormatEv
   fun:_ZN11CSimulation13nDoSimulationEiPPKc
   fun:main
}
{
   <insert_a_suppression_name_here>
   Memcheck:Leak
   match-leak-kinds: reachable
   fun:malloc
   fun:VSIStrdup
   fun:VSIStrdupVerbose
   fun:_ZN13CPLStringList9AddStringEPKc
   fun:_ZN23GDALMultiDomainMetadata15SetMetadataItemEPKcS1_S1_
   fun:RegisterOGRLVBAG
   fun:GDALAllRegister
   fun:_ZN11CSimulation27bCheckRasterGISOutputFormatEv
   fun:_ZN11CSimulation13nDoSimulationEiPPKc
   fun:main
}
{
   <insert_a_suppression_name_here>
   Memcheck:Leak
   match-leak-kinds: reachable
   fun:malloc
   fun:VSIStrdup
   fun:VSIStrdupVerbose
   fun:_ZN13CPLStringList9AddStringEPKc
   fun:_ZN23GDALMultiDomainMetadata15SetMetadataItemEPKcS1_S1_
   fun:RegisterOGRSDTS
   fun:GDALAllRegister
   fun:_ZN11CSimulation27bCheckRasterGISOutputFormatEv
   fun:_ZN11CSimulation13nDoSimulationEiPPKc
   fun:main
}
{
   <insert_a_suppression_name_here>
   Memcheck:Leak
   match-leak-kinds: reachable
   fun:malloc
   fun:VSIStrdup
   fun:VSIStrdupVerbose
   fun:_ZN13CPLStringList9AddStringEPKc
   fun:_ZN23GDALMultiDomainMetadata15SetMetadataItemEPKcS1_S1_
   fun:RegisterOGRS57
   fun:GDALAllRegister
   fun:_ZN11CSimulation27bCheckRasterGISOutputFormatEv
   fun:_ZN11CSimulation13nDoSimulationEiPPKc
   fun:main
}
{
   <insert_a_suppression_name_here>
   Memcheck:Leak
   match-leak-kinds: reachable
   fun:malloc
   fun:VSIStrdup
   fun:VSIStrdupVerbose
   fun:_ZN13CPLStringList9AddStringEPKc
   fun:_ZN23GDALMultiDomainMetadata15SetMetadataItemEPKcS1_S1_
   fun:RegisterOGRDGN
   fun:GDALAllRegister
   fun:_ZN11CSimulation27bCheckRasterGISOutputFormatEv
   fun:_ZN11CSimulation13nDoSimulationEiPPKc
   fun:main
}
{
   <insert_a_suppression_name_here>
   Memcheck:Leak
   match-leak-kinds: reachable
   fun:malloc
   fun:VSIStrdup
   fun:VSIStrdupVerbose
   fun:_ZN13CPLStringList9AddStringEPKc
   fun:_ZN23GDALMultiDomainMetadata15SetMetadataItemEPKcS1_S1_
   fun:RegisterOGRVRT
   fun:GDALAllRegister
   fun:_ZN11CSimulation27bCheckRasterGISOutputFormatEv
   fun:_ZN11CSimulation13nDoSimulationEiPPKc
   fun:main
}
{
   <insert_a_suppression_name_here>
   Memcheck:Leak
   match-leak-kinds: reachable
   fun:malloc
   fun:VSIStrdup
   fun:VSIStrdupVerbose
   fun:_ZN13CPLStringList9AddStringEPKc
   fun:_ZN23GDALMultiDomainMetadata15SetMetadataItemEPKcS1_S1_
   fun:RegisterOGRMEM
   fun:GDALAllRegister
   fun:_ZN11CSimulation27bCheckRasterGISOutputFormatEv
   fun:_ZN11CSimulation13nDoSimulationEiPPKc
   fun:main
}
{
   <insert_a_suppression_name_here>
   Memcheck:Leak
   match-leak-kinds: reachable
   fun:malloc
   fun:VSIStrdup
   fun:VSIStrdupVerbose
   fun:_ZN13CPLStringList9AddStringEPKc
   fun:_ZN23GDALMultiDomainMetadata15SetMetadataItemEPKcS1_S1_
   fun:RegisterOGRCSV
   fun:GDALAllRegister
   fun:_ZN11CSimulation27bCheckRasterGISOutputFormatEv
   fun:_ZN11CSimulation13nDoSimulationEiPPKc
   fun:main
}
{
   <insert_a_suppression_name_here>
   Memcheck:Leak
   match-leak-kinds: reachable
   fun:malloc
   fun:VSIStrdup
   fun:VSIStrdupVerbose
   fun:_ZN13CPLStringList9AddStringEPKc
   fun:_ZN23GDALMultiDomainMetadata15SetMetadataItemEPKcS1_S1_
   fun:RegisterOGRNAS
   fun:GDALAllRegister
   fun:_ZN11CSimulation27bCheckRasterGISOutputFormatEv
   fun:_ZN11CSimulation13nDoSimulationEiPPKc
   fun:main
}
{
   <insert_a_suppression_name_here>
   Memcheck:Leak
   match-leak-kinds: reachable
   fun:malloc
   fun:VSIStrdup
   fun:VSIStrdupVerbose
   fun:_ZN13CPLStringList9AddStringEPKc
   fun:_ZN23GDALMultiDomainMetadata15SetMetadataItemEPKcS1_S1_
   fun:RegisterOGRGML
   fun:GDALAllRegister
   fun:_ZN11CSimulation27bCheckRasterGISOutputFormatEv
   fun:_ZN11CSimulation13nDoSimulationEiPPKc
   fun:main
}
{
   <insert_a_suppression_name_here>
   Memcheck:Leak
   match-leak-kinds: reachable
   fun:malloc
   fun:VSIStrdup
   fun:VSIStrdupVerbose
   fun:_ZN13CPLStringList9AddStringEPKc
   fun:_ZN23GDALMultiDomainMetadata15SetMetadataItemEPKcS1_S1_
   fun:RegisterOGRGPX
   fun:GDALAllRegister
   fun:_ZN11CSimulation27bCheckRasterGISOutputFormatEv
   fun:_ZN11CSimulation13nDoSimulationEiPPKc
   fun:main
}
{
   <insert_a_suppression_name_here>
   Memcheck:Leak
   match-leak-kinds: reachable
   fun:malloc
   fun:VSIStrdup
   fun:VSIStrdupVerbose
   fun:_ZN13CPLStringList9AddStringEPKc
   fun:_ZN23GDALMultiDomainMetadata15SetMetadataItemEPKcS1_S1_
   fun:RegisterOGRLIBKML
   fun:GDALAllRegister
   fun:_ZN11CSimulation27bCheckRasterGISOutputFormatEv
   fun:_ZN11CSimulation13nDoSimulationEiPPKc
   fun:main
}
{
   <insert_a_suppression_name_here>
   Memcheck:Leak
   match-leak-kinds: reachable
   fun:malloc
   fun:VSIStrdup
   fun:VSIStrdupVerbose
   fun:_ZN13CPLStringList9AddStringEPKc
   fun:_ZN23GDALMultiDomainMetadata15SetMetadataItemEPKcS1_S1_
   fun:RegisterOGRKML
   fun:GDALAllRegister
   fun:_ZN11CSimulation27bCheckRasterGISOutputFormatEv
   fun:_ZN11CSimulation13nDoSimulationEiPPKc
   fun:main
}
{
   <insert_a_suppression_name_here>
   Memcheck:Leak
   match-leak-kinds: reachable
   fun:malloc
   fun:VSIStrdup
   fun:VSIStrdupVerbose
   fun:_ZN13CPLStringList9AddStringEPKc
   fun:_ZN23GDALMultiDomainMetadata15SetMetadataItemEPKcS1_S1_
   fun:RegisterOGRGeoJSON
   fun:GDALAllRegister
   fun:_ZN11CSimulation27bCheckRasterGISOutputFormatEv
   fun:_ZN11CSimulation13nDoSimulationEiPPKc
   fun:main
}
{
   <insert_a_suppression_name_here>
   Memcheck:Leak
   match-leak-kinds: reachable
   fun:malloc
   fun:VSIStrdup
   fun:VSIStrdupVerbose
   fun:_ZN13CPLStringList9AddStringEPKc
   fun:_ZN23GDALMultiDomainMetadata15SetMetadataItemEPKcS1_S1_
   fun:RegisterOGRGeoJSONSeq
   fun:GDALAllRegister
   fun:_ZN11CSimulation27bCheckRasterGISOutputFormatEv
   fun:_ZN11CSimulation13nDoSimulationEiPPKc
   fun:main
}
{
   <insert_a_suppression_name_here>
   Memcheck:Leak
   match-leak-kinds: reachable
   fun:malloc
   fun:VSIStrdup
   fun:VSIStrdupVerbose
   fun:_ZN13CPLStringList9AddStringEPKc
   fun:_ZN23GDALMultiDomainMetadata15SetMetadataItemEPKcS1_S1_
   fun:RegisterOGRESRIJSON
   fun:GDALAllRegister
   fun:_ZN11CSimulation27bCheckRasterGISOutputFormatEv
   fun:_ZN11CSimulation13nDoSimulationEiPPKc
   fun:main
}
{
   <insert_a_suppression_name_here>
   Memcheck:Leak
   match-leak-kinds: reachable
   fun:malloc
   fun:VSIStrdup
   fun:VSIStrdupVerbose
   fun:_ZN13CPLStringList9AddStringEPKc
   fun:_ZN23GDALMultiDomainMetadata15SetMetadataItemEPKcS1_S1_
   fun:RegisterOGRTopoJSON
   fun:GDALAllRegister
   fun:_ZN11CSimulation27bCheckRasterGISOutputFormatEv
   fun:_ZN11CSimulation13nDoSimulationEiPPKc
   fun:main
}
{
   <insert_a_suppression_name_here>
   Memcheck:Leak
   match-leak-kinds: reachable
   fun:malloc
   fun:VSIStrdup
   fun:VSIStrdupVerbose
   fun:_ZN13CPLStringList9AddStringEPKc
   fun:_ZN23GDALMultiDomainMetadata15SetMetadataItemEPKcS1_S1_
   fun:RegisterOGRILI1
   fun:GDALAllRegister
   fun:_ZN11CSimulation27bCheckRasterGISOutputFormatEv
   fun:_ZN11CSimulation13nDoSimulationEiPPKc
   fun:main
}
{
   <insert_a_suppression_name_here>
   Memcheck:Leak
   match-leak-kinds: reachable
   fun:malloc
   fun:VSIStrdup
   fun:VSIStrdupVerbose
   fun:_ZN13CPLStringList9AddStringEPKc
   fun:_ZN23GDALMultiDomainMetadata15SetMetadataItemEPKcS1_S1_
   fun:RegisterOGRILI2
   fun:GDALAllRegister
   fun:_ZN11CSimulation27bCheckRasterGISOutputFormatEv
   fun:_ZN11CSimulation13nDoSimulationEiPPKc
   fun:main
}
{
   <insert_a_suppression_name_here>
   Memcheck:Leak
   match-leak-kinds: reachable
   fun:malloc
   fun:VSIStrdup
   fun:VSIStrdupVerbose
   fun:_ZN13CPLStringList9AddStringEPKc
   fun:_ZN23GDALMultiDomainMetadata15SetMetadataItemEPKcS1_S1_
   fun:RegisterOGRGMT
   fun:GDALAllRegister
   fun:_ZN11CSimulation27bCheckRasterGISOutputFormatEv
   fun:_ZN11CSimulation13nDoSimulationEiPPKc
   fun:main
}
{
   <insert_a_suppression_name_here>
   Memcheck:Leak
   match-leak-kinds: reachable
   fun:malloc
   fun:VSIStrdup
   fun:VSIStrdupVerbose
   fun:_ZN13CPLStringList9AddStringEPKc
   fun:_ZN23GDALMultiDomainMetadata15SetMetadataItemEPKcS1_S1_
   fun:RegisterOGRGeoPackage
   fun:GDALAllRegister
   fun:_ZN11CSimulation27bCheckRasterGISOutputFormatEv
   fun:_ZN11CSimulation13nDoSimulationEiPPKc
   fun:main
}
{
   <insert_a_suppression_name_here>
   Memcheck:Leak
   match-leak-kinds: reachable
   fun:malloc
   fun:VSIStrdup
   fun:VSIStrdupVerbose
   fun:_ZN13CPLStringList9AddStringEPKc
   fun:_ZN23GDALMultiDomainMetadata15SetMetadataItemEPKcS1_S1_
   fun:RegisterOGRSQLite
   fun:GDALAllRegister
   fun:_ZN11CSimulation27bCheckRasterGISOutputFormatEv
   fun:_ZN11CSimulation13nDoSimulationEiPPKc
   fun:main
}
{
   <insert_a_suppression_name_here>
   Memcheck:Leak
   match-leak-kinds: reachable
   fun:malloc
   fun:VSIStrdup
   fun:VSIStrdupVerbose
   fun:_ZN13CPLStringList9AddStringEPKc
   fun:_ZN23GDALMultiDomainMetadata15SetMetadataItemEPKcS1_S1_
   fun:RegisterOGRODBC
   fun:GDALAllRegister
   fun:_ZN11CSimulation27bCheckRasterGISOutputFormatEv
   fun:_ZN11CSimulation13nDoSimulationEiPPKc
   fun:main
}
{
   <insert_a_suppression_name_here>
   Memcheck:Leak
   match-leak-kinds: reachable
   fun:malloc
   fun:VSIStrdup
   fun:VSIStrdupVerbose
   fun:_ZN13CPLStringList9AddStringEPKc
   fun:_ZN23GDALMultiDomainMetadata15SetMetadataItemEPKcS1_S1_
   fun:RegisterOGRWAsP
   fun:GDALAllRegister
   fun:_ZN11CSimulation27bCheckRasterGISOutputFormatEv
   fun:_ZN11CSimulation13nDoSimulationEiPPKc
   fun:main
}
{
   <insert_a_suppression_name_here>
   Memcheck:Leak
   match-leak-kinds: reachable
   fun:malloc
   fun:VSIStrdup
   fun:VSIStrdupVerbose
   fun:_ZN13CPLStringList9AddStringEPKc
   fun:_ZN23GDALMultiDomainMetadata15SetMetadataItemEPKcS1_S1_
   fun:RegisterOGRPGeo
   fun:GDALAllRegister
   fun:_ZN11CSimulation27bCheckRasterGISOutputFormatEv
   fun:_ZN11CSimulation13nDoSimulationEiPPKc
   fun:main
}
{
   <insert_a_suppression_name_here>
   Memcheck:Leak
   match-leak-kinds: reachable
   fun:malloc
   fun:VSIStrdup
   fun:VSIStrdupVerbose
   fun:_ZN13CPLStringList9AddStringEPKc
   fun:_ZN23GDALMultiDomainMetadata15SetMetadataItemEPKcS1_S1_
   fun:RegisterOGRMSSQLSpatial
   fun:GDALAllRegister
   fun:_ZN11CSimulation27bCheckRasterGISOutputFormatEv
   fun:_ZN11CSimulation13nDoSimulationEiPPKc
   fun:main
}
{
   <insert_a_suppression_name_here>
   Memcheck:Leak
   match-leak-kinds: reachable
   fun:malloc
   fun:VSIStrdup
   fun:VSIStrdupVerbose
   fun:_ZN13CPLStringList9AddStringEPKc
   fun:_ZN23GDALMultiDomainMetadata15SetMetadataItemEPKcS1_S1_
   fun:RegisterOGROGDI
   fun:GDALAllRegister
   fun:_ZN11CSimulation27bCheckRasterGISOutputFormatEv
   fun:_ZN11CSimulation13nDoSimulationEiPPKc
   fun:main
}
{
   <insert_a_suppression_name_here>
   Memcheck:Leak
   match-leak-kinds: reachable
   fun:malloc
   fun:VSIStrdup
   fun:VSIStrdupVerbose
   fun:_ZN13CPLStringList9AddStringEPKc
   fun:_ZN23GDALMultiDomainMetadata15SetMetadataItemEPKcS1_S1_
   fun:RegisterOGRPG
   fun:GDALAllRegister
   fun:_ZN11CSimulation27bCheckRasterGISOutputFormatEv
   fun:_ZN11CSimulation13nDoSimulationEiPPKc
   fun:main
}
{
   <insert_a_suppression_name_here>
   Memcheck:Leak
   match-leak-kinds: reachable
   fun:malloc
   fun:VSIStrdup
   fun:VSIStrdupVerbose
   fun:_ZN13CPLStringList9AddStringEPKc
   fun:_ZN23GDALMultiDomainMetadata15SetMetadataItemEPKcS1_S1_
   fun:RegisterOGRMySQL
   fun:GDALAllRegister
   fun:_ZN11CSimulation27bCheckRasterGISOutputFormatEv
   fun:_ZN11CSimulation13nDoSimulationEiPPKc
   fun:main
}
{
   <insert_a_suppression_name_here>
   Memcheck:Leak
   match-leak-kinds: reachable
   fun:malloc
   fun:VSIStrdup
   fun:VSIStrdupVerbose
   fun:_ZN13CPLStringList9AddStringEPKc
   fun:_ZN23GDALMultiDomainMetadata15SetMetadataItemEPKcS1_S1_
   fun:RegisterOGROpenFileGDB
   fun:GDALAllRegister
   fun:_ZN11CSimulation27bCheckRasterGISOutputFormatEv
   fun:_ZN11CSimulation13nDoSimulationEiPPKc
   fun:main
}
{
   <insert_a_suppression_name_here>
   Memcheck:Leak
   match-leak-kinds: reachable
   fun:malloc
   fun:VSIStrdup
   fun:VSIStrdupVerbose
   fun:_ZN13CPLStringList9AddStringEPKc
   fun:_ZN23GDALMultiDomainMetadata15SetMetadataItemEPKcS1_S1_
   fun:RegisterOGRDXF
   fun:GDALAllRegister
   fun:_ZN11CSimulation27bCheckRasterGISOutputFormatEv
   fun:_ZN11CSimulation13nDoSimulationEiPPKc
   fun:main
}
{
   <insert_a_suppression_name_here>
   Memcheck:Leak
   match-leak-kinds: reachable
   fun:malloc
   fun:VSIStrdup
   fun:VSIStrdupVerbose
   fun:_ZN13CPLStringList9AddStringEPKc
   fun:_ZN23GDALMultiDomainMetadata15SetMetadataItemEPKcS1_S1_
   fun:RegisterOGRCAD
   fun:GDALAllRegister
   fun:_ZN11CSimulation27bCheckRasterGISOutputFormatEv
   fun:_ZN11CSimulation13nDoSimulationEiPPKc
   fun:main
}
{
   <insert_a_suppression_name_here>
   Memcheck:Leak
   match-leak-kinds: reachable
   fun:malloc
   fun:VSIStrdup
   fun:VSIStrdupVerbose
   fun:_ZN13CPLStringList9AddStringEPKc
   fun:_ZN23GDALMultiDomainMetadata15SetMetadataItemEPKcS1_S1_
   fun:RegisterOGRFlatGeobuf
   fun:GDALAllRegister
   fun:_ZN11CSimulation27bCheckRasterGISOutputFormatEv
   fun:_ZN11CSimulation13nDoSimulationEiPPKc
   fun:main
}
{
   <insert_a_suppression_name_here>
   Memcheck:Leak
   match-leak-kinds: reachable
   fun:malloc
   fun:VSIStrdup
   fun:VSIStrdupVerbose
   fun:_ZN13CPLStringList9AddStringEPKc
   fun:_ZN23GDALMultiDomainMetadata15SetMetadataItemEPKcS1_S1_
   fun:RegisterOGRGeoconcept
   fun:GDALAllRegister
   fun:_ZN11CSimulation27bCheckRasterGISOutputFormatEv
   fun:_ZN11CSimulation13nDoSimulationEiPPKc
   fun:main
}
{
   <insert_a_suppression_name_here>
   Memcheck:Leak
   match-leak-kinds: reachable
   fun:malloc
   fun:VSIStrdup
   fun:VSIStrdupVerbose
   fun:_ZN13CPLStringList9AddStringEPKc
   fun:_ZN23GDALMultiDomainMetadata15SetMetadataItemEPKcS1_S1_
   fun:RegisterOGRGeoRSS
   fun:GDALAllRegister
   fun:_ZN11CSimulation27bCheckRasterGISOutputFormatEv
   fun:_ZN11CSimulation13nDoSimulationEiPPKc
   fun:main
}
{
   <insert_a_suppression_name_here>
   Memcheck:Leak
   match-leak-kinds: reachable
   fun:malloc
   fun:VSIStrdup
   fun:VSIStrdupVerbose
   fun:_ZN13CPLStringList9AddStringEPKc
   fun:_ZN23GDALMultiDomainMetadata15SetMetadataItemEPKcS1_S1_
   fun:RegisterOGRVFK
   fun:GDALAllRegister
   fun:_ZN11CSimulation27bCheckRasterGISOutputFormatEv
   fun:_ZN11CSimulation13nDoSimulationEiPPKc
   fun:main
}
{
   <insert_a_suppression_name_here>
   Memcheck:Leak
   match-leak-kinds: reachable
   fun:malloc
   fun:VSIStrdup
   fun:VSIStrdupVerbose
   fun:_ZN13CPLStringList9AddStringEPKc
   fun:_ZN23GDALMultiDomainMetadata15SetMetadataItemEPKcS1_S1_
   fun:RegisterOGRPGDump
   fun:GDALAllRegister
   fun:_ZN11CSimulation27bCheckRasterGISOutputFormatEv
   fun:_ZN11CSimulation13nDoSimulationEiPPKc
   fun:main
}
{
   <insert_a_suppression_name_here>
   Memcheck:Leak
   match-leak-kinds: reachable
   fun:malloc
   fun:VSIStrdup
   fun:VSIStrdupVerbose
   fun:_ZN13CPLStringList9AddStringEPKc
   fun:_ZN23GDALMultiDomainMetadata15SetMetadataItemEPKcS1_S1_
   fun:RegisterOGROSM
   fun:GDALAllRegister
   fun:_ZN11CSimulation27bCheckRasterGISOutputFormatEv
   fun:_ZN11CSimulation13nDoSimulationEiPPKc
   fun:main
}
{
   <insert_a_suppression_name_here>
   Memcheck:Leak
   match-leak-kinds: reachable
   fun:malloc
   fun:VSIStrdup
   fun:VSIStrdupVerbose
   fun:_ZN13CPLStringList9AddStringEPKc
   fun:_ZN23GDALMultiDomainMetadata15SetMetadataItemEPKcS1_S1_
   fun:RegisterOGRGPSBabel
   fun:GDALAllRegister
   fun:_ZN11CSimulation27bCheckRasterGISOutputFormatEv
   fun:_ZN11CSimulation13nDoSimulationEiPPKc
   fun:main
}
{
   <insert_a_suppression_name_here>
   Memcheck:Leak
   match-leak-kinds: reachable
   fun:malloc
   fun:VSIStrdup
   fun:VSIStrdupVerbose
   fun:_ZN13CPLStringList9AddStringEPKc
   fun:_ZN23GDALMultiDomainMetadata15SetMetadataItemEPKcS1_S1_
   fun:RegisterOGRPDS
   fun:GDALAllRegister
   fun:_ZN11CSimulation27bCheckRasterGISOutputFormatEv
   fun:_ZN11CSimulation13nDoSimulationEiPPKc
   fun:main
}
{
   <insert_a_suppression_name_here>
   Memcheck:Leak
   match-leak-kinds: reachable
   fun:malloc
   fun:VSIStrdup
   fun:VSIStrdupVerbose
   fun:_ZN13CPLStringList9AddStringEPKc
   fun:_ZN23GDALMultiDomainMetadata15SetMetadataItemEPKcS1_S1_
   fun:RegisterOGRWFS
   fun:GDALAllRegister
   fun:_ZN11CSimulation27bCheckRasterGISOutputFormatEv
   fun:_ZN11CSimulation13nDoSimulationEiPPKc
   fun:main
}
{
   <insert_a_suppression_name_here>
   Memcheck:Leak
   match-leak-kinds: reachable
   fun:malloc
   fun:VSIStrdup
   fun:VSIStrdupVerbose
   fun:_ZN13CPLStringList9AddStringEPKc
   fun:_ZN23GDALMultiDomainMetadata15SetMetadataItemEPKcS1_S1_
   fun:RegisterOGROAPIF
   fun:GDALAllRegister
   fun:_ZN11CSimulation27bCheckRasterGISOutputFormatEv
   fun:_ZN11CSimulation13nDoSimulationEiPPKc
   fun:main
}
{
   <insert_a_suppression_name_here>
   Memcheck:Leak
   match-leak-kinds: reachable
   fun:malloc
   fun:VSIStrdup
   fun:VSIStrdupVerbose
   fun:_ZN13CPLStringList9AddStringEPKc
   fun:_ZN23GDALMultiDomainMetadata15SetMetadataItemEPKcS1_S1_
   fun:RegisterOGRSOSI
   fun:GDALAllRegister
   fun:_ZN11CSimulation27bCheckRasterGISOutputFormatEv
   fun:_ZN11CSimulation13nDoSimulationEiPPKc
   fun:main
}
{
   <insert_a_suppression_name_here>
   Memcheck:Leak
   match-leak-kinds: reachable
   fun:malloc
   fun:VSIStrdup
   fun:VSIStrdupVerbose
   fun:_ZN13CPLStringList9AddStringEPKc
   fun:_ZN23GDALMultiDomainMetadata15SetMetadataItemEPKcS1_S1_
   fun:RegisterOGREDIGEO
   fun:GDALAllRegister
   fun:_ZN11CSimulation27bCheckRasterGISOutputFormatEv
   fun:_ZN11CSimulation13nDoSimulationEiPPKc
   fun:main
}
{
   <insert_a_suppression_name_here>
   Memcheck:Leak
   match-leak-kinds: reachable
   fun:malloc
   fun:VSIStrdup
   fun:VSIStrdupVerbose
   fun:_ZN13CPLStringList9AddStringEPKc
   fun:_ZN23GDALMultiDomainMetadata15SetMetadataItemEPKcS1_S1_
   fun:RegisterOGRSVG
   fun:GDALAllRegister
   fun:_ZN11CSimulation27bCheckRasterGISOutputFormatEv
   fun:_ZN11CSimulation13nDoSimulationEiPPKc
   fun:main
}
{
   <insert_a_suppression_name_here>
   Memcheck:Leak
   match-leak-kinds: reachable
   fun:malloc
   fun:VSIStrdup
   fun:VSIStrdupVerbose
   fun:_ZN13CPLStringList9AddStringEPKc
   fun:_ZN23GDALMultiDomainMetadata15SetMetadataItemEPKcS1_S1_
   fun:RegisterOGRIdrisi
   fun:GDALAllRegister
   fun:_ZN11CSimulation27bCheckRasterGISOutputFormatEv
   fun:_ZN11CSimulation13nDoSimulationEiPPKc
   fun:main
}
{
   <insert_a_suppression_name_here>
   Memcheck:Leak
   match-leak-kinds: reachable
   fun:malloc
   fun:VSIStrdup
   fun:VSIStrdupVerbose
   fun:_ZN13CPLStringList9AddStringEPKc
   fun:_ZN23GDALMultiDomainMetadata15SetMetadataItemEPKcS1_S1_
   fun:RegisterOGRXLS
   fun:GDALAllRegister
   fun:_ZN11CSimulation27bCheckRasterGISOutputFormatEv
   fun:_ZN11CSimulation13nDoSimulationEiPPKc
   fun:main
}
{
   <insert_a_suppression_name_here>
   Memcheck:Leak
   match-leak-kinds: reachable
   fun:malloc
   fun:VSIStrdup
   fun:VSIStrdupVerbose
   fun:_ZN13CPLStringList9AddStringEPKc
   fun:_ZN23GDALMultiDomainMetadata15SetMetadataItemEPKcS1_S1_
   fun:RegisterOGRODS
   fun:GDALAllRegister
   fun:_ZN11CSimulation27bCheckRasterGISOutputFormatEv
   fun:_ZN11CSimulation13nDoSimulationEiPPKc
   fun:main
}
{
   <insert_a_suppression_name_here>
   Memcheck:Leak
   match-leak-kinds: reachable
   fun:malloc
   fun:VSIStrdup
   fun:VSIStrdupVerbose
   fun:_ZN13CPLStringList9AddStringEPKc
   fun:_ZN23GDALMultiDomainMetadata15SetMetadataItemEPKcS1_S1_
   fun:RegisterOGRXLSX
   fun:GDALAllRegister
   fun:_ZN11CSimulation27bCheckRasterGISOutputFormatEv
   fun:_ZN11CSimulation13nDoSimulationEiPPKc
   fun:main
}
{
   <insert_a_suppression_name_here>
   Memcheck:Leak
   match-leak-kinds: reachable
   fun:malloc
   fun:VSIStrdup
   fun:VSIStrdupVerbose
   fun:_ZN13CPLStringList9AddStringEPKc
   fun:_ZN23GDALMultiDomainMetadata15SetMetadataItemEPKcS1_S1_
   fun:RegisterOGRElastic
   fun:GDALAllRegister
   fun:_ZN11CSimulation27bCheckRasterGISOutputFormatEv
   fun:_ZN11CSimulation13nDoSimulationEiPPKc
   fun:main
}
{
   <insert_a_suppression_name_here>
   Memcheck:Leak
   match-leak-kinds: reachable
   fun:malloc
   fun:VSIStrdup
   fun:VSIStrdupVerbose
   fun:_ZN13CPLStringList9AddStringEPKc
   fun:_ZN23GDALMultiDomainMetadata15SetMetadataItemEPKcS1_S1_
   fun:RegisterOGRCarto
   fun:GDALAllRegister
   fun:_ZN11CSimulation27bCheckRasterGISOutputFormatEv
   fun:_ZN11CSimulation13nDoSimulationEiPPKc
   fun:main
}
{
   <insert_a_suppression_name_here>
   Memcheck:Leak
   match-leak-kinds: reachable
   fun:malloc
   fun:VSIStrdup
   fun:VSIStrdupVerbose
   fun:_ZN13CPLStringList9AddStringEPKc
   fun:_ZN23GDALMultiDomainMetadata15SetMetadataItemEPKcS1_S1_
   fun:RegisterOGRAmigoCloud
   fun:GDALAllRegister
   fun:_ZN11CSimulation27bCheckRasterGISOutputFormatEv
   fun:_ZN11CSimulation13nDoSimulationEiPPKc
   fun:main
}
{
   <insert_a_suppression_name_here>
   Memcheck:Leak
   match-leak-kinds: reachable
   fun:malloc
   fun:VSIStrdup
   fun:VSIStrdupVerbose
   fun:_ZN13CPLStringList9AddStringEPKc
   fun:_ZN23GDALMultiDomainMetadata15SetMetadataItemEPKcS1_S1_
   fun:RegisterOGRSXF
   fun:GDALAllRegister
   fun:_ZN11CSimulation27bCheckRasterGISOutputFormatEv
   fun:_ZN11CSimulation13nDoSimulationEiPPKc
   fun:main
}
{
   <insert_a_suppression_name_here>
   Memcheck:Leak
   match-leak-kinds: reachable
   fun:malloc
   fun:VSIStrdup
   fun:VSIStrdupVerbose
   fun:_ZN13CPLStringList9AddStringEPKc
   fun:_ZN23GDALMultiDomainMetadata15SetMetadataItemEPKcS1_S1_
   fun:RegisterOGRSelafin
   fun:GDALAllRegister
   fun:_ZN11CSimulation27bCheckRasterGISOutputFormatEv
   fun:_ZN11CSimulation13nDoSimulationEiPPKc
   fun:main
}
{
   <insert_a_suppression_name_here>
   Memcheck:Leak
   match-leak-kinds: reachable
   fun:malloc
   fun:VSIStrdup
   fun:VSIStrdupVerbose
   fun:_ZN13CPLStringList9AddStringEPKc
   fun:_ZN23GDALMultiDomainMetadata15SetMetadataItemEPKcS1_S1_
   fun:RegisterOGRJML
   fun:GDALAllRegister
   fun:_ZN11CSimulation27bCheckRasterGISOutputFormatEv
   fun:_ZN11CSimulation13nDoSimulationEiPPKc
   fun:main
}
{
   <insert_a_suppression_name_here>
   Memcheck:Leak
   match-leak-kinds: reachable
   fun:malloc
   fun:VSIStrdup
   fun:VSIStrdupVerbose
   fun:_ZN13CPLStringList9AddStringEPKc
   fun:_ZN23GDALMultiDomainMetadata15SetMetadataItemEPKcS1_S1_
   fun:RegisterOGRPLSCENES
   fun:GDALAllRegister
   fun:_ZN11CSimulation27bCheckRasterGISOutputFormatEv
   fun:_ZN11CSimulation13nDoSimulationEiPPKc
   fun:main
}
{
   <insert_a_suppression_name_here>
   Memcheck:Leak
   match-leak-kinds: reachable
   fun:malloc
   fun:VSIStrdup
   fun:VSIStrdupVerbose
   fun:_ZN13CPLStringList9AddStringEPKc
   fun:_ZN23GDALMultiDomainMetadata15SetMetadataItemEPKcS1_S1_
   fun:RegisterOGRCSW
   fun:GDALAllRegister
   fun:_ZN11CSimulation27bCheckRasterGISOutputFormatEv
   fun:_ZN11CSimulation13nDoSimulationEiPPKc
   fun:main
}
{
   <insert_a_suppression_name_here>
   Memcheck:Leak
   match-leak-kinds: reachable
   fun:malloc
   fun:VSIStrdup
   fun:VSIStrdupVerbose
   fun:_ZN13CPLStringList9AddStringEPKc
   fun:_ZN23GDALMultiDomainMetadata15SetMetadataItemEPKcS1_S1_
   fun:RegisterOGRVDV
   fun:GDALAllRegister
   fun:_ZN11CSimulation27bCheckRasterGISOutputFormatEv
   fun:_ZN11CSimulation13nDoSimulationEiPPKc
   fun:main
}
{
   <insert_a_suppression_name_here>
   Memcheck:Leak
   match-leak-kinds: reachable
   fun:malloc
   fun:VSIStrdup
   fun:VSIStrdupVerbose
   fun:_ZN13CPLStringList9AddStringEPKc
   fun:_ZN23GDALMultiDomainMetadata15SetMetadataItemEPKcS1_S1_
   obj:/usr/lib/x86_64-linux-gnu/libgdal.so.36.3.10.2
   fun:RegisterOGRGMLAS
   fun:GDALAllRegister
   fun:_ZN11CSimulation27bCheckRasterGISOutputFormatEv
   fun:_ZN11CSimulation13nDoSimulationEiPPKc
   fun:main
}
{
   <insert_a_suppression_name_here>
   Memcheck:Leak
   match-leak-kinds: reachable
   fun:malloc
   fun:VSIStrdup
   fun:VSIStrdupVerbose
   fun:_ZN13CPLStringList9AddStringEPKc
   fun:_ZN23GDALMultiDomainMetadata15SetMetadataItemEPKcS1_S1_
   fun:RegisterOGRMVT
   fun:GDALAllRegister
   fun:_ZN11CSimulation27bCheckRasterGISOutputFormatEv
   fun:_ZN11CSimulation13nDoSimulationEiPPKc
   fun:main
}
{
   <insert_a_suppression_name_here>
   Memcheck:Leak
   match-leak-kinds: reachable
   fun:malloc
   fun:VSIStrdup
   fun:VSIStrdupVerbose
   fun:_ZN13CPLStringList9AddStringEPKc
   fun:_ZN23GDALMultiDomainMetadata15SetMetadataItemEPKcS1_S1_
   fun:RegisterOGRNGW
   fun:GDALAllRegister
   fun:_ZN11CSimulation27bCheckRasterGISOutputFormatEv
   fun:_ZN11CSimulation13nDoSimulationEiPPKc
   fun:main
}
{
   <insert_a_suppression_name_here>
   Memcheck:Leak
   match-leak-kinds: reachable
   fun:malloc
   fun:VSIStrdup
   fun:VSIStrdupVerbose
   fun:_ZN13CPLStringList9AddStringEPKc
   fun:_ZN23GDALMultiDomainMetadata15SetMetadataItemEPKcS1_S1_
   fun:RegisterOGRMapML
   fun:GDALAllRegister
   fun:_ZN11CSimulation27bCheckRasterGISOutputFormatEv
   fun:_ZN11CSimulation13nDoSimulationEiPPKc
   fun:main
}
{
   <insert_a_suppression_name_here>
   Memcheck:Leak
   match-leak-kinds: reachable
   fun:malloc
   fun:VSIStrdup
   fun:VSIStrdupVerbose
   fun:_ZN13CPLStringList9AddStringEPKc
   fun:_ZN23GDALMultiDomainMetadata15SetMetadataItemEPKcS1_S1_
   fun:RegisterOGRGTFS
   fun:GDALAllRegister
   fun:_ZN11CSimulation27bCheckRasterGISOutputFormatEv
   fun:_ZN11CSimulation13nDoSimulationEiPPKc
   fun:main
}
{
   <insert_a_suppression_name_here>
   Memcheck:Leak
   match-leak-kinds: reachable
   fun:malloc
   fun:VSIStrdup
   fun:VSIStrdupVerbose
   fun:_ZN13CPLStringList9AddStringEPKc
   fun:_ZN23GDALMultiDomainMetadata15SetMetadataItemEPKcS1_S1_
   fun:RegisterOGRPMTiles
   fun:GDALAllRegister
   fun:_ZN11CSimulation27bCheckRasterGISOutputFormatEv
   fun:_ZN11CSimulation13nDoSimulationEiPPKc
   fun:main
}
{
   <insert_a_suppression_name_here>
   Memcheck:Leak
   match-leak-kinds: reachable
   fun:malloc
   fun:VSIStrdup
   fun:VSIStrdupVerbose
   fun:_ZN13CPLStringList9AddStringEPKc
   fun:_ZN23GDALMultiDomainMetadata15SetMetadataItemEPKcS1_S1_
   fun:RegisterOGRJSONFG
   fun:GDALAllRegister
   fun:_ZN11CSimulation27bCheckRasterGISOutputFormatEv
   fun:_ZN11CSimulation13nDoSimulationEiPPKc
   fun:main
}
{
   <insert_a_suppression_name_here>
   Memcheck:Leak
   match-leak-kinds: reachable
   fun:malloc
   fun:VSIStrdup
   fun:VSIStrdupVerbose
   fun:_ZN13CPLStringList9AddStringEPKc
   fun:_ZN23GDALMultiDomainMetadata15SetMetadataItemEPKcS1_S1_
   fun:RegisterOGRMiraMon
   fun:GDALAllRegister
   fun:_ZN11CSimulation27bCheckRasterGISOutputFormatEv
   fun:_ZN11CSimulation13nDoSimulationEiPPKc
   fun:main
}
{
   <insert_a_suppression_name_here>
   Memcheck:Leak
   match-leak-kinds: reachable
   fun:malloc
   fun:VSIStrdup
   fun:VSIStrdupVerbose
   fun:_ZN13CPLStringList9AddStringEPKc
   fun:_ZN23GDALMultiDomainMetadata15SetMetadataItemEPKcS1_S1_
   fun:RegisterOGRTiger
   fun:GDALAllRegister
   fun:_ZN11CSimulation27bCheckRasterGISOutputFormatEv
   fun:_ZN11CSimulation13nDoSimulationEiPPKc
   fun:main
}
{
   <insert_a_suppression_name_here>
   Memcheck:Leak
   match-leak-kinds: reachable
   fun:malloc
   fun:VSIStrdup
   fun:VSIStrdupVerbose
   fun:_ZN13CPLStringList9AddStringEPKc
   fun:_ZN23GDALMultiDomainMetadata15SetMetadataItemEPKcS1_S1_
   fun:RegisterOGRAVCBin
   fun:GDALAllRegister
   fun:_ZN11CSimulation27bCheckRasterGISOutputFormatEv
   fun:_ZN11CSimulation13nDoSimulationEiPPKc
   fun:main
}
{
   <insert_a_suppression_name_here>
   Memcheck:Leak
   match-leak-kinds: reachable
   fun:malloc
   fun:VSIStrdup
   fun:VSIStrdupVerbose
   fun:_ZN13CPLStringList9AddStringEPKc
   fun:_ZN23GDALMultiDomainMetadata15SetMetadataItemEPKcS1_S1_
   fun:RegisterOGRAVCE00
   fun:GDALAllRegister
   fun:_ZN11CSimulation27bCheckRasterGISOutputFormatEv
   fun:_ZN11CSimulation13nDoSimulationEiPPKc
   fun:main
}
{
   <insert_a_suppression_name_here>
   Memcheck:Leak
   match-leak-kinds: reachable
   fun:malloc
   fun:VSIStrdup
   fun:VSIStrdupVerbose
   fun:_ZN13CPLStringList9AddStringEPKc
   fun:_ZN23GDALMultiDomainMetadata15SetMetadataItemEPKcS1_S1_
   fun:GDALRegister_GenBin
   fun:GDALRegister_raw_with_sidecar
   fun:GDALAllRegister
   fun:_ZN11CSimulation27bCheckRasterGISOutputFormatEv
   fun:_ZN11CSimulation13nDoSimulationEiPPKc
   fun:main
}
{
   <insert_a_suppression_name_here>
   Memcheck:Leak
   match-leak-kinds: reachable
   fun:malloc
   fun:VSIStrdup
   fun:VSIStrdupVerbose
   fun:_ZN13CPLStringList9AddStringEPKc
   fun:_ZN23GDALMultiDomainMetadata15SetMetadataItemEPKcS1_S1_
   fun:GDALRegister_ENVI
   fun:GDALRegister_raw_with_sidecar
   fun:GDALAllRegister
   fun:_ZN11CSimulation27bCheckRasterGISOutputFormatEv
   fun:_ZN11CSimulation13nDoSimulationEiPPKc
   fun:main
}
{
   <insert_a_suppression_name_here>
   Memcheck:Leak
   match-leak-kinds: reachable
   fun:malloc
   fun:VSIStrdup
   fun:VSIStrdupVerbose
   fun:_ZN13CPLStringList9AddStringEPKc
   fun:_ZN23GDALMultiDomainMetadata15SetMetadataItemEPKcS1_S1_
   fun:GDALRegister_EHdr
   fun:GDALRegister_raw_with_sidecar
   fun:GDALAllRegister
   fun:_ZN11CSimulation27bCheckRasterGISOutputFormatEv
   fun:_ZN11CSimulation13nDoSimulationEiPPKc
   fun:main
}
{
   <insert_a_suppression_name_here>
   Memcheck:Leak
   match-leak-kinds: reachable
   fun:malloc
   fun:VSIStrdup
   fun:VSIStrdupVerbose
   fun:_ZN13CPLStringList9AddStringEPKc
   fun:_ZN23GDALMultiDomainMetadata15SetMetadataItemEPKcS1_S1_
   fun:GDALRegister_ISCE
   fun:GDALAllRegister
   fun:_ZN11CSimulation27bCheckRasterGISOutputFormatEv
   fun:_ZN11CSimulation13nDoSimulationEiPPKc
   fun:main
}
{
   <insert_a_suppression_name_here>
   Memcheck:Leak
   match-leak-kinds: reachable
   fun:malloc
   fun:VSIStrdup
   fun:VSIStrdupVerbose
   fun:_ZN13CPLStringList9AddStringEPKc
   fun:_ZN23GDALMultiDomainMetadata15SetMetadataItemEPKcS1_S1_
   fun:GDALRegister_Zarr
   fun:GDALAllRegister
   fun:_ZN11CSimulation27bCheckRasterGISOutputFormatEv
   fun:_ZN11CSimulation13nDoSimulationEiPPKc
   fun:main
}
{
   <insert_a_suppression_name_here>
   Memcheck:Leak
   match-leak-kinds: reachable
   fun:malloc
   fun:VSIStrdup
   fun:VSIStrdupVerbose
   fun:_ZN13CPLStringList9AddStringEPKc
   fun:_ZN23GDALMultiDomainMetadata15SetMetadataItemEPKcS1_S1_
   fun:GDALRegister_HTTP
   fun:GDALAllRegister
   fun:_ZN11CSimulation27bCheckRasterGISOutputFormatEv
   fun:_ZN11CSimulation13nDoSimulationEiPPKc
   fun:main
}
{
   <insert_a_suppression_name_here>
   Memcheck:Leak
   match-leak-kinds: possible
   fun:malloc
   fun:CPLMalloc
   fun:CPLStrdup
   fun:_ZN16OGRGeomFieldDefn10InitializeEPKc18OGRwkbGeometryType
   fun:_ZN16OGRGeomFieldDefnC1EPKc18OGRwkbGeometryType
   obj:/usr/lib/x86_64-linux-gnu/libgdal.so.36.3.10.2
   obj:/usr/lib/x86_64-linux-gnu/libgdal.so.36.3.10.2
   fun:_ZN11GDALDataset11CreateLayerEPKcPK16OGRGeomFieldDefnPKS1_
   fun:_ZN11GDALDataset11CreateLayerEPKcPK19OGRSpatialReference18OGRwkbGeometryTypePKS1_
   fun:_ZN11CSimulation19bWriteVectorGISFileEiPKNSt7__cxx1112basic_stringIcSt11char_traitsIcESaIcEEE
   fun:_ZN11CSimulation22bSaveAllVectorGISFilesEv
   fun:_ZN11CSimulation13nDoSimulationEiPPKc
}
{
   <insert_a_suppression_name_here>
   Memcheck:Leak
   match-leak-kinds: possible
   fun:malloc
   fun:CPLMalloc
   fun:CPLStrdup
   fun:_ZN12OGRFieldDefnC1EPKS_
   fun:_ZN14OGRFeatureDefn12AddFieldDefnEPK12OGRFieldDefn
   obj:/usr/lib/x86_64-linux-gnu/libgdal.so.36.3.10.2
   fun:_ZN11CSimulation19bWriteVectorGISFileEiPKNSt7__cxx1112basic_stringIcSt11char_traitsIcESaIcEEE
   fun:_ZN11CSimulation22bSaveAllVectorGISFilesEv
   fun:_ZN11CSimulation13nDoSimulationEiPPKc
   fun:main
}
{
   <insert_a_suppression_name_here>
   Memcheck:Leak
   match-leak-kinds: indirect
   fun:malloc
   fun:CPLMalloc
   fun:CPLStrdup
   fun:_ZN16OGRGeomFieldDefn10InitializeEPKc18OGRwkbGeometryType
   fun:_ZN16OGRGeomFieldDefnC1EPKc18OGRwkbGeometryType
   obj:/usr/lib/x86_64-linux-gnu/libgdal.so.36.3.10.2
   obj:/usr/lib/x86_64-linux-gnu/libgdal.so.36.3.10.2
   fun:_ZN11GDALDataset11CreateLayerEPKcPK16OGRGeomFieldDefnPKS1_
   fun:_ZN11GDALDataset11CreateLayerEPKcPK19OGRSpatialReference18OGRwkbGeometryTypePKS1_
   fun:_ZN11CSimulation19bWriteVectorGISFileEiPKNSt7__cxx1112basic_stringIcSt11char_traitsIcESaIcEEE
   fun:_ZN11CSimulation22bSaveAllVectorGISFilesEv
   fun:_ZN11CSimulation19nWriteEndRunDetailsEv
}
{
   <insert_a_suppression_name_here>
   Memcheck:Leak
   match-leak-kinds: indirect
   fun:malloc
   fun:CPLMalloc
   fun:CPLStrdup
   fun:_ZN12OGRFieldDefnC1EPKS_
   fun:_ZN14OGRFeatureDefn12AddFieldDefnEPK12OGRFieldDefn
   obj:/usr/lib/x86_64-linux-gnu/libgdal.so.36.3.10.2
   fun:_ZN11CSimulation19bWriteVectorGISFileEiPKNSt7__cxx1112basic_stringIcSt11char_traitsIcESaIcEEE
   fun:_ZN11CSimulation22bSaveAllVectorGISFilesEv
   fun:_ZN11CSimulation19nWriteEndRunDetailsEv
   fun:_ZN11CSimulation13nDoSimulationEiPPKc
   fun:main
}
{
   <insert_a_suppression_name_here>
   Memcheck:Leak
   match-leak-kinds: reachable
   fun:malloc
   fun:VSIStrdup
   fun:VSIStrdupVerbose
   fun:CSLAddStringMayFail
   fun:CPLPushFinderLocation
   fun:CPLPushFinderLocation
   fun:_ZN17GDALDriverManagerC1Ev
   fun:GetGDALDriverManager
   fun:GDALAllRegister
   fun:_ZN11CSimulation27bCheckRasterGISOutputFormatEv
   fun:_ZN11CSimulation13nDoSimulationEiPPKc
   fun:main
}
{
   <insert_a_suppression_name_here>
   Memcheck:Leak
   match-leak-kinds: indirect
   fun:malloc
   fun:VSIStrdup
   fun:VSIStrdupVerbose
   fun:CSLAddStringMayFail
   fun:CSLAddString
   fun:_ZN11CSimulation19bWriteRasterGISFileEiPKNSt7__cxx1112basic_stringIcSt11char_traitsIcESaIcEEEid
   fun:_ZN11CSimulation22bSaveAllRasterGISFilesEv
   fun:_ZN11CSimulation19nWriteEndRunDetailsEv
   fun:_ZN11CSimulation13nDoSimulationEiPPKc
   fun:main
}
{
   <insert_a_suppression_name_here>
   Memcheck:Leak
   match-leak-kinds: reachable
   fun:malloc
   obj:/usr/lib/x86_64-linux-gnu/libgomp.so.1.0.0
   obj:/usr/lib/x86_64-linux-gnu/libgomp.so.1.0.0
   obj:/usr/lib/x86_64-linux-gnu/libgomp.so.1.0.0
   fun:call_init.part.0
   fun:call_init
   fun:_dl_init
   obj:/usr/lib/x86_64-linux-gnu/ld-linux-x86-64.so.2
}
{
   <insert_a_suppression_name_here>
   Memcheck:Leak
   match-leak-kinds: reachable
   fun:_Znwm
   fun:VSIInstallLargeFileHandler
   fun:_ZN14VSIFileManager3GetEv
   fun:_ZN14VSIFileManager10GetHandlerEPKc
   fun:VSIGetDirectorySeparator
   fun:CPLFormFilename
   fun:CPLLoadConfigOptionsFromPredefinedFiles
   fun:_ZN17GDALDriverManagerC1Ev
   fun:GetGDALDriverManager
   fun:GDALAllRegister
   fun:_ZN11CSimulation27bCheckRasterGISOutputFormatEv
   fun:_ZN11CSimulation13nDoSimulationEiPPKc
}
{
   <insert_a_suppression_name_here>
   Memcheck:Leak
   match-leak-kinds: reachable
   fun:_Znwm
   fun:VSIInstallSubFileHandler
   fun:_ZN14VSIFileManager3GetEv
   fun:_ZN14VSIFileManager10GetHandlerEPKc
   fun:VSIGetDirectorySeparator
   fun:CPLFormFilename
   fun:CPLLoadConfigOptionsFromPredefinedFiles
   fun:_ZN17GDALDriverManagerC1Ev
   fun:GetGDALDriverManager
   fun:GDALAllRegister
   fun:_ZN11CSimulation27bCheckRasterGISOutputFormatEv
   fun:_ZN11CSimulation13nDoSimulationEiPPKc
}
{
   <insert_a_suppression_name_here>
   Memcheck:Leak
   match-leak-kinds: reachable
   fun:_Znwm
   fun:_ZN14VSIFileManager3GetEv
   fun:_ZN14VSIFileManager10GetHandlerEPKc
   fun:VSIGetDirectorySeparator
   fun:CPLFormFilename
   fun:CPLLoadConfigOptionsFromPredefinedFiles
   fun:_ZN17GDALDriverManagerC1Ev
   fun:GetGDALDriverManager
   fun:GDALAllRegister
   fun:_ZN11CSimulation27bCheckRasterGISOutputFormatEv
   fun:_ZN11CSimulation13nDoSimulationEiPPKc
   fun:main
}
{
   <insert_a_suppression_name_here>
   Memcheck:Leak
   match-leak-kinds: reachable
   fun:_Znwm
   fun:VSIInstallCryptFileHandler
   fun:_ZN14VSIFileManager3GetEv
   fun:_ZN14VSIFileManager10GetHandlerEPKc
   fun:VSIGetDirectorySeparator
   fun:CPLFormFilename
   fun:CPLLoadConfigOptionsFromPredefinedFiles
   fun:_ZN17GDALDriverManagerC1Ev
   fun:GetGDALDriverManager
   fun:GDALAllRegister
   fun:_ZN11CSimulation27bCheckRasterGISOutputFormatEv
   fun:_ZN11CSimulation13nDoSimulationEiPPKc
}
{
   <insert_a_suppression_name_here>
   Memcheck:Leak
   match-leak-kinds: reachable
   fun:malloc
   fun:CPLRealloc
   fun:CPLPushFileFinder
   fun:CPLPushFinderLocation
   fun:_ZN17GDALDriverManagerC1Ev
   fun:GetGDALDriverManager
   fun:GDALAllRegister
   fun:_ZN11CSimulation27bCheckRasterGISOutputFormatEv
   fun:_ZN11CSimulation13nDoSimulationEiPPKc
   fun:main
}
{
   <insert_a_suppression_name_here>
   Memcheck:Leak
   match-leak-kinds: reachable
   fun:_Znwm
   fun:RegisterOGRPMTiles
   fun:GDALAllRegister
   fun:_ZN11CSimulation27bCheckRasterGISOutputFormatEv
   fun:_ZN11CSimulation13nDoSimulationEiPPKc
   fun:main
}
{
   <insert_a_suppression_name_here>
   Memcheck:Leak
   match-leak-kinds: reachable
   fun:calloc
   fun:VSICallocVerbose
   fun:_ZN10OGRFeatureC1EP14OGRFeatureDefn
   fun:_ZN10OGRFeature13CreateFeatureEP14OGRFeatureDefn
   fun:_ZN11CSimulation19bWriteVectorGISFileEiPKNSt7__cxx1112basic_stringIcSt11char_traitsIcESaIcEEE
   fun:_ZN11CSimulation22bSaveAllVectorGISFilesEv
   fun:_ZN11CSimulation19nWriteEndRunDetailsEv
   fun:_ZN11CSimulation13nDoSimulationEiPPKc
   fun:main
}
{
   <insert_a_suppression_name_here>
   Memcheck:Leak
   match-leak-kinds: possible
   fun:_Znwm
   obj:/usr/lib/x86_64-linux-gnu/libgdal.so.36.3.10.2
   fun:_ZN14OGRFeatureDefnC1EPKc
   obj:/usr/lib/x86_64-linux-gnu/libgdal.so.36.3.10.2
   obj:/usr/lib/x86_64-linux-gnu/libgdal.so.36.3.10.2
   fun:_ZN11GDALDataset11CreateLayerEPKcPK16OGRGeomFieldDefnPKS1_
   fun:_ZN11GDALDataset11CreateLayerEPKcPK19OGRSpatialReference18OGRwkbGeometryTypePKS1_
   fun:_ZN11CSimulation19bWriteVectorGISFileEiPKNSt7__cxx1112basic_stringIcSt11char_traitsIcESaIcEEE
   fun:_ZN11CSimulation22bSaveAllVectorGISFilesEv
   fun:_ZN11CSimulation13nDoSimulationEiPPKc
   fun:main
}
{
   <insert_a_suppression_name_here>
   Memcheck:Leak
   match-leak-kinds: possible
   fun:calloc
   fun:VSICallocVerbose
   fun:_ZN10OGRFeatureC1EP14OGRFeatureDefn
   fun:_ZN10OGRFeature13CreateFeatureEP14OGRFeatureDefn
   fun:_ZN11CSimulation19bWriteVectorGISFileEiPKNSt7__cxx1112basic_stringIcSt11char_traitsIcESaIcEEE
   fun:_ZN11CSimulation22bSaveAllVectorGISFilesEv
   fun:_ZN11CSimulation13nDoSimulationEiPPKc
   fun:main
}
{
   <insert_a_suppression_name_here>
   Memcheck:Leak
   match-leak-kinds: indirect
   fun:malloc
   fun:VSIStrdup
   fun:VSIStrdupVerbose
   fun:CSLAddStringMayFail
   fun:CSLAddString
   fun:CSLAddNameValue
   fun:_ZN11CSimulation29SetRasterFileCreationDefaultsEv
   fun:_ZN11CSimulation27bCheckRasterGISOutputFormatEv
   fun:_ZN11CSimulation13nDoSimulationEiPPKc
   fun:main
}
{
   <insert_a_suppression_name_here>
   Memcheck:Leak
   match-leak-kinds: indirect
   fun:_Znwm
   obj:/usr/lib/x86_64-linux-gnu/libgdal.so.36.3.10.2
   fun:_ZN14OGRFeatureDefnC1EPKc
   obj:/usr/lib/x86_64-linux-gnu/libgdal.so.36.3.10.2
   obj:/usr/lib/x86_64-linux-gnu/libgdal.so.36.3.10.2
   fun:_ZN11GDALDataset11CreateLayerEPKcPK16OGRGeomFieldDefnPKS1_
   fun:_ZN11GDALDataset11CreateLayerEPKcPK19OGRSpatialReference18OGRwkbGeometryTypePKS1_
   fun:_ZN11CSimulation19bWriteVectorGISFileEiPKNSt7__cxx1112basic_stringIcSt11char_traitsIcESaIcEEE
   fun:_ZN11CSimulation22bSaveAllVectorGISFilesEv
   fun:_ZN11CSimulation19nWriteEndRunDetailsEv
   fun:_ZN11CSimulation13nDoSimulationEiPPKc
   fun:main
}
{
   <insert_a_suppression_name_here>
   Memcheck:Leak
   match-leak-kinds: indirect
   fun:_Znwm
   fun:_ZN14OGRFeatureDefn12AddFieldDefnEPK12OGRFieldDefn
   obj:/usr/lib/x86_64-linux-gnu/libgdal.so.36.3.10.2
   fun:_ZN11CSimulation19bWriteVectorGISFileEiPKNSt7__cxx1112basic_stringIcSt11char_traitsIcESaIcEEE
   fun:_ZN11CSimulation22bSaveAllVectorGISFilesEv
   fun:_ZN11CSimulation19nWriteEndRunDetailsEv
   fun:_ZN11CSimulation13nDoSimulationEiPPKc
   fun:main
}
{
   <insert_a_suppression_name_here>
   Memcheck:Leak
   match-leak-kinds: indirect
   fun:malloc
   fun:CPLMalloc
   fun:CPLStrdup
   fun:_ZN16OGRGeomFieldDefn10InitializeEPKc18OGRwkbGeometryType
   fun:_ZN16OGRGeomFieldDefnC1EPKc18OGRwkbGeometryType
   obj:/usr/lib/x86_64-linux-gnu/libgdal.so.36.3.10.2
   obj:/usr/lib/x86_64-linux-gnu/libgdal.so.36.3.10.2
   fun:_ZN11GDALDataset11CreateLayerEPKcPK16OGRGeomFieldDefnPKS1_
   fun:_ZN11GDALDataset11CreateLayerEPKcPK19OGRSpatialReference18OGRwkbGeometryTypePKS1_
   fun:_ZN11CSimulation19bWriteVectorGISFileEiPKNSt7__cxx1112basic_stringIcSt11char_traitsIcESaIcEEE
   fun:_ZN11CSimulation22bSaveAllVectorGISFilesEv
   fun:_ZN11CSimulation13nDoSimulationEiPPKc
}
{
   <insert_a_suppression_name_here>
   Memcheck:Leak
   match-leak-kinds: indirect
   fun:malloc
   fun:CPLMalloc
   fun:CPLStrdup
   fun:_ZN12OGRFieldDefnC1EPKS_
   fun:_ZN14OGRFeatureDefn12AddFieldDefnEPK12OGRFieldDefn
   obj:/usr/lib/x86_64-linux-gnu/libgdal.so.36.3.10.2
   fun:_ZN11CSimulation19bWriteVectorGISFileEiPKNSt7__cxx1112basic_stringIcSt11char_traitsIcESaIcEEE
   fun:_ZN11CSimulation22bSaveAllVectorGISFilesEv
   fun:_ZN11CSimulation13nDoSimulationEiPPKc
   fun:main
}
{
   <insert_a_suppression_name_here>
   Memcheck:Leak
   match-leak-kinds: possible
   fun:_Znwm
   fun:_ZN19OGRSpatialReference7PrivateC1EPS_
   fun:_ZN19OGRSpatialReferenceC1EPKc
   fun:_ZNK19OGRSpatialReference5CloneEv
   obj:/usr/lib/x86_64-linux-gnu/libgdal.so.36.3.10.2
   obj:/usr/lib/x86_64-linux-gnu/libgdal.so.36.3.10.2
   fun:_ZN11GDALDataset11CreateLayerEPKcPK16OGRGeomFieldDefnPKS1_
   fun:_ZN11GDALDataset11CreateLayerEPKcPK19OGRSpatialReference18OGRwkbGeometryTypePKS1_
   fun:_ZN11CSimulation19bWriteVectorGISFileEiPKNSt7__cxx1112basic_stringIcSt11char_traitsIcESaIcEEE
   fun:_ZN11CSimulation22bSaveAllVectorGISFilesEv
   fun:_ZN11CSimulation13nDoSimulationEiPPKc
   fun:main
}
{
   <insert_a_suppression_name_here>
   Memcheck:Leak
   match-leak-kinds: indirect
   fun:_Znwm
   fun:_ZN19OGRSpatialReference7PrivateC1EPS_
   fun:_ZN19OGRSpatialReferenceC1EPKc
   fun:_ZNK19OGRSpatialReference5CloneEv
   obj:/usr/lib/x86_64-linux-gnu/libgdal.so.36.3.10.2
   obj:/usr/lib/x86_64-linux-gnu/libgdal.so.36.3.10.2
   fun:_ZN11GDALDataset11CreateLayerEPKcPK16OGRGeomFieldDefnPKS1_
   fun:_ZN11GDALDataset11CreateLayerEPKcPK19OGRSpatialReference18OGRwkbGeometryTypePKS1_
   fun:_ZN11CSimulation19bWriteVectorGISFileEiPKNSt7__cxx1112basic_stringIcSt11char_traitsIcESaIcEEE
   fun:_ZN11CSimulation22bSaveAllVectorGISFilesEv
   fun:_ZN11CSimulation19nWriteEndRunDetailsEv
   fun:_ZN11CSimulation13nDoSimulationEiPPKc
}
{
   <insert_a_suppression_name_here>
   Memcheck:Leak
   match-leak-kinds: reachable
   fun:malloc
   fun:VSIMallocVerbose
   fun:_ZN13CPLStringList12AddNameValueEPKcS1_
   fun:_ZN23GDALMultiDomainMetadata15SetMetadataItemEPKcS1_S1_
   fun:GDALRegister_GRIB
   fun:GDALAllRegister
   fun:_ZN11CSimulation27bCheckRasterGISOutputFormatEv
   fun:_ZN11CSimulation13nDoSimulationEiPPKc
   fun:main
}
{
   <insert_a_suppression_name_here>
   Memcheck:Leak
   match-leak-kinds: reachable
   fun:malloc
   fun:VSIMallocVerbose
   fun:_ZN13CPLStringList12AddNameValueEPKcS1_
   fun:_ZN23GDALMultiDomainMetadata15SetMetadataItemEPKcS1_S1_
   fun:RegisterGNMFile
   fun:GDALAllRegister
   fun:_ZN11CSimulation27bCheckRasterGISOutputFormatEv
   fun:_ZN11CSimulation13nDoSimulationEiPPKc
   fun:main
}
{
   <insert_a_suppression_name_here>
   Memcheck:Leak
   match-leak-kinds: reachable
   fun:malloc
   fun:VSIMallocVerbose
   fun:_ZN13CPLStringList12AddNameValueEPKcS1_
   fun:_ZN23GDALMultiDomainMetadata15SetMetadataItemEPKcS1_S1_
   fun:RegisterGNMDatabase
   fun:GDALAllRegister
   fun:_ZN11CSimulation27bCheckRasterGISOutputFormatEv
   fun:_ZN11CSimulation13nDoSimulationEiPPKc
   fun:main
}
{
   <insert_a_suppression_name_here>
   Memcheck:Leak
   match-leak-kinds: reachable
   fun:malloc
   fun:VSIMallocVerbose
   fun:_ZN13CPLStringList12AddNameValueEPKcS1_
   fun:_ZN23GDALMultiDomainMetadata15SetMetadataItemEPKcS1_S1_
   fun:_ZN17GDALDriverManager14RegisterDriverEP10GDALDriverb
   fun:GDALAllRegister
   fun:_ZN11CSimulation27bCheckRasterGISOutputFormatEv
   fun:_ZN11CSimulation13nDoSimulationEiPPKc
   fun:main
}
{
   <insert_a_suppression_name_here>
   Memcheck:Leak
   match-leak-kinds: reachable
   fun:malloc
   fun:VSIMallocVerbose
   fun:_ZN13CPLStringList12AddNameValueEPKcS1_
   fun:_ZN23GDALMultiDomainMetadata15SetMetadataItemEPKcS1_S1_
   fun:_ZN17GDALDriverManager14RegisterDriverEP10GDALDriverb
   fun:GDALRegister_GTI
   fun:GDALAllRegister
   fun:_ZN11CSimulation27bCheckRasterGISOutputFormatEv
   fun:_ZN11CSimulation13nDoSimulationEiPPKc
   fun:main
}
{
   <insert_a_suppression_name_here>
   Memcheck:Leak
   match-leak-kinds: reachable
   fun:malloc
   fun:VSIMallocVerbose
   fun:_ZN13CPLStringList12AddNameValueEPKcS1_
   fun:_ZN23GDALMultiDomainMetadata15SetMetadataItemEPKcS1_S1_
   fun:_ZN17GDALDriverManager14RegisterDriverEP10GDALDriverb
   fun:GDALRegister_GTiff
   fun:GDALAllRegister
   fun:_ZN11CSimulation27bCheckRasterGISOutputFormatEv
   fun:_ZN11CSimulation13nDoSimulationEiPPKc
   fun:main
}
{
   <insert_a_suppression_name_here>
   Memcheck:Leak
   match-leak-kinds: reachable
   fun:malloc
   fun:VSIMallocVerbose
   fun:_ZN13CPLStringList12SetNameValueEPKcS1_
   fun:_ZN23GDALMultiDomainMetadata15SetMetadataItemEPKcS1_S1_
   fun:_ZN17GDALDriverManager14RegisterDriverEP10GDALDriverb
   fun:GDALAllRegister
   fun:_ZN11CSimulation27bCheckRasterGISOutputFormatEv
   fun:_ZN11CSimulation13nDoSimulationEiPPKc
   fun:main
}
{
   <insert_a_suppression_name_here>
   Memcheck:Leak
   match-leak-kinds: reachable
   fun:malloc
   fun:VSIMallocVerbose
   fun:_ZN13CPLStringList12SetNameValueEPKcS1_
   fun:_ZN23GDALMultiDomainMetadata15SetMetadataItemEPKcS1_S1_
   fun:_ZN17GDALDriverManager14RegisterDriverEP10GDALDriverb
   fun:GDALRegister_HDF4
   fun:GDALAllRegister
   fun:_ZN11CSimulation27bCheckRasterGISOutputFormatEv
   fun:_ZN11CSimulation13nDoSimulationEiPPKc
   fun:main
}
{
   <insert_a_suppression_name_here>
   Memcheck:Leak
   match-leak-kinds: reachable
   fun:malloc
   fun:VSIMallocVerbose
   fun:_ZN13CPLStringList12AddNameValueEPKcS1_
   fun:_ZN23GDALMultiDomainMetadata15SetMetadataItemEPKcS1_S1_
   fun:_ZN17GDALDriverManager14RegisterDriverEP10GDALDriverb
   fun:GDALRegister_raw_no_sidecar
   fun:GDALAllRegister
   fun:_ZN11CSimulation27bCheckRasterGISOutputFormatEv
   fun:_ZN11CSimulation13nDoSimulationEiPPKc
   fun:main
}
{
   <insert_a_suppression_name_here>
   Memcheck:Leak
   match-leak-kinds: reachable
   fun:malloc
   fun:VSIMallocVerbose
   fun:_ZN13CPLStringList12AddNameValueEPKcS1_
   fun:_ZN23GDALMultiDomainMetadata15SetMetadataItemEPKcS1_S1_
   fun:_ZN17GDALDriverManager14RegisterDriverEP10GDALDriverb
   fun:GDALRegister_ZMap
   fun:GDALAllRegister
   fun:_ZN11CSimulation27bCheckRasterGISOutputFormatEv
   fun:_ZN11CSimulation13nDoSimulationEiPPKc
   fun:main
}
{
   <insert_a_suppression_name_here>
   Memcheck:Leak
   match-leak-kinds: reachable
   fun:malloc
   fun:VSIMallocVerbose
   fun:_ZN13CPLStringList12SetNameValueEPKcS1_
   fun:_ZN23GDALMultiDomainMetadata15SetMetadataItemEPKcS1_S1_
   fun:_ZN17GDALDriverManager14RegisterDriverEP10GDALDriverb
   fun:GDALRegister_AVIF
   fun:GDALAllRegister
   fun:_ZN11CSimulation27bCheckRasterGISOutputFormatEv
   fun:_ZN11CSimulation13nDoSimulationEiPPKc
   fun:main
}
{
   <insert_a_suppression_name_here>
   Memcheck:Leak
   match-leak-kinds: reachable
   fun:malloc
   fun:VSIMallocVerbose
   fun:_ZN13CPLStringList12SetNameValueEPKcS1_
   fun:_ZN23GDALMultiDomainMetadata15SetMetadataItemEPKcS1_S1_
   fun:_ZN17GDALDriverManager14RegisterDriverEP10GDALDriverb
   fun:GDALRegister_HEIF
   fun:GDALAllRegister
   fun:_ZN11CSimulation27bCheckRasterGISOutputFormatEv
   fun:_ZN11CSimulation13nDoSimulationEiPPKc
   fun:main
}
{
   <insert_a_suppression_name_here>
   Memcheck:Leak
   match-leak-kinds: reachable
   fun:malloc
   fun:VSIMallocVerbose
   fun:_ZN13CPLStringList12AddNameValueEPKcS1_
   fun:_ZN23GDALMultiDomainMetadata15SetMetadataItemEPKcS1_S1_
   fun:_ZN17GDALDriverManager14RegisterDriverEP10GDALDriverb
   fun:RegisterOGRLVBAG
   fun:GDALAllRegister
   fun:_ZN11CSimulation27bCheckRasterGISOutputFormatEv
   fun:_ZN11CSimulation13nDoSimulationEiPPKc
   fun:main
}
{
   <insert_a_suppression_name_here>
   Memcheck:Leak
   match-leak-kinds: reachable
   fun:malloc
   fun:VSIMallocVerbose
   fun:_ZN13CPLStringList12AddNameValueEPKcS1_
   fun:_ZN23GDALMultiDomainMetadata15SetMetadataItemEPKcS1_S1_
   fun:_ZN17GDALDriverManager14RegisterDriverEP10GDALDriverb
   fun:RegisterOGRSQLite
   fun:GDALAllRegister
   fun:_ZN11CSimulation27bCheckRasterGISOutputFormatEv
   fun:_ZN11CSimulation13nDoSimulationEiPPKc
   fun:main
}
{
   <insert_a_suppression_name_here>
   Memcheck:Leak
   match-leak-kinds: reachable
   fun:malloc
   fun:VSIMallocVerbose
   fun:_ZN13CPLStringList12AddNameValueEPKcS1_
   fun:_ZN23GDALMultiDomainMetadata15SetMetadataItemEPKcS1_S1_
   fun:_ZN17GDALDriverManager14RegisterDriverEP10GDALDriverb
   fun:GDALRegister_raw_with_sidecar
   fun:GDALAllRegister
   fun:_ZN11CSimulation27bCheckRasterGISOutputFormatEv
   fun:_ZN11CSimulation13nDoSimulationEiPPKc
   fun:main
}
{
   <insert_a_suppression_name_here>
   Memcheck:Leak
   match-leak-kinds: reachable
   fun:malloc
   fun:VSIMallocVerbose
   fun:_ZN13CPLStringList12AddNameValueEPKcS1_
   fun:_ZN23GDALMultiDomainMetadata15SetMetadataItemEPKcS1_S1_
   fun:GDALRegister_FIT
   fun:GDALAllRegister
   fun:_ZN11CSimulation27bCheckRasterGISOutputFormatEv
   fun:_ZN11CSimulation13nDoSimulationEiPPKc
   fun:main
}
{
   <insert_a_suppression_name_here>
   Memcheck:Leak
   match-leak-kinds: reachable
   fun:malloc
   fun:VSIMallocVerbose
   fun:_ZN13CPLStringList12AddNameValueEPKcS1_
   fun:_ZN23GDALMultiDomainMetadata15SetMetadataItemEPKcS1_S1_
   fun:GDALRegister_ENVI
   fun:GDALRegister_raw_with_sidecar
   fun:GDALAllRegister
   fun:_ZN11CSimulation27bCheckRasterGISOutputFormatEv
   fun:_ZN11CSimulation13nDoSimulationEiPPKc
   fun:main
}
{
   <insert_a_suppression_name_here>
   Memcheck:Leak
   match-leak-kinds: reachable
   fun:malloc
   fun:VSIStrdup
   fun:VSIStrdupVerbose
   fun:CSLAddStringMayFail
   fun:CSLAddString
   fun:CSLAddNameValue
   fun:CPLSetConfigOption
   fun:_ZN11CSimulation25InitializeGDALPerformanceEv
   fun:_ZN11CSimulation22nReadRasterBasementDEMEv
   fun:_ZN11CSimulation13nDoSimulationEiPPKc
   fun:main
}
{
   <insert_a_suppression_name_here>
   Memcheck:Leak
   match-leak-kinds: reachable
   fun:malloc
   fun:VSIMallocVerbose
   fun:_ZN13CPLStringList12AddNameValueEPKcS1_
   fun:_ZN23GDALMultiDomainMetadata15SetMetadataItemEPKcS1_S1_
   fun:GDALRegister_VRT
   fun:GDALAllRegister
   fun:_ZN11CSimulation27bCheckRasterGISOutputFormatEv
   fun:_ZN11CSimulation13nDoSimulationEiPPKc
   fun:main
}
{
   <insert_a_suppression_name_here>
   Memcheck:Leak
   match-leak-kinds: reachable
   fun:malloc
   fun:VSIMallocVerbose
   fun:_ZN13CPLStringList12AddNameValueEPKcS1_
   fun:_ZN23GDALMultiDomainMetadata15SetMetadataItemEPKcS1_S1_
   fun:GDALRegister_Derived
   fun:GDALAllRegister
   fun:_ZN11CSimulation27bCheckRasterGISOutputFormatEv
   fun:_ZN11CSimulation13nDoSimulationEiPPKc
   fun:main
}
{
   <insert_a_suppression_name_here>
   Memcheck:Leak
   match-leak-kinds: reachable
   fun:malloc
   fun:VSIMallocVerbose
   fun:_ZN13CPLStringList12AddNameValueEPKcS1_
   fun:_ZN23GDALMultiDomainMetadata15SetMetadataItemEPKcS1_S1_
   fun:GDALRegister_GTI
   fun:GDALAllRegister
   fun:_ZN11CSimulation27bCheckRasterGISOutputFormatEv
   fun:_ZN11CSimulation13nDoSimulationEiPPKc
   fun:main
}
{
   <insert_a_suppression_name_here>
   Memcheck:Leak
   match-leak-kinds: reachable
   fun:malloc
   fun:VSIMallocVerbose
   fun:_ZN13CPLStringList12AddNameValueEPKcS1_
   fun:_ZN23GDALMultiDomainMetadata15SetMetadataItemEPKcS1_S1_
   fun:GDALRegister_SNAP_TIFF
   fun:GDALAllRegister
   fun:_ZN11CSimulation27bCheckRasterGISOutputFormatEv
   fun:_ZN11CSimulation13nDoSimulationEiPPKc
   fun:main
}
{
   <insert_a_suppression_name_here>
   Memcheck:Leak
   match-leak-kinds: reachable
   fun:malloc
   fun:VSIMallocVerbose
   fun:_ZN13CPLStringList12AddNameValueEPKcS1_
   fun:_ZN23GDALMultiDomainMetadata15SetMetadataItemEPKcS1_S1_
   fun:GDALRegister_GTiff
   fun:GDALAllRegister
   fun:_ZN11CSimulation27bCheckRasterGISOutputFormatEv
   fun:_ZN11CSimulation13nDoSimulationEiPPKc
   fun:main
}
{
   <insert_a_suppression_name_here>
   Memcheck:Leak
   match-leak-kinds: reachable
   fun:malloc
   fun:VSIMallocVerbose
   fun:_ZN13CPLStringList12AddNameValueEPKcS1_
   fun:_ZN23GDALMultiDomainMetadata15SetMetadataItemEPKcS1_S1_
   fun:GDALRegister_COG
   fun:GDALAllRegister
   fun:_ZN11CSimulation27bCheckRasterGISOutputFormatEv
   fun:_ZN11CSimulation13nDoSimulationEiPPKc
   fun:main
}
{
   <insert_a_suppression_name_here>
   Memcheck:Leak
   match-leak-kinds: reachable
   fun:malloc
   fun:VSIMallocVerbose
   fun:_ZN13CPLStringList12AddNameValueEPKcS1_
   fun:_ZN23GDALMultiDomainMetadata15SetMetadataItemEPKcS1_S1_
   fun:GDALRegister_NITF
   fun:GDALAllRegister
   fun:_ZN11CSimulation27bCheckRasterGISOutputFormatEv
   fun:_ZN11CSimulation13nDoSimulationEiPPKc
   fun:main
}
{
   <insert_a_suppression_name_here>
   Memcheck:Leak
   match-leak-kinds: reachable
   fun:malloc
   fun:VSIMallocVerbose
   fun:_ZN13CPLStringList12AddNameValueEPKcS1_
   fun:_ZN23GDALMultiDomainMetadata15SetMetadataItemEPKcS1_S1_
   fun:GDALRegister_RPFTOC
   fun:GDALAllRegister
   fun:_ZN11CSimulation27bCheckRasterGISOutputFormatEv
   fun:_ZN11CSimulation13nDoSimulationEiPPKc
   fun:main
}
{
   <insert_a_suppression_name_here>
   Memcheck:Leak
   match-leak-kinds: reachable
   fun:malloc
   fun:VSIMallocVerbose
   fun:_ZN13CPLStringList12AddNameValueEPKcS1_
   fun:_ZN23GDALMultiDomainMetadata15SetMetadataItemEPKcS1_S1_
   fun:GDALRegister_ECRGTOC
   fun:GDALAllRegister
   fun:_ZN11CSimulation27bCheckRasterGISOutputFormatEv
   fun:_ZN11CSimulation13nDoSimulationEiPPKc
   fun:main
}
{
   <insert_a_suppression_name_here>
   Memcheck:Leak
   match-leak-kinds: reachable
   fun:malloc
   fun:VSIMallocVerbose
   fun:_ZN13CPLStringList12AddNameValueEPKcS1_
   fun:_ZN23GDALMultiDomainMetadata15SetMetadataItemEPKcS1_S1_
   fun:GDALRegister_HFA
   fun:GDALAllRegister
   fun:_ZN11CSimulation27bCheckRasterGISOutputFormatEv
   fun:_ZN11CSimulation13nDoSimulationEiPPKc
   fun:main
}
{
   <insert_a_suppression_name_here>
   Memcheck:Leak
   match-leak-kinds: reachable
   fun:malloc
   fun:VSIMallocVerbose
   fun:_ZN13CPLStringList12AddNameValueEPKcS1_
   fun:_ZN23GDALMultiDomainMetadata15SetMetadataItemEPKcS1_S1_
   fun:GDALRegister_SAR_CEOS
   fun:GDALAllRegister
   fun:_ZN11CSimulation27bCheckRasterGISOutputFormatEv
   fun:_ZN11CSimulation13nDoSimulationEiPPKc
   fun:main
}
{
   <insert_a_suppression_name_here>
   Memcheck:Leak
   match-leak-kinds: reachable
   fun:malloc
   fun:VSIMallocVerbose
   fun:_ZN13CPLStringList12AddNameValueEPKcS1_
   fun:_ZN23GDALMultiDomainMetadata15SetMetadataItemEPKcS1_S1_
   fun:GDALRegister_CEOS
   fun:GDALAllRegister
   fun:_ZN11CSimulation27bCheckRasterGISOutputFormatEv
   fun:_ZN11CSimulation13nDoSimulationEiPPKc
   fun:main
}
{
   <insert_a_suppression_name_here>
   Memcheck:Leak
   match-leak-kinds: reachable
   fun:malloc
   fun:VSIMallocVerbose
   fun:_ZN13CPLStringList12AddNameValueEPKcS1_
   fun:_ZN23GDALMultiDomainMetadata15SetMetadataItemEPKcS1_S1_
   fun:GDALRegister_PALSARJaxa
   fun:GDALAllRegister
   fun:_ZN11CSimulation27bCheckRasterGISOutputFormatEv
   fun:_ZN11CSimulation13nDoSimulationEiPPKc
   fun:main
}
{
   <insert_a_suppression_name_here>
   Memcheck:Leak
   match-leak-kinds: reachable
   fun:malloc
   fun:VSIMallocVerbose
   fun:_ZN13CPLStringList12AddNameValueEPKcS1_
   fun:_ZN23GDALMultiDomainMetadata15SetMetadataItemEPKcS1_S1_
   fun:GDALRegister_GFF
   fun:GDALAllRegister
   fun:_ZN11CSimulation27bCheckRasterGISOutputFormatEv
   fun:_ZN11CSimulation13nDoSimulationEiPPKc
   fun:main
}
{
   <insert_a_suppression_name_here>
   Memcheck:Leak
   match-leak-kinds: reachable
   fun:malloc
   fun:VSIMallocVerbose
   fun:_ZN13CPLStringList12AddNameValueEPKcS1_
   fun:_ZN23GDALMultiDomainMetadata15SetMetadataItemEPKcS1_S1_
   fun:GDALRegister_ELAS
   fun:GDALAllRegister
   fun:_ZN11CSimulation27bCheckRasterGISOutputFormatEv
   fun:_ZN11CSimulation13nDoSimulationEiPPKc
   fun:main
}
{
   <insert_a_suppression_name_here>
   Memcheck:Leak
   match-leak-kinds: reachable
   fun:malloc
   fun:VSIMallocVerbose
   fun:_ZN13CPLStringList12AddNameValueEPKcS1_
   fun:_ZN23GDALMultiDomainMetadata15SetMetadataItemEPKcS1_S1_
   fun:GDALRegister_ESRIC
   fun:GDALAllRegister
   fun:_ZN11CSimulation27bCheckRasterGISOutputFormatEv
   fun:_ZN11CSimulation13nDoSimulationEiPPKc
   fun:main
}
{
   <insert_a_suppression_name_here>
   Memcheck:Leak
   match-leak-kinds: reachable
   fun:malloc
   fun:VSIMallocVerbose
   fun:_ZN13CPLStringList12AddNameValueEPKcS1_
   fun:_ZN23GDALMultiDomainMetadata15SetMetadataItemEPKcS1_S1_
   fun:GDALRegister_AIGrid
   fun:GDALAllRegister
   fun:_ZN11CSimulation27bCheckRasterGISOutputFormatEv
   fun:_ZN11CSimulation13nDoSimulationEiPPKc
   fun:main
}
{
   <insert_a_suppression_name_here>
   Memcheck:Leak
   match-leak-kinds: reachable
   fun:malloc
   fun:VSIMallocVerbose
   fun:_ZN13CPLStringList12AddNameValueEPKcS1_
   fun:_ZN23GDALMultiDomainMetadata15SetMetadataItemEPKcS1_S1_
   fun:GDALRegister_AAIGrid
   fun:GDALAllRegister
   fun:_ZN11CSimulation27bCheckRasterGISOutputFormatEv
   fun:_ZN11CSimulation13nDoSimulationEiPPKc
   fun:main
}
{
   <insert_a_suppression_name_here>
   Memcheck:Leak
   match-leak-kinds: reachable
   fun:malloc
   fun:VSIMallocVerbose
   fun:_ZN13CPLStringList12AddNameValueEPKcS1_
   fun:_ZN23GDALMultiDomainMetadata15SetMetadataItemEPKcS1_S1_
   fun:GDALRegister_GRASSASCIIGrid
   fun:GDALAllRegister
   fun:_ZN11CSimulation27bCheckRasterGISOutputFormatEv
   fun:_ZN11CSimulation13nDoSimulationEiPPKc
   fun:main
}
{
   <insert_a_suppression_name_here>
   Memcheck:Leak
   match-leak-kinds: reachable
   fun:malloc
   fun:VSIMallocVerbose
   fun:_ZN13CPLStringList12AddNameValueEPKcS1_
   fun:_ZN23GDALMultiDomainMetadata15SetMetadataItemEPKcS1_S1_
   fun:GDALRegister_ISG
   fun:GDALAllRegister
   fun:_ZN11CSimulation27bCheckRasterGISOutputFormatEv
   fun:_ZN11CSimulation13nDoSimulationEiPPKc
   fun:main
}
{
   <insert_a_suppression_name_here>
   Memcheck:Leak
   match-leak-kinds: reachable
   fun:malloc
   fun:VSIMallocVerbose
   fun:_ZN13CPLStringList12AddNameValueEPKcS1_
   fun:_ZN23GDALMultiDomainMetadata15SetMetadataItemEPKcS1_S1_
   fun:GDALRegister_SDTS
   fun:GDALAllRegister
   fun:_ZN11CSimulation27bCheckRasterGISOutputFormatEv
   fun:_ZN11CSimulation13nDoSimulationEiPPKc
   fun:main
}
{
   <insert_a_suppression_name_here>
   Memcheck:Leak
   match-leak-kinds: reachable
   fun:malloc
   fun:VSIMallocVerbose
   fun:_ZN13CPLStringList12AddNameValueEPKcS1_
   fun:_ZN23GDALMultiDomainMetadata15SetMetadataItemEPKcS1_S1_
   fun:GDALRegister_DTED
   fun:GDALAllRegister
   fun:_ZN11CSimulation27bCheckRasterGISOutputFormatEv
   fun:_ZN11CSimulation13nDoSimulationEiPPKc
   fun:main
}
{
   <insert_a_suppression_name_here>
   Memcheck:Leak
   match-leak-kinds: reachable
   fun:malloc
   fun:VSIMallocVerbose
   fun:_ZN13CPLStringList12AddNameValueEPKcS1_
   fun:_ZN23GDALMultiDomainMetadata15SetMetadataItemEPKcS1_S1_
   fun:GDALRegister_PNG
   fun:GDALAllRegister
   fun:_ZN11CSimulation27bCheckRasterGISOutputFormatEv
   fun:_ZN11CSimulation13nDoSimulationEiPPKc
   fun:main
}
{
   <insert_a_suppression_name_here>
   Memcheck:Leak
   match-leak-kinds: reachable
   fun:malloc
   fun:VSIMallocVerbose
   fun:_ZN13CPLStringList12AddNameValueEPKcS1_
   fun:_ZN23GDALMultiDomainMetadata15SetMetadataItemEPKcS1_S1_
   fun:GDALRegister_JPEG
   fun:GDALAllRegister
   fun:_ZN11CSimulation27bCheckRasterGISOutputFormatEv
   fun:_ZN11CSimulation13nDoSimulationEiPPKc
   fun:main
}
{
   <insert_a_suppression_name_here>
   Memcheck:Leak
   match-leak-kinds: reachable
   fun:malloc
   fun:VSIMallocVerbose
   fun:_ZN13CPLStringList12AddNameValueEPKcS1_
   fun:_ZN23GDALMultiDomainMetadata15SetMetadataItemEPKcS1_S1_
   fun:GDALRegister_MEM
   fun:GDALAllRegister
   fun:_ZN11CSimulation27bCheckRasterGISOutputFormatEv
   fun:_ZN11CSimulation13nDoSimulationEiPPKc
   fun:main
}
{
   <insert_a_suppression_name_here>
   Memcheck:Leak
   match-leak-kinds: reachable
   fun:malloc
   fun:VSIMallocVerbose
   fun:_ZN13CPLStringList12AddNameValueEPKcS1_
   fun:_ZN23GDALMultiDomainMetadata15SetMetadataItemEPKcS1_S1_
   fun:GDALRegister_JDEM
   fun:GDALAllRegister
   fun:_ZN11CSimulation27bCheckRasterGISOutputFormatEv
   fun:_ZN11CSimulation13nDoSimulationEiPPKc
   fun:main
}
{
   <insert_a_suppression_name_here>
   Memcheck:Leak
   match-leak-kinds: reachable
   fun:malloc
   fun:VSIMallocVerbose
   fun:_ZN13CPLStringList12AddNameValueEPKcS1_
   fun:_ZN23GDALMultiDomainMetadata15SetMetadataItemEPKcS1_S1_
   fun:GDALRegister_GIF
   fun:GDALAllRegister
   fun:_ZN11CSimulation27bCheckRasterGISOutputFormatEv
   fun:_ZN11CSimulation13nDoSimulationEiPPKc
   fun:main
}
{
   <insert_a_suppression_name_here>
   Memcheck:Leak
   match-leak-kinds: reachable
   fun:malloc
   fun:VSIMallocVerbose
   fun:_ZN13CPLStringList12AddNameValueEPKcS1_
   fun:_ZN23GDALMultiDomainMetadata15SetMetadataItemEPKcS1_S1_
   fun:GDALRegister_BIGGIF
   fun:GDALAllRegister
   fun:_ZN11CSimulation27bCheckRasterGISOutputFormatEv
   fun:_ZN11CSimulation13nDoSimulationEiPPKc
   fun:main
}
{
   <insert_a_suppression_name_here>
   Memcheck:Leak
   match-leak-kinds: reachable
   fun:malloc
   fun:VSIMallocVerbose
   fun:_ZN13CPLStringList12AddNameValueEPKcS1_
   fun:_ZN23GDALMultiDomainMetadata15SetMetadataItemEPKcS1_S1_
   fun:GDALRegister_Envisat
   fun:GDALAllRegister
   fun:_ZN11CSimulation27bCheckRasterGISOutputFormatEv
   fun:_ZN11CSimulation13nDoSimulationEiPPKc
   fun:main
}
{
   <insert_a_suppression_name_here>
   Memcheck:Leak
   match-leak-kinds: reachable
   fun:malloc
   fun:VSIMallocVerbose
   fun:_ZN13CPLStringList12AddNameValueEPKcS1_
   fun:_ZN23GDALMultiDomainMetadata15SetMetadataItemEPKcS1_S1_
   fun:GDALRegister_FITS
   fun:GDALAllRegister
   fun:_ZN11CSimulation27bCheckRasterGISOutputFormatEv
   fun:_ZN11CSimulation13nDoSimulationEiPPKc
   fun:main
}
{
   <insert_a_suppression_name_here>
   Memcheck:Leak
   match-leak-kinds: reachable
   fun:malloc
   fun:VSIMallocVerbose
   fun:_ZN13CPLStringList12AddNameValueEPKcS1_
   fun:_ZN23GDALMultiDomainMetadata15SetMetadataItemEPKcS1_S1_
   fun:GDALRegister_BSB
   fun:GDALAllRegister
   fun:_ZN11CSimulation27bCheckRasterGISOutputFormatEv
   fun:_ZN11CSimulation13nDoSimulationEiPPKc
   fun:main
}
{
   <insert_a_suppression_name_here>
   Memcheck:Leak
   match-leak-kinds: reachable
   fun:malloc
   fun:VSIMallocVerbose
   fun:_ZN13CPLStringList12AddNameValueEPKcS1_
   fun:_ZN23GDALMultiDomainMetadata15SetMetadataItemEPKcS1_S1_
   fun:GDALRegister_XPM
   fun:GDALAllRegister
   fun:_ZN11CSimulation27bCheckRasterGISOutputFormatEv
   fun:_ZN11CSimulation13nDoSimulationEiPPKc
   fun:main
}
{
   <insert_a_suppression_name_here>
   Memcheck:Leak
   match-leak-kinds: reachable
   fun:malloc
   fun:VSIMallocVerbose
   fun:_ZN13CPLStringList12AddNameValueEPKcS1_
   fun:_ZN23GDALMultiDomainMetadata15SetMetadataItemEPKcS1_S1_
   fun:GDALRegister_BMP
   fun:GDALAllRegister
   fun:_ZN11CSimulation27bCheckRasterGISOutputFormatEv
   fun:_ZN11CSimulation13nDoSimulationEiPPKc
   fun:main
}
{
   <insert_a_suppression_name_here>
   Memcheck:Leak
   match-leak-kinds: reachable
   fun:malloc
   fun:VSIMallocVerbose
   fun:_ZN13CPLStringList12AddNameValueEPKcS1_
   fun:_ZN23GDALMultiDomainMetadata15SetMetadataItemEPKcS1_S1_
   fun:GDALRegister_DIMAP
   fun:GDALAllRegister
   fun:_ZN11CSimulation27bCheckRasterGISOutputFormatEv
   fun:_ZN11CSimulation13nDoSimulationEiPPKc
   fun:main
}
{
   <insert_a_suppression_name_here>
   Memcheck:Leak
   match-leak-kinds: reachable
   fun:malloc
   fun:VSIMallocVerbose
   fun:_ZN13CPLStringList12AddNameValueEPKcS1_
   fun:_ZN23GDALMultiDomainMetadata15SetMetadataItemEPKcS1_S1_
   fun:GDALRegister_AirSAR
   fun:GDALAllRegister
   fun:_ZN11CSimulation27bCheckRasterGISOutputFormatEv
   fun:_ZN11CSimulation13nDoSimulationEiPPKc
   fun:main
}
{
   <insert_a_suppression_name_here>
   Memcheck:Leak
   match-leak-kinds: reachable
   fun:malloc
   fun:VSIMallocVerbose
   fun:_ZN13CPLStringList12AddNameValueEPKcS1_
   fun:_ZN23GDALMultiDomainMetadata15SetMetadataItemEPKcS1_S1_
   fun:GDALRegister_RS2
   fun:GDALAllRegister
   fun:_ZN11CSimulation27bCheckRasterGISOutputFormatEv
   fun:_ZN11CSimulation13nDoSimulationEiPPKc
   fun:main
}
{
   <insert_a_suppression_name_here>
   Memcheck:Leak
   match-leak-kinds: reachable
   fun:malloc
   fun:VSIMallocVerbose
   fun:_ZN13CPLStringList12AddNameValueEPKcS1_
   fun:_ZN23GDALMultiDomainMetadata15SetMetadataItemEPKcS1_S1_
   fun:GDALRegister_SAFE
   fun:GDALAllRegister
   fun:_ZN11CSimulation27bCheckRasterGISOutputFormatEv
   fun:_ZN11CSimulation13nDoSimulationEiPPKc
   fun:main
}
{
   <insert_a_suppression_name_here>
   Memcheck:Leak
   match-leak-kinds: reachable
   fun:malloc
   fun:VSIMallocVerbose
   fun:_ZN13CPLStringList12AddNameValueEPKcS1_
   fun:_ZN23GDALMultiDomainMetadata15SetMetadataItemEPKcS1_S1_
   fun:GDALRegister_PCIDSK
   fun:GDALAllRegister
   fun:_ZN11CSimulation27bCheckRasterGISOutputFormatEv
   fun:_ZN11CSimulation13nDoSimulationEiPPKc
   fun:main
}
{
   <insert_a_suppression_name_here>
   Memcheck:Leak
   match-leak-kinds: reachable
   fun:malloc
   fun:VSIMallocVerbose
   fun:_ZN13CPLStringList12AddNameValueEPKcS1_
   fun:_ZN23GDALMultiDomainMetadata15SetMetadataItemEPKcS1_S1_
   fun:GDALRegister_PCRaster
   fun:GDALAllRegister
   fun:_ZN11CSimulation27bCheckRasterGISOutputFormatEv
   fun:_ZN11CSimulation13nDoSimulationEiPPKc
   fun:main
}
{
   <insert_a_suppression_name_here>
   Memcheck:Leak
   match-leak-kinds: reachable
   fun:malloc
   fun:VSIMallocVerbose
   fun:_ZN13CPLStringList12AddNameValueEPKcS1_
   fun:_ZN23GDALMultiDomainMetadata15SetMetadataItemEPKcS1_S1_
   fun:GDALRegister_ILWIS
   fun:GDALAllRegister
   fun:_ZN11CSimulation27bCheckRasterGISOutputFormatEv
   fun:_ZN11CSimulation13nDoSimulationEiPPKc
   fun:main
}
{
   <insert_a_suppression_name_here>
   Memcheck:Leak
   match-leak-kinds: reachable
   fun:malloc
   fun:VSIMallocVerbose
   fun:_ZN13CPLStringList12AddNameValueEPKcS1_
   fun:_ZN23GDALMultiDomainMetadata15SetMetadataItemEPKcS1_S1_
   fun:GDALRegister_SGI
   fun:GDALAllRegister
   fun:_ZN11CSimulation27bCheckRasterGISOutputFormatEv
   fun:_ZN11CSimulation13nDoSimulationEiPPKc
   fun:main
}
{
   <insert_a_suppression_name_here>
   Memcheck:Leak
   match-leak-kinds: reachable
   fun:malloc
   fun:VSIMallocVerbose
   fun:_ZN13CPLStringList12AddNameValueEPKcS1_
   fun:_ZN23GDALMultiDomainMetadata15SetMetadataItemEPKcS1_S1_
   fun:GDALRegister_SRTMHGT
   fun:GDALAllRegister
   fun:_ZN11CSimulation27bCheckRasterGISOutputFormatEv
   fun:_ZN11CSimulation13nDoSimulationEiPPKc
   fun:main
}
{
   <insert_a_suppression_name_here>
   Memcheck:Leak
   match-leak-kinds: reachable
   fun:malloc
   fun:VSIMallocVerbose
   fun:_ZN13CPLStringList12AddNameValueEPKcS1_
   fun:_ZN23GDALMultiDomainMetadata15SetMetadataItemEPKcS1_S1_
   fun:GDALRegister_Leveller
   fun:GDALAllRegister
   fun:_ZN11CSimulation27bCheckRasterGISOutputFormatEv
   fun:_ZN11CSimulation13nDoSimulationEiPPKc
   fun:main
}
{
   <insert_a_suppression_name_here>
   Memcheck:Leak
   match-leak-kinds: reachable
   fun:malloc
   fun:VSIMallocVerbose
   fun:_ZN13CPLStringList12AddNameValueEPKcS1_
   fun:_ZN23GDALMultiDomainMetadata15SetMetadataItemEPKcS1_S1_
   fun:GDALRegister_Terragen
   fun:GDALAllRegister
   fun:_ZN11CSimulation27bCheckRasterGISOutputFormatEv
   fun:_ZN11CSimulation13nDoSimulationEiPPKc
   fun:main
}
{
   <insert_a_suppression_name_here>
   Memcheck:Leak
   match-leak-kinds: reachable
   fun:malloc
   fun:VSIMallocVerbose
   fun:_ZN13CPLStringList12AddNameValueEPKcS1_
   fun:_ZN23GDALMultiDomainMetadata15SetMetadataItemEPKcS1_S1_
   fun:GDALRegister_netCDF
   fun:GDALAllRegister
   fun:_ZN11CSimulation27bCheckRasterGISOutputFormatEv
   fun:_ZN11CSimulation13nDoSimulationEiPPKc
   fun:main
}
{
   <insert_a_suppression_name_here>
   Memcheck:Leak
   match-leak-kinds: reachable
   fun:malloc
   fun:VSIMallocVerbose
   fun:_ZN13CPLStringList12AddNameValueEPKcS1_
   fun:_ZN23GDALMultiDomainMetadata15SetMetadataItemEPKcS1_S1_
   fun:GDALRegister_HDF4
   fun:GDALAllRegister
   fun:_ZN11CSimulation27bCheckRasterGISOutputFormatEv
   fun:_ZN11CSimulation13nDoSimulationEiPPKc
   fun:main
}
{
   <insert_a_suppression_name_here>
   Memcheck:Leak
   match-leak-kinds: reachable
   fun:malloc
   fun:VSIMallocVerbose
   fun:_ZN13CPLStringList12AddNameValueEPKcS1_
   fun:_ZN23GDALMultiDomainMetadata15SetMetadataItemEPKcS1_S1_
   fun:GDALRegister_HDF4Image
   fun:GDALAllRegister
   fun:_ZN11CSimulation27bCheckRasterGISOutputFormatEv
   fun:_ZN11CSimulation13nDoSimulationEiPPKc
   fun:main
}
{
   <insert_a_suppression_name_here>
   Memcheck:Leak
   match-leak-kinds: reachable
   fun:malloc
   fun:VSIMallocVerbose
   fun:_ZN13CPLStringList12AddNameValueEPKcS1_
   fun:_ZN23GDALMultiDomainMetadata15SetMetadataItemEPKcS1_S1_
   fun:GDALRegister_ISIS3
   fun:GDALAllRegister
   fun:_ZN11CSimulation27bCheckRasterGISOutputFormatEv
   fun:_ZN11CSimulation13nDoSimulationEiPPKc
   fun:main
}
{
   <insert_a_suppression_name_here>
   Memcheck:Leak
   match-leak-kinds: reachable
   fun:malloc
   fun:VSIMallocVerbose
   fun:_ZN13CPLStringList12AddNameValueEPKcS1_
   fun:_ZN23GDALMultiDomainMetadata15SetMetadataItemEPKcS1_S1_
   fun:GDALRegister_ISIS2
   fun:GDALAllRegister
   fun:_ZN11CSimulation27bCheckRasterGISOutputFormatEv
   fun:_ZN11CSimulation13nDoSimulationEiPPKc
   fun:main
}
{
   <insert_a_suppression_name_here>
   Memcheck:Leak
   match-leak-kinds: reachable
   fun:malloc
   fun:VSIMallocVerbose
   fun:_ZN13CPLStringList12AddNameValueEPKcS1_
   fun:_ZN23GDALMultiDomainMetadata15SetMetadataItemEPKcS1_S1_
   fun:GDALRegister_PDS
   fun:GDALAllRegister
   fun:_ZN11CSimulation27bCheckRasterGISOutputFormatEv
   fun:_ZN11CSimulation13nDoSimulationEiPPKc
   fun:main
}
{
   <insert_a_suppression_name_here>
   Memcheck:Leak
   match-leak-kinds: reachable
   fun:malloc
   fun:VSIMallocVerbose
   fun:_ZN13CPLStringList12AddNameValueEPKcS1_
   fun:_ZN23GDALMultiDomainMetadata15SetMetadataItemEPKcS1_S1_
   fun:GDALRegister_PDS4
   fun:GDALAllRegister
   fun:_ZN11CSimulation27bCheckRasterGISOutputFormatEv
   fun:_ZN11CSimulation13nDoSimulationEiPPKc
   fun:main
}
{
   <insert_a_suppression_name_here>
   Memcheck:Leak
   match-leak-kinds: reachable
   fun:malloc
   fun:VSIMallocVerbose
   fun:_ZN13CPLStringList12AddNameValueEPKcS1_
   fun:_ZN23GDALMultiDomainMetadata15SetMetadataItemEPKcS1_S1_
   fun:GDALRegister_VICAR
   fun:GDALAllRegister
   fun:_ZN11CSimulation27bCheckRasterGISOutputFormatEv
   fun:_ZN11CSimulation13nDoSimulationEiPPKc
   fun:main
}
{
   <insert_a_suppression_name_here>
   Memcheck:Leak
   match-leak-kinds: reachable
   fun:malloc
   fun:VSIMallocVerbose
   fun:_ZN13CPLStringList12AddNameValueEPKcS1_
   fun:_ZN23GDALMultiDomainMetadata15SetMetadataItemEPKcS1_S1_
   fun:GDALRegister_TIL
   fun:GDALAllRegister
   fun:_ZN11CSimulation27bCheckRasterGISOutputFormatEv
   fun:_ZN11CSimulation13nDoSimulationEiPPKc
   fun:main
}
{
   <insert_a_suppression_name_here>
   Memcheck:Leak
   match-leak-kinds: reachable
   fun:malloc
   fun:VSIMallocVerbose
   fun:_ZN13CPLStringList12AddNameValueEPKcS1_
   fun:_ZN23GDALMultiDomainMetadata15SetMetadataItemEPKcS1_S1_
   fun:GDALRegister_ERS
   fun:GDALAllRegister
   fun:_ZN11CSimulation27bCheckRasterGISOutputFormatEv
   fun:_ZN11CSimulation13nDoSimulationEiPPKc
   fun:main
}
{
   <insert_a_suppression_name_here>
   Memcheck:Leak
   match-leak-kinds: reachable
   fun:malloc
   fun:VSIMallocVerbose
   fun:_ZN13CPLStringList12AddNameValueEPKcS1_
   fun:_ZN23GDALMultiDomainMetadata15SetMetadataItemEPKcS1_S1_
   fun:GDALRegister_JP2OpenJPEG
   fun:GDALAllRegister
   fun:_ZN11CSimulation27bCheckRasterGISOutputFormatEv
   fun:_ZN11CSimulation13nDoSimulationEiPPKc
   fun:main
}
{
   <insert_a_suppression_name_here>
   Memcheck:Leak
   match-leak-kinds: reachable
   fun:malloc
   fun:VSIMallocVerbose
   fun:_ZN13CPLStringList12AddNameValueEPKcS1_
   fun:_ZN23GDALMultiDomainMetadata15SetMetadataItemEPKcS1_S1_
   fun:GDALRegister_L1B
   fun:GDALAllRegister
   fun:_ZN11CSimulation27bCheckRasterGISOutputFormatEv
   fun:_ZN11CSimulation13nDoSimulationEiPPKc
   fun:main
}
{
   <insert_a_suppression_name_here>
   Memcheck:Leak
   match-leak-kinds: reachable
   fun:malloc
   fun:VSIMallocVerbose
   fun:_ZN13CPLStringList12AddNameValueEPKcS1_
   fun:_ZN23GDALMultiDomainMetadata15SetMetadataItemEPKcS1_S1_
   fun:_ZN10GDALDriver15SetMetadataItemEPKcS1_S1_
   fun:GDALRegister_FIT
   fun:GDALAllRegister
   fun:_ZN11CSimulation27bCheckRasterGISOutputFormatEv
   fun:_ZN11CSimulation13nDoSimulationEiPPKc
   fun:main
}
{
   <insert_a_suppression_name_here>
   Memcheck:Leak
   match-leak-kinds: reachable
   fun:malloc
   fun:VSIMallocVerbose
   fun:_ZN13CPLStringList12AddNameValueEPKcS1_
   fun:_ZN23GDALMultiDomainMetadata15SetMetadataItemEPKcS1_S1_
   fun:GDALRegister_RMF
   fun:GDALAllRegister
   fun:_ZN11CSimulation27bCheckRasterGISOutputFormatEv
   fun:_ZN11CSimulation13nDoSimulationEiPPKc
   fun:main
}
{
   <insert_a_suppression_name_here>
   Memcheck:Leak
   match-leak-kinds: reachable
   fun:malloc
   fun:VSIMallocVerbose
   fun:_ZN13CPLStringList12AddNameValueEPKcS1_
   fun:_ZN23GDALMultiDomainMetadata15SetMetadataItemEPKcS1_S1_
   fun:GDALRegister_WCS
   fun:GDALAllRegister
   fun:_ZN11CSimulation27bCheckRasterGISOutputFormatEv
   fun:_ZN11CSimulation13nDoSimulationEiPPKc
   fun:main
}
{
   <insert_a_suppression_name_here>
   Memcheck:Leak
   match-leak-kinds: reachable
   fun:malloc
   fun:VSIMallocVerbose
   fun:_ZN13CPLStringList12AddNameValueEPKcS1_
   fun:_ZN23GDALMultiDomainMetadata15SetMetadataItemEPKcS1_S1_
   fun:GDALRegister_WMS
   fun:GDALAllRegister
   fun:_ZN11CSimulation27bCheckRasterGISOutputFormatEv
   fun:_ZN11CSimulation13nDoSimulationEiPPKc
   fun:main
}
{
   <insert_a_suppression_name_here>
   Memcheck:Leak
   match-leak-kinds: reachable
   fun:malloc
   fun:VSIMallocVerbose
   fun:_ZN13CPLStringList12AddNameValueEPKcS1_
   fun:_ZN23GDALMultiDomainMetadata15SetMetadataItemEPKcS1_S1_
   fun:GDALRegister_MSGN
   fun:GDALAllRegister
   fun:_ZN11CSimulation27bCheckRasterGISOutputFormatEv
   fun:_ZN11CSimulation13nDoSimulationEiPPKc
   fun:main
}
{
   <insert_a_suppression_name_here>
   Memcheck:Leak
   match-leak-kinds: reachable
   fun:malloc
   fun:VSIMallocVerbose
   fun:_ZN13CPLStringList12AddNameValueEPKcS1_
   fun:_ZN23GDALMultiDomainMetadata15SetMetadataItemEPKcS1_S1_
   fun:GDALRegister_IDRISI
   fun:GDALAllRegister
   fun:_ZN11CSimulation27bCheckRasterGISOutputFormatEv
   fun:_ZN11CSimulation13nDoSimulationEiPPKc
   fun:main
}
{
   <insert_a_suppression_name_here>
   Memcheck:Leak
   match-leak-kinds: reachable
   fun:malloc
   fun:VSIMallocVerbose
   fun:_ZN13CPLStringList12AddNameValueEPKcS1_
   fun:_ZN23GDALMultiDomainMetadata15SetMetadataItemEPKcS1_S1_
   fun:GDALRegister_GSAG
   fun:GDALAllRegister
   fun:_ZN11CSimulation27bCheckRasterGISOutputFormatEv
   fun:_ZN11CSimulation13nDoSimulationEiPPKc
   fun:main
}
{
   <insert_a_suppression_name_here>
   Memcheck:Leak
   match-leak-kinds: reachable
   fun:malloc
   fun:VSIMallocVerbose
   fun:_ZN13CPLStringList12AddNameValueEPKcS1_
   fun:_ZN23GDALMultiDomainMetadata15SetMetadataItemEPKcS1_S1_
   fun:GDALRegister_GSBG
   fun:GDALAllRegister
   fun:_ZN11CSimulation27bCheckRasterGISOutputFormatEv
   fun:_ZN11CSimulation13nDoSimulationEiPPKc
   fun:main
}
{
   <insert_a_suppression_name_here>
   Memcheck:Leak
   match-leak-kinds: reachable
   fun:malloc
   fun:VSIMallocVerbose
   fun:_ZN13CPLStringList12AddNameValueEPKcS1_
   fun:_ZN23GDALMultiDomainMetadata15SetMetadataItemEPKcS1_S1_
   fun:GDALRegister_GS7BG
   fun:GDALAllRegister
   fun:_ZN11CSimulation27bCheckRasterGISOutputFormatEv
   fun:_ZN11CSimulation13nDoSimulationEiPPKc
   fun:main
}
{
   <insert_a_suppression_name_here>
   Memcheck:Leak
   match-leak-kinds: reachable
   fun:malloc
   fun:VSIMallocVerbose
   fun:_ZN13CPLStringList12AddNameValueEPKcS1_
   fun:_ZN23GDALMultiDomainMetadata15SetMetadataItemEPKcS1_S1_
   fun:GDALRegister_COSAR
   fun:GDALAllRegister
   fun:_ZN11CSimulation27bCheckRasterGISOutputFormatEv
   fun:_ZN11CSimulation13nDoSimulationEiPPKc
   fun:main
}
{
   <insert_a_suppression_name_here>
   Memcheck:Leak
   match-leak-kinds: reachable
   fun:malloc
   fun:VSIMallocVerbose
   fun:_ZN13CPLStringList12AddNameValueEPKcS1_
   fun:_ZN23GDALMultiDomainMetadata15SetMetadataItemEPKcS1_S1_
   fun:GDALRegister_TSX
   fun:GDALAllRegister
   fun:_ZN11CSimulation27bCheckRasterGISOutputFormatEv
   fun:_ZN11CSimulation13nDoSimulationEiPPKc
   fun:main
}
{
   <insert_a_suppression_name_here>
   Memcheck:Leak
   match-leak-kinds: reachable
   fun:malloc
   fun:VSIMallocVerbose
   fun:_ZN13CPLStringList12AddNameValueEPKcS1_
   fun:_ZN23GDALMultiDomainMetadata15SetMetadataItemEPKcS1_S1_
   fun:GDALRegister_COASP
   fun:GDALAllRegister
   fun:_ZN11CSimulation27bCheckRasterGISOutputFormatEv
   fun:_ZN11CSimulation13nDoSimulationEiPPKc
   fun:main
}
{
   <insert_a_suppression_name_here>
   Memcheck:Leak
   match-leak-kinds: reachable
   fun:malloc
   fun:VSIMallocVerbose
   fun:_ZN13CPLStringList12AddNameValueEPKcS1_
   fun:_ZN23GDALMultiDomainMetadata15SetMetadataItemEPKcS1_S1_
   fun:GDALRegister_R
   fun:GDALAllRegister
   fun:_ZN11CSimulation27bCheckRasterGISOutputFormatEv
   fun:_ZN11CSimulation13nDoSimulationEiPPKc
   fun:main
}
{
   <insert_a_suppression_name_here>
   Memcheck:Leak
   match-leak-kinds: reachable
   fun:malloc
   fun:VSIMallocVerbose
   fun:_ZN13CPLStringList12AddNameValueEPKcS1_
   fun:_ZN23GDALMultiDomainMetadata15SetMetadataItemEPKcS1_S1_
   fun:GDALRegister_MAP
   fun:GDALAllRegister
   fun:_ZN11CSimulation27bCheckRasterGISOutputFormatEv
   fun:_ZN11CSimulation13nDoSimulationEiPPKc
   fun:main
}
{
   <insert_a_suppression_name_here>
   Memcheck:Leak
   match-leak-kinds: reachable
   fun:malloc
   fun:VSIMallocVerbose
   fun:_ZN13CPLStringList12AddNameValueEPKcS1_
   fun:_ZN23GDALMultiDomainMetadata15SetMetadataItemEPKcS1_S1_
   fun:GDALRegister_KMLSUPEROVERLAY
   fun:GDALAllRegister
   fun:_ZN11CSimulation27bCheckRasterGISOutputFormatEv
   fun:_ZN11CSimulation13nDoSimulationEiPPKc
   fun:main
}
{
   <insert_a_suppression_name_here>
   Memcheck:Leak
   match-leak-kinds: reachable
   fun:malloc
   fun:VSIMallocVerbose
   fun:_ZN13CPLStringList12AddNameValueEPKcS1_
   fun:_ZN23GDALMultiDomainMetadata15SetMetadataItemEPKcS1_S1_
   fun:GDALRegister_WEBP
   fun:GDALAllRegister
   fun:_ZN11CSimulation27bCheckRasterGISOutputFormatEv
   fun:_ZN11CSimulation13nDoSimulationEiPPKc
   fun:main
}
{
   <insert_a_suppression_name_here>
   Memcheck:Leak
   match-leak-kinds: reachable
   fun:malloc
   fun:VSIMallocVerbose
   fun:_ZN13CPLStringList12AddNameValueEPKcS1_
   fun:_ZN23GDALMultiDomainMetadata15SetMetadataItemEPKcS1_S1_
   fun:GDALRegister_PDF
   fun:GDALAllRegister
   fun:_ZN11CSimulation27bCheckRasterGISOutputFormatEv
   fun:_ZN11CSimulation13nDoSimulationEiPPKc
   fun:main
}
{
   <insert_a_suppression_name_here>
   Memcheck:Leak
   match-leak-kinds: reachable
   fun:malloc
   fun:VSIMallocVerbose
   fun:_ZN13CPLStringList12AddNameValueEPKcS1_
   fun:_ZN23GDALMultiDomainMetadata15SetMetadataItemEPKcS1_S1_
   fun:GDALRegister_Rasterlite
   fun:GDALAllRegister
   fun:_ZN11CSimulation27bCheckRasterGISOutputFormatEv
   fun:_ZN11CSimulation13nDoSimulationEiPPKc
   fun:main
}
{
   <insert_a_suppression_name_here>
   Memcheck:Leak
   match-leak-kinds: reachable
   fun:malloc
   fun:VSIMallocVerbose
   fun:_ZN13CPLStringList12AddNameValueEPKcS1_
   fun:_ZN23GDALMultiDomainMetadata15SetMetadataItemEPKcS1_S1_
   fun:GDALRegister_MBTiles
   fun:GDALAllRegister
   fun:_ZN11CSimulation27bCheckRasterGISOutputFormatEv
   fun:_ZN11CSimulation13nDoSimulationEiPPKc
   fun:main
}
{
   <insert_a_suppression_name_here>
   Memcheck:Leak
   match-leak-kinds: reachable
   fun:malloc
   fun:VSIMallocVerbose
   fun:_ZN13CPLStringList12AddNameValueEPKcS1_
   fun:_ZN23GDALMultiDomainMetadata15SetMetadataItemEPKcS1_S1_
   fun:GDALRegister_PLMOSAIC
   fun:GDALAllRegister
   fun:_ZN11CSimulation27bCheckRasterGISOutputFormatEv
   fun:_ZN11CSimulation13nDoSimulationEiPPKc
   fun:main
}
{
   <insert_a_suppression_name_here>
   Memcheck:Leak
   match-leak-kinds: reachable
   fun:malloc
   fun:VSIMallocVerbose
   fun:_ZN13CPLStringList12AddNameValueEPKcS1_
   fun:_ZN23GDALMultiDomainMetadata15SetMetadataItemEPKcS1_S1_
   fun:GDALRegister_CALS
   fun:GDALAllRegister
   fun:_ZN11CSimulation27bCheckRasterGISOutputFormatEv
   fun:_ZN11CSimulation13nDoSimulationEiPPKc
   fun:main
}
{
   <insert_a_suppression_name_here>
   Memcheck:Leak
   match-leak-kinds: reachable
   fun:malloc
   fun:VSIMallocVerbose
   fun:_ZN13CPLStringList12AddNameValueEPKcS1_
   fun:_ZN23GDALMultiDomainMetadata15SetMetadataItemEPKcS1_S1_
   fun:GDALRegister_WMTS
   fun:GDALAllRegister
   fun:_ZN11CSimulation27bCheckRasterGISOutputFormatEv
   fun:_ZN11CSimulation13nDoSimulationEiPPKc
   fun:main
}
{
   <insert_a_suppression_name_here>
   Memcheck:Leak
   match-leak-kinds: reachable
   fun:malloc
   fun:VSIMallocVerbose
   fun:_ZN13CPLStringList12AddNameValueEPKcS1_
   fun:_ZN23GDALMultiDomainMetadata15SetMetadataItemEPKcS1_S1_
   fun:GDALRegister_SENTINEL2
   fun:GDALAllRegister
   fun:_ZN11CSimulation27bCheckRasterGISOutputFormatEv
   fun:_ZN11CSimulation13nDoSimulationEiPPKc
   fun:main
}
{
   <insert_a_suppression_name_here>
   Memcheck:Leak
   match-leak-kinds: reachable
   fun:malloc
   fun:VSIMallocVerbose
   fun:_ZN13CPLStringList12AddNameValueEPKcS1_
   fun:_ZN23GDALMultiDomainMetadata15SetMetadataItemEPKcS1_S1_
   fun:GDALRegister_mrf
   fun:GDALAllRegister
   fun:_ZN11CSimulation27bCheckRasterGISOutputFormatEv
   fun:_ZN11CSimulation13nDoSimulationEiPPKc
   fun:main
}
{
   <insert_a_suppression_name_here>
   Memcheck:Leak
   match-leak-kinds: reachable
   fun:malloc
   fun:VSIMallocVerbose
   fun:_ZN13CPLStringList12AddNameValueEPKcS1_
   fun:_ZN23GDALMultiDomainMetadata15SetMetadataItemEPKcS1_S1_
   fun:GDALRegister_PNM
   fun:GDALRegister_raw_no_sidecar
   fun:GDALAllRegister
   fun:_ZN11CSimulation27bCheckRasterGISOutputFormatEv
   fun:_ZN11CSimulation13nDoSimulationEiPPKc
   fun:main
}
{
   <insert_a_suppression_name_here>
   Memcheck:Leak
   match-leak-kinds: reachable
   fun:malloc
   fun:VSIMallocVerbose
   fun:_ZN13CPLStringList12AddNameValueEPKcS1_
   fun:_ZN23GDALMultiDomainMetadata15SetMetadataItemEPKcS1_S1_
   fun:GDALRegister_DOQ1
   fun:GDALRegister_raw_no_sidecar
   fun:GDALAllRegister
   fun:_ZN11CSimulation27bCheckRasterGISOutputFormatEv
   fun:_ZN11CSimulation13nDoSimulationEiPPKc
   fun:main
}
{
   <insert_a_suppression_name_here>
   Memcheck:Leak
   match-leak-kinds: reachable
   fun:malloc
   fun:VSIMallocVerbose
   fun:_ZN13CPLStringList12AddNameValueEPKcS1_
   fun:_ZN23GDALMultiDomainMetadata15SetMetadataItemEPKcS1_S1_
   fun:GDALRegister_DOQ2
   fun:GDALRegister_raw_no_sidecar
   fun:GDALAllRegister
   fun:_ZN11CSimulation27bCheckRasterGISOutputFormatEv
   fun:_ZN11CSimulation13nDoSimulationEiPPKc
   fun:main
}
{
   <insert_a_suppression_name_here>
   Memcheck:Leak
   match-leak-kinds: reachable
   fun:malloc
   fun:VSIMallocVerbose
   fun:_ZN13CPLStringList12AddNameValueEPKcS1_
   fun:_ZN23GDALMultiDomainMetadata15SetMetadataItemEPKcS1_S1_
   fun:GDALRegister_PAux
   fun:GDALRegister_raw_no_sidecar
   fun:GDALAllRegister
   fun:_ZN11CSimulation27bCheckRasterGISOutputFormatEv
   fun:_ZN11CSimulation13nDoSimulationEiPPKc
   fun:main
}
{
   <insert_a_suppression_name_here>
   Memcheck:Leak
   match-leak-kinds: reachable
   fun:malloc
   fun:VSIMallocVerbose
   fun:_ZN13CPLStringList12AddNameValueEPKcS1_
   fun:_ZN23GDALMultiDomainMetadata15SetMetadataItemEPKcS1_S1_
   fun:GDALRegister_MFF
   fun:GDALRegister_raw_no_sidecar
   fun:GDALAllRegister
   fun:_ZN11CSimulation27bCheckRasterGISOutputFormatEv
   fun:_ZN11CSimulation13nDoSimulationEiPPKc
   fun:main
}
{
   <insert_a_suppression_name_here>
   Memcheck:Leak
   match-leak-kinds: reachable
   fun:malloc
   fun:VSIMallocVerbose
   fun:_ZN13CPLStringList12AddNameValueEPKcS1_
   fun:_ZN23GDALMultiDomainMetadata15SetMetadataItemEPKcS1_S1_
   fun:GDALRegister_HKV
   fun:GDALRegister_raw_no_sidecar
   fun:GDALAllRegister
   fun:_ZN11CSimulation27bCheckRasterGISOutputFormatEv
   fun:_ZN11CSimulation13nDoSimulationEiPPKc
   fun:main
}
{
   <insert_a_suppression_name_here>
   Memcheck:Leak
   match-leak-kinds: reachable
   fun:malloc
   fun:VSIMallocVerbose
   fun:_ZN13CPLStringList12AddNameValueEPKcS1_
   fun:_ZN23GDALMultiDomainMetadata15SetMetadataItemEPKcS1_S1_
   fun:GDALRegister_GSC
   fun:GDALRegister_raw_no_sidecar
   fun:GDALAllRegister
   fun:_ZN11CSimulation27bCheckRasterGISOutputFormatEv
   fun:_ZN11CSimulation13nDoSimulationEiPPKc
   fun:main
}
{
   <insert_a_suppression_name_here>
   Memcheck:Leak
   match-leak-kinds: reachable
   fun:malloc
   fun:VSIMallocVerbose
   fun:_ZN13CPLStringList12AddNameValueEPKcS1_
   fun:_ZN23GDALMultiDomainMetadata15SetMetadataItemEPKcS1_S1_
   fun:GDALRegister_FAST
   fun:GDALRegister_raw_no_sidecar
   fun:GDALAllRegister
   fun:_ZN11CSimulation27bCheckRasterGISOutputFormatEv
   fun:_ZN11CSimulation13nDoSimulationEiPPKc
   fun:main
}
{
   <insert_a_suppression_name_here>
   Memcheck:Leak
   match-leak-kinds: reachable
   fun:malloc
   fun:VSIMallocVerbose
   fun:_ZN13CPLStringList12AddNameValueEPKcS1_
   fun:_ZN23GDALMultiDomainMetadata15SetMetadataItemEPKcS1_S1_
   fun:GDALRegister_BT
   fun:GDALRegister_raw_no_sidecar
   fun:GDALAllRegister
   fun:_ZN11CSimulation27bCheckRasterGISOutputFormatEv
   fun:_ZN11CSimulation13nDoSimulationEiPPKc
   fun:main
}
{
   <insert_a_suppression_name_here>
   Memcheck:Leak
   match-leak-kinds: reachable
   fun:malloc
   fun:VSIMallocVerbose
   fun:_ZN13CPLStringList12AddNameValueEPKcS1_
   fun:_ZN23GDALMultiDomainMetadata15SetMetadataItemEPKcS1_S1_
   fun:GDALRegister_LAN
   fun:GDALRegister_raw_no_sidecar
   fun:GDALAllRegister
   fun:_ZN11CSimulation27bCheckRasterGISOutputFormatEv
   fun:_ZN11CSimulation13nDoSimulationEiPPKc
   fun:main
}
{
   <insert_a_suppression_name_here>
   Memcheck:Leak
   match-leak-kinds: reachable
   fun:malloc
   fun:VSIMallocVerbose
   fun:_ZN13CPLStringList12AddNameValueEPKcS1_
   fun:_ZN23GDALMultiDomainMetadata15SetMetadataItemEPKcS1_S1_
   fun:GDALRegister_CPG
   fun:GDALRegister_raw_no_sidecar
   fun:GDALAllRegister
   fun:_ZN11CSimulation27bCheckRasterGISOutputFormatEv
   fun:_ZN11CSimulation13nDoSimulationEiPPKc
   fun:main
}
{
   <insert_a_suppression_name_here>
   Memcheck:Leak
   match-leak-kinds: reachable
   fun:malloc
   fun:VSIMallocVerbose
   fun:_ZN13CPLStringList12AddNameValueEPKcS1_
   fun:_ZN23GDALMultiDomainMetadata15SetMetadataItemEPKcS1_S1_
   fun:GDALRegister_NDF
   fun:GDALRegister_raw_no_sidecar
   fun:GDALAllRegister
   fun:_ZN11CSimulation27bCheckRasterGISOutputFormatEv
   fun:_ZN11CSimulation13nDoSimulationEiPPKc
   fun:main
}
{
   <insert_a_suppression_name_here>
   Memcheck:Leak
   match-leak-kinds: reachable
   fun:malloc
   fun:VSIMallocVerbose
   fun:_ZN13CPLStringList12AddNameValueEPKcS1_
   fun:_ZN23GDALMultiDomainMetadata15SetMetadataItemEPKcS1_S1_
   fun:GDALRegister_EIR
   fun:GDALRegister_raw_no_sidecar
   fun:GDALAllRegister
   fun:_ZN11CSimulation27bCheckRasterGISOutputFormatEv
   fun:_ZN11CSimulation13nDoSimulationEiPPKc
   fun:main
}
{
   <insert_a_suppression_name_here>
   Memcheck:Leak
   match-leak-kinds: reachable
   fun:malloc
   fun:VSIMallocVerbose
   fun:_ZN13CPLStringList12AddNameValueEPKcS1_
   fun:_ZN23GDALMultiDomainMetadata15SetMetadataItemEPKcS1_S1_
   fun:GDALRegister_DIPEx
   fun:GDALRegister_raw_no_sidecar
   fun:GDALAllRegister
   fun:_ZN11CSimulation27bCheckRasterGISOutputFormatEv
   fun:_ZN11CSimulation13nDoSimulationEiPPKc
   fun:main
}
{
   <insert_a_suppression_name_here>
   Memcheck:Leak
   match-leak-kinds: reachable
   fun:malloc
   fun:VSIMallocVerbose
   fun:_ZN13CPLStringList12AddNameValueEPKcS1_
   fun:_ZN23GDALMultiDomainMetadata15SetMetadataItemEPKcS1_S1_
   fun:GDALRegister_LCP
   fun:GDALRegister_raw_no_sidecar
   fun:GDALAllRegister
   fun:_ZN11CSimulation27bCheckRasterGISOutputFormatEv
   fun:_ZN11CSimulation13nDoSimulationEiPPKc
   fun:main
}
{
   <insert_a_suppression_name_here>
   Memcheck:Leak
   match-leak-kinds: reachable
   fun:malloc
   fun:VSIMallocVerbose
   fun:_ZN13CPLStringList12AddNameValueEPKcS1_
   fun:_ZN23GDALMultiDomainMetadata15SetMetadataItemEPKcS1_S1_
   fun:GDALRegister_GTX
   fun:GDALRegister_raw_no_sidecar
   fun:GDALAllRegister
   fun:_ZN11CSimulation27bCheckRasterGISOutputFormatEv
   fun:_ZN11CSimulation13nDoSimulationEiPPKc
   fun:main
}
{
   <insert_a_suppression_name_here>
   Memcheck:Leak
   match-leak-kinds: reachable
   fun:malloc
   fun:VSIMallocVerbose
   fun:_ZN13CPLStringList12AddNameValueEPKcS1_
   fun:_ZN23GDALMultiDomainMetadata15SetMetadataItemEPKcS1_S1_
   fun:GDALRegister_LOSLAS
   fun:GDALRegister_raw_no_sidecar
   fun:GDALAllRegister
   fun:_ZN11CSimulation27bCheckRasterGISOutputFormatEv
   fun:_ZN11CSimulation13nDoSimulationEiPPKc
   fun:main
}
{
   <insert_a_suppression_name_here>
   Memcheck:Leak
   match-leak-kinds: reachable
   fun:malloc
   fun:VSIMallocVerbose
   fun:_ZN13CPLStringList12AddNameValueEPKcS1_
   fun:_ZN23GDALMultiDomainMetadata15SetMetadataItemEPKcS1_S1_
   fun:GDALRegister_NTv2
   fun:GDALRegister_raw_no_sidecar
   fun:GDALAllRegister
   fun:_ZN11CSimulation27bCheckRasterGISOutputFormatEv
   fun:_ZN11CSimulation13nDoSimulationEiPPKc
   fun:main
}
{
   <insert_a_suppression_name_here>
   Memcheck:Leak
   match-leak-kinds: reachable
   fun:malloc
   fun:VSIMallocVerbose
   fun:_ZN13CPLStringList12AddNameValueEPKcS1_
   fun:_ZN23GDALMultiDomainMetadata15SetMetadataItemEPKcS1_S1_
   fun:GDALRegister_CTable2
   fun:GDALRegister_raw_no_sidecar
   fun:GDALAllRegister
   fun:_ZN11CSimulation27bCheckRasterGISOutputFormatEv
   fun:_ZN11CSimulation13nDoSimulationEiPPKc
   fun:main
}
{
   <insert_a_suppression_name_here>
   Memcheck:Leak
   match-leak-kinds: reachable
   fun:malloc
   fun:VSIMallocVerbose
   fun:_ZN13CPLStringList12AddNameValueEPKcS1_
   fun:_ZN23GDALMultiDomainMetadata15SetMetadataItemEPKcS1_S1_
   fun:GDALRegister_ACE2
   fun:GDALRegister_raw_no_sidecar
   fun:GDALAllRegister
   fun:_ZN11CSimulation27bCheckRasterGISOutputFormatEv
   fun:_ZN11CSimulation13nDoSimulationEiPPKc
   fun:main
}
{
   <insert_a_suppression_name_here>
   Memcheck:Leak
   match-leak-kinds: reachable
   fun:malloc
   fun:VSIMallocVerbose
   fun:_ZN13CPLStringList12AddNameValueEPKcS1_
   fun:_ZN23GDALMultiDomainMetadata15SetMetadataItemEPKcS1_S1_
   fun:GDALRegister_SNODAS
   fun:GDALRegister_raw_no_sidecar
   fun:GDALAllRegister
   fun:_ZN11CSimulation27bCheckRasterGISOutputFormatEv
   fun:_ZN11CSimulation13nDoSimulationEiPPKc
   fun:main
}
{
   <insert_a_suppression_name_here>
   Memcheck:Leak
   match-leak-kinds: reachable
   fun:malloc
   fun:VSIMallocVerbose
   fun:_ZN13CPLStringList12AddNameValueEPKcS1_
   fun:_ZN23GDALMultiDomainMetadata15SetMetadataItemEPKcS1_S1_
   fun:GDALRegister_KRO
   fun:GDALRegister_raw_no_sidecar
   fun:GDALAllRegister
   fun:_ZN11CSimulation27bCheckRasterGISOutputFormatEv
   fun:_ZN11CSimulation13nDoSimulationEiPPKc
   fun:main
}
{
   <insert_a_suppression_name_here>
   Memcheck:Leak
   match-leak-kinds: reachable
   fun:malloc
   fun:VSIMallocVerbose
   fun:_ZN13CPLStringList12AddNameValueEPKcS1_
   fun:_ZN23GDALMultiDomainMetadata15SetMetadataItemEPKcS1_S1_
   fun:GDALRegister_ROIPAC
   fun:GDALRegister_raw_no_sidecar
   fun:GDALAllRegister
   fun:_ZN11CSimulation27bCheckRasterGISOutputFormatEv
   fun:_ZN11CSimulation13nDoSimulationEiPPKc
   fun:main
}
{
   <insert_a_suppression_name_here>
   Memcheck:Leak
   match-leak-kinds: reachable
   fun:malloc
   fun:VSIMallocVerbose
   fun:_ZN13CPLStringList12AddNameValueEPKcS1_
   fun:_ZN23GDALMultiDomainMetadata15SetMetadataItemEPKcS1_S1_
   fun:GDALRegister_RRASTER
   fun:GDALRegister_raw_no_sidecar
   fun:GDALAllRegister
   fun:_ZN11CSimulation27bCheckRasterGISOutputFormatEv
   fun:_ZN11CSimulation13nDoSimulationEiPPKc
   fun:main
}
{
   <insert_a_suppression_name_here>
   Memcheck:Leak
   match-leak-kinds: reachable
   fun:malloc
   fun:VSIMallocVerbose
   fun:_ZN13CPLStringList12AddNameValueEPKcS1_
   fun:_ZN23GDALMultiDomainMetadata15SetMetadataItemEPKcS1_S1_
   fun:GDALRegister_BYN
   fun:GDALRegister_raw_no_sidecar
   fun:GDALAllRegister
   fun:_ZN11CSimulation27bCheckRasterGISOutputFormatEv
   fun:_ZN11CSimulation13nDoSimulationEiPPKc
   fun:main
}
{
   <insert_a_suppression_name_here>
   Memcheck:Leak
   match-leak-kinds: reachable
   fun:malloc
   fun:VSIMallocVerbose
   fun:_ZN13CPLStringList12AddNameValueEPKcS1_
   fun:_ZN23GDALMultiDomainMetadata15SetMetadataItemEPKcS1_S1_
   fun:GDALRegister_NOAA_B
   fun:GDALRegister_raw_no_sidecar
   fun:GDALAllRegister
   fun:_ZN11CSimulation27bCheckRasterGISOutputFormatEv
   fun:_ZN11CSimulation13nDoSimulationEiPPKc
   fun:main
}
{
   <insert_a_suppression_name_here>
   Memcheck:Leak
   match-leak-kinds: reachable
   fun:malloc
   fun:VSIMallocVerbose
   fun:_ZN13CPLStringList12AddNameValueEPKcS1_
   fun:_ZN23GDALMultiDomainMetadata15SetMetadataItemEPKcS1_S1_
   fun:GDALRegister_NSIDCbin
   fun:GDALAllRegister
   fun:_ZN11CSimulation27bCheckRasterGISOutputFormatEv
   fun:_ZN11CSimulation13nDoSimulationEiPPKc
   fun:main
}
{
   <insert_a_suppression_name_here>
   Memcheck:Leak
   match-leak-kinds: reachable
   fun:malloc
   fun:VSIMallocVerbose
   fun:_ZN13CPLStringList12AddNameValueEPKcS1_
   fun:_ZN23GDALMultiDomainMetadata15SetMetadataItemEPKcS1_S1_
   fun:GDALRegister_RIK
   fun:GDALAllRegister
   fun:_ZN11CSimulation27bCheckRasterGISOutputFormatEv
   fun:_ZN11CSimulation13nDoSimulationEiPPKc
   fun:main
}
{
   <insert_a_suppression_name_here>
   Memcheck:Leak
   match-leak-kinds: reachable
   fun:malloc
   fun:VSIMallocVerbose
   fun:_ZN13CPLStringList12AddNameValueEPKcS1_
   fun:_ZN23GDALMultiDomainMetadata15SetMetadataItemEPKcS1_S1_
   fun:GDALRegister_USGSDEM
   fun:GDALAllRegister
   fun:_ZN11CSimulation27bCheckRasterGISOutputFormatEv
   fun:_ZN11CSimulation13nDoSimulationEiPPKc
   fun:main
}
{
   <insert_a_suppression_name_here>
   Memcheck:Leak
   match-leak-kinds: reachable
   fun:malloc
   fun:VSIMallocVerbose
   fun:_ZN13CPLStringList12AddNameValueEPKcS1_
   fun:_ZN23GDALMultiDomainMetadata15SetMetadataItemEPKcS1_S1_
   fun:GDALRegister_GXF
   fun:GDALAllRegister
   fun:_ZN11CSimulation27bCheckRasterGISOutputFormatEv
   fun:_ZN11CSimulation13nDoSimulationEiPPKc
   fun:main
}
{
   <insert_a_suppression_name_here>
   Memcheck:Leak
   match-leak-kinds: reachable
   fun:malloc
   fun:VSIMallocVerbose
   fun:_ZN13CPLStringList12AddNameValueEPKcS1_
   fun:_ZN23GDALMultiDomainMetadata15SetMetadataItemEPKcS1_S1_
   fun:GDALRegister_BAG
   fun:GDALAllRegister
   fun:_ZN11CSimulation27bCheckRasterGISOutputFormatEv
   fun:_ZN11CSimulation13nDoSimulationEiPPKc
   fun:main
}
{
   <insert_a_suppression_name_here>
   Memcheck:Leak
   match-leak-kinds: reachable
   fun:malloc
   fun:VSIMallocVerbose
   fun:_ZN13CPLStringList12AddNameValueEPKcS1_
   fun:_ZN23GDALMultiDomainMetadata15SetMetadataItemEPKcS1_S1_
   fun:GDALRegister_S102
   fun:GDALAllRegister
   fun:_ZN11CSimulation27bCheckRasterGISOutputFormatEv
   fun:_ZN11CSimulation13nDoSimulationEiPPKc
   fun:main
}
{
   <insert_a_suppression_name_here>
   Memcheck:Leak
   match-leak-kinds: reachable
   fun:malloc
   fun:VSIMallocVerbose
   fun:_ZN13CPLStringList12AddNameValueEPKcS1_
   fun:_ZN23GDALMultiDomainMetadata15SetMetadataItemEPKcS1_S1_
   fun:GDALRegister_S104
   fun:GDALAllRegister
   fun:_ZN11CSimulation27bCheckRasterGISOutputFormatEv
   fun:_ZN11CSimulation13nDoSimulationEiPPKc
   fun:main
}
{
   <insert_a_suppression_name_here>
   Memcheck:Leak
   match-leak-kinds: reachable
   fun:malloc
   fun:VSIMallocVerbose
   fun:_ZN13CPLStringList12AddNameValueEPKcS1_
   fun:_ZN23GDALMultiDomainMetadata15SetMetadataItemEPKcS1_S1_
   fun:GDALRegister_S111
   fun:GDALAllRegister
   fun:_ZN11CSimulation27bCheckRasterGISOutputFormatEv
   fun:_ZN11CSimulation13nDoSimulationEiPPKc
   fun:main
}
{
   <insert_a_suppression_name_here>
   Memcheck:Leak
   match-leak-kinds: reachable
   fun:malloc
   fun:VSIMallocVerbose
   fun:_ZN13CPLStringList12AddNameValueEPKcS1_
   fun:_ZN23GDALMultiDomainMetadata15SetMetadataItemEPKcS1_S1_
   fun:GDALRegister_HDF5
   fun:GDALAllRegister
   fun:_ZN11CSimulation27bCheckRasterGISOutputFormatEv
   fun:_ZN11CSimulation13nDoSimulationEiPPKc
   fun:main
}
{
   <insert_a_suppression_name_here>
   Memcheck:Leak
   match-leak-kinds: reachable
   fun:malloc
   fun:VSIMallocVerbose
   fun:_ZN13CPLStringList12AddNameValueEPKcS1_
   fun:_ZN23GDALMultiDomainMetadata15SetMetadataItemEPKcS1_S1_
   fun:GDALRegister_HDF5Image
   fun:GDALAllRegister
   fun:_ZN11CSimulation27bCheckRasterGISOutputFormatEv
   fun:_ZN11CSimulation13nDoSimulationEiPPKc
   fun:main
}
{
   <insert_a_suppression_name_here>
   Memcheck:Leak
   match-leak-kinds: reachable
   fun:malloc
   fun:VSIMallocVerbose
   fun:_ZN13CPLStringList12AddNameValueEPKcS1_
   fun:_ZN23GDALMultiDomainMetadata15SetMetadataItemEPKcS1_S1_
   fun:GDALRegister_NWT_GRD
   fun:GDALAllRegister
   fun:_ZN11CSimulation27bCheckRasterGISOutputFormatEv
   fun:_ZN11CSimulation13nDoSimulationEiPPKc
   fun:main
}
{
   <insert_a_suppression_name_here>
   Memcheck:Leak
   match-leak-kinds: reachable
   fun:malloc
   fun:VSIMallocVerbose
   fun:_ZN13CPLStringList12AddNameValueEPKcS1_
   fun:_ZN23GDALMultiDomainMetadata15SetMetadataItemEPKcS1_S1_
   fun:GDALRegister_NWT_GRC
   fun:GDALAllRegister
   fun:_ZN11CSimulation27bCheckRasterGISOutputFormatEv
   fun:_ZN11CSimulation13nDoSimulationEiPPKc
   fun:main
}
{
   <insert_a_suppression_name_here>
   Memcheck:Leak
   match-leak-kinds: reachable
   fun:malloc
   fun:VSIMallocVerbose
   fun:_ZN13CPLStringList12AddNameValueEPKcS1_
   fun:_ZN23GDALMultiDomainMetadata15SetMetadataItemEPKcS1_S1_
   fun:GDALRegister_ADRG
   fun:GDALAllRegister
   fun:_ZN11CSimulation27bCheckRasterGISOutputFormatEv
   fun:_ZN11CSimulation13nDoSimulationEiPPKc
   fun:main
}
{
   <insert_a_suppression_name_here>
   Memcheck:Leak
   match-leak-kinds: reachable
   fun:malloc
   fun:VSIMallocVerbose
   fun:_ZN13CPLStringList12AddNameValueEPKcS1_
   fun:_ZN23GDALMultiDomainMetadata15SetMetadataItemEPKcS1_S1_
   fun:GDALRegister_SRP
   fun:GDALAllRegister
   fun:_ZN11CSimulation27bCheckRasterGISOutputFormatEv
   fun:_ZN11CSimulation13nDoSimulationEiPPKc
   fun:main
}
{
   <insert_a_suppression_name_here>
   Memcheck:Leak
   match-leak-kinds: reachable
   fun:malloc
   fun:VSIMallocVerbose
   fun:_ZN13CPLStringList12AddNameValueEPKcS1_
   fun:_ZN23GDALMultiDomainMetadata15SetMetadataItemEPKcS1_S1_
   fun:GDALRegister_BLX
   fun:GDALAllRegister
   fun:_ZN11CSimulation27bCheckRasterGISOutputFormatEv
   fun:_ZN11CSimulation13nDoSimulationEiPPKc
   fun:main
}
{
   <insert_a_suppression_name_here>
   Memcheck:Leak
   match-leak-kinds: reachable
   fun:malloc
   fun:VSIMallocVerbose
   fun:_ZN13CPLStringList12AddNameValueEPKcS1_
   fun:_ZN23GDALMultiDomainMetadata15SetMetadataItemEPKcS1_S1_
   fun:GDALRegister_PostGISRaster
   fun:GDALAllRegister
   fun:_ZN11CSimulation27bCheckRasterGISOutputFormatEv
   fun:_ZN11CSimulation13nDoSimulationEiPPKc
   fun:main
}
{
   <insert_a_suppression_name_here>
   Memcheck:Leak
   match-leak-kinds: reachable
   fun:malloc
   fun:VSIMallocVerbose
   fun:_ZN13CPLStringList12AddNameValueEPKcS1_
   fun:_ZN23GDALMultiDomainMetadata15SetMetadataItemEPKcS1_S1_
   fun:GDALRegister_SAGA
   fun:GDALAllRegister
   fun:_ZN11CSimulation27bCheckRasterGISOutputFormatEv
   fun:_ZN11CSimulation13nDoSimulationEiPPKc
   fun:main
}
{
   <insert_a_suppression_name_here>
   Memcheck:Leak
   match-leak-kinds: reachable
   fun:malloc
   fun:VSIMallocVerbose
   fun:_ZN13CPLStringList12AddNameValueEPKcS1_
   fun:_ZN23GDALMultiDomainMetadata15SetMetadataItemEPKcS1_S1_
   fun:GDALRegister_XYZ
   fun:GDALAllRegister
   fun:_ZN11CSimulation27bCheckRasterGISOutputFormatEv
   fun:_ZN11CSimulation13nDoSimulationEiPPKc
   fun:main
}
{
   <insert_a_suppression_name_here>
   Memcheck:Leak
   match-leak-kinds: reachable
   fun:malloc
   fun:VSIMallocVerbose
   fun:_ZN13CPLStringList12AddNameValueEPKcS1_
   fun:_ZN23GDALMultiDomainMetadata15SetMetadataItemEPKcS1_S1_
   fun:GDALRegister_HF2
   fun:GDALAllRegister
   fun:_ZN11CSimulation27bCheckRasterGISOutputFormatEv
   fun:_ZN11CSimulation13nDoSimulationEiPPKc
   fun:main
}
{
   <insert_a_suppression_name_here>
   Memcheck:Leak
   match-leak-kinds: reachable
   fun:malloc
   fun:VSIMallocVerbose
   fun:_ZN13CPLStringList12AddNameValueEPKcS1_
   fun:_ZN23GDALMultiDomainMetadata15SetMetadataItemEPKcS1_S1_
   fun:GDALRegister_OZI
   fun:GDALAllRegister
   fun:_ZN11CSimulation27bCheckRasterGISOutputFormatEv
   fun:_ZN11CSimulation13nDoSimulationEiPPKc
   fun:main
}
{
   <insert_a_suppression_name_here>
   Memcheck:Leak
   match-leak-kinds: reachable
   fun:malloc
   fun:VSIMallocVerbose
   fun:_ZN13CPLStringList12AddNameValueEPKcS1_
   fun:_ZN23GDALMultiDomainMetadata15SetMetadataItemEPKcS1_S1_
   fun:GDALRegister_CTG
   fun:GDALAllRegister
   fun:_ZN11CSimulation27bCheckRasterGISOutputFormatEv
   fun:_ZN11CSimulation13nDoSimulationEiPPKc
   fun:main
}
{
   <insert_a_suppression_name_here>
   Memcheck:Leak
   match-leak-kinds: reachable
   fun:malloc
   fun:VSIMallocVerbose
   fun:_ZN13CPLStringList12AddNameValueEPKcS1_
   fun:_ZN23GDALMultiDomainMetadata15SetMetadataItemEPKcS1_S1_
   fun:GDALRegister_ZMap
   fun:GDALAllRegister
   fun:_ZN11CSimulation27bCheckRasterGISOutputFormatEv
   fun:_ZN11CSimulation13nDoSimulationEiPPKc
   fun:main
}
{
   <insert_a_suppression_name_here>
   Memcheck:Leak
   match-leak-kinds: reachable
   fun:malloc
   fun:VSIMallocVerbose
   fun:_ZN13CPLStringList12AddNameValueEPKcS1_
   fun:_ZN23GDALMultiDomainMetadata15SetMetadataItemEPKcS1_S1_
   fun:GDALRegister_NGSGEOID
   fun:GDALAllRegister
   fun:_ZN11CSimulation27bCheckRasterGISOutputFormatEv
   fun:_ZN11CSimulation13nDoSimulationEiPPKc
   fun:main
}
{
   <insert_a_suppression_name_here>
   Memcheck:Leak
   match-leak-kinds: reachable
   fun:malloc
   fun:VSIMallocVerbose
   fun:_ZN13CPLStringList12AddNameValueEPKcS1_
   fun:_ZN23GDALMultiDomainMetadata15SetMetadataItemEPKcS1_S1_
   fun:GDALRegister_IRIS
   fun:GDALAllRegister
   fun:_ZN11CSimulation27bCheckRasterGISOutputFormatEv
   fun:_ZN11CSimulation13nDoSimulationEiPPKc
   fun:main
}
{
   <insert_a_suppression_name_here>
   Memcheck:Leak
   match-leak-kinds: reachable
   fun:malloc
   fun:VSIMallocVerbose
   fun:_ZN13CPLStringList12AddNameValueEPKcS1_
   fun:_ZN23GDALMultiDomainMetadata15SetMetadataItemEPKcS1_S1_
   fun:GDALRegister_PRF
   fun:GDALAllRegister
   fun:_ZN11CSimulation27bCheckRasterGISOutputFormatEv
   fun:_ZN11CSimulation13nDoSimulationEiPPKc
   fun:main
}
{
   <insert_a_suppression_name_here>
   Memcheck:Leak
   match-leak-kinds: reachable
   fun:malloc
   fun:VSIMallocVerbose
   fun:_ZN13CPLStringList12AddNameValueEPKcS1_
   fun:_ZN23GDALMultiDomainMetadata15SetMetadataItemEPKcS1_S1_
   fun:GDALRegister_EEDAI
   fun:GDALAllRegister
   fun:_ZN11CSimulation27bCheckRasterGISOutputFormatEv
   fun:_ZN11CSimulation13nDoSimulationEiPPKc
   fun:main
}
{
   <insert_a_suppression_name_here>
   Memcheck:Leak
   match-leak-kinds: reachable
   fun:malloc
   fun:VSIMallocVerbose
   fun:_ZN13CPLStringList12AddNameValueEPKcS1_
   fun:_ZN23GDALMultiDomainMetadata15SetMetadataItemEPKcS1_S1_
   fun:GDALRegister_EEDA
   fun:GDALAllRegister
   fun:_ZN11CSimulation27bCheckRasterGISOutputFormatEv
   fun:_ZN11CSimulation13nDoSimulationEiPPKc
   fun:main
}
{
   <insert_a_suppression_name_here>
   Memcheck:Leak
   match-leak-kinds: reachable
   fun:malloc
   fun:VSIMallocVerbose
   fun:_ZN13CPLStringList12AddNameValueEPKcS1_
   fun:_ZN23GDALMultiDomainMetadata15SetMetadataItemEPKcS1_S1_
   fun:GDALRegister_DAAS
   fun:GDALAllRegister
   fun:_ZN11CSimulation27bCheckRasterGISOutputFormatEv
   fun:_ZN11CSimulation13nDoSimulationEiPPKc
   fun:main
}
{
   <insert_a_suppression_name_here>
   Memcheck:Leak
   match-leak-kinds: reachable
   fun:malloc
   fun:VSIMallocVerbose
   fun:_ZN13CPLStringList12AddNameValueEPKcS1_
   fun:_ZN23GDALMultiDomainMetadata15SetMetadataItemEPKcS1_S1_
   fun:GDALRegister_SIGDEM
   fun:GDALAllRegister
   fun:_ZN11CSimulation27bCheckRasterGISOutputFormatEv
   fun:_ZN11CSimulation13nDoSimulationEiPPKc
   fun:main
}
{
   <insert_a_suppression_name_here>
   Memcheck:Leak
   match-leak-kinds: reachable
   fun:malloc
   fun:VSIMallocVerbose
   fun:_ZN13CPLStringList12AddNameValueEPKcS1_
   fun:_ZN23GDALMultiDomainMetadata15SetMetadataItemEPKcS1_S1_
   fun:GDALRegister_AVIF
   fun:GDALAllRegister
   fun:_ZN11CSimulation27bCheckRasterGISOutputFormatEv
   fun:_ZN11CSimulation13nDoSimulationEiPPKc
   fun:main
}
{
   <insert_a_suppression_name_here>
   Memcheck:Leak
   match-leak-kinds: reachable
   fun:malloc
   fun:VSIMallocVerbose
   fun:_ZN13CPLStringList12AddNameValueEPKcS1_
   fun:_ZN23GDALMultiDomainMetadata15SetMetadataItemEPKcS1_S1_
   fun:GDALRegister_HEIF
   fun:GDALAllRegister
   fun:_ZN11CSimulation27bCheckRasterGISOutputFormatEv
   fun:_ZN11CSimulation13nDoSimulationEiPPKc
   fun:main
}
{
   <insert_a_suppression_name_here>
   Memcheck:Leak
   match-leak-kinds: reachable
   fun:malloc
   fun:VSIMallocVerbose
   fun:_ZN13CPLStringList12AddNameValueEPKcS1_
   fun:_ZN23GDALMultiDomainMetadata15SetMetadataItemEPKcS1_S1_
   fun:GDALRegister_TGA
   fun:GDALAllRegister
   fun:_ZN11CSimulation27bCheckRasterGISOutputFormatEv
   fun:_ZN11CSimulation13nDoSimulationEiPPKc
   fun:main
}
{
   <insert_a_suppression_name_here>
   Memcheck:Leak
   match-leak-kinds: reachable
   fun:malloc
   fun:VSIMallocVerbose
   fun:_ZN13CPLStringList12AddNameValueEPKcS1_
   fun:_ZN23GDALMultiDomainMetadata15SetMetadataItemEPKcS1_S1_
   fun:GDALRegister_OGCAPI
   fun:GDALAllRegister
   fun:_ZN11CSimulation27bCheckRasterGISOutputFormatEv
   fun:_ZN11CSimulation13nDoSimulationEiPPKc
   fun:main
}
{
   <insert_a_suppression_name_here>
   Memcheck:Leak
   match-leak-kinds: reachable
   fun:malloc
   fun:VSIMallocVerbose
   fun:_ZN13CPLStringList12AddNameValueEPKcS1_
   fun:_ZN23GDALMultiDomainMetadata15SetMetadataItemEPKcS1_S1_
   fun:GDALRegister_STACTA
   fun:GDALAllRegister
   fun:_ZN11CSimulation27bCheckRasterGISOutputFormatEv
   fun:_ZN11CSimulation13nDoSimulationEiPPKc
   fun:main
}
{
   <insert_a_suppression_name_here>
   Memcheck:Leak
   match-leak-kinds: reachable
   fun:malloc
   fun:VSIMallocVerbose
   fun:_ZN13CPLStringList12AddNameValueEPKcS1_
   fun:_ZN23GDALMultiDomainMetadata15SetMetadataItemEPKcS1_S1_
   fun:GDALRegister_STACIT
   fun:GDALAllRegister
   fun:_ZN11CSimulation27bCheckRasterGISOutputFormatEv
   fun:_ZN11CSimulation13nDoSimulationEiPPKc
   fun:main
}
{
   <insert_a_suppression_name_here>
   Memcheck:Leak
   match-leak-kinds: reachable
   fun:malloc
   fun:VSIMallocVerbose
   fun:_ZN13CPLStringList12AddNameValueEPKcS1_
   fun:_ZN23GDALMultiDomainMetadata15SetMetadataItemEPKcS1_S1_
   fun:RegisterOGRShape
   fun:GDALAllRegister
   fun:_ZN11CSimulation27bCheckRasterGISOutputFormatEv
   fun:_ZN11CSimulation13nDoSimulationEiPPKc
   fun:main
}
{
   <insert_a_suppression_name_here>
   Memcheck:Leak
   match-leak-kinds: reachable
   fun:malloc
   fun:VSIMallocVerbose
   fun:_ZN13CPLStringList12AddNameValueEPKcS1_
   fun:_ZN23GDALMultiDomainMetadata15SetMetadataItemEPKcS1_S1_
   fun:RegisterOGRTAB
   fun:GDALAllRegister
   fun:_ZN11CSimulation27bCheckRasterGISOutputFormatEv
   fun:_ZN11CSimulation13nDoSimulationEiPPKc
   fun:main
}
{
   <insert_a_suppression_name_here>
   Memcheck:Leak
   match-leak-kinds: reachable
   fun:malloc
   fun:VSIMallocVerbose
   fun:_ZN13CPLStringList12AddNameValueEPKcS1_
   fun:_ZN23GDALMultiDomainMetadata15SetMetadataItemEPKcS1_S1_
   fun:RegisterOGRNTF
   fun:GDALAllRegister
   fun:_ZN11CSimulation27bCheckRasterGISOutputFormatEv
   fun:_ZN11CSimulation13nDoSimulationEiPPKc
   fun:main
}
{
   <insert_a_suppression_name_here>
   Memcheck:Leak
   match-leak-kinds: reachable
   fun:malloc
   fun:VSIMallocVerbose
   fun:_ZN13CPLStringList12AddNameValueEPKcS1_
   fun:_ZN23GDALMultiDomainMetadata15SetMetadataItemEPKcS1_S1_
   fun:RegisterOGRLVBAG
   fun:GDALAllRegister
   fun:_ZN11CSimulation27bCheckRasterGISOutputFormatEv
   fun:_ZN11CSimulation13nDoSimulationEiPPKc
   fun:main
}
{
   <insert_a_suppression_name_here>
   Memcheck:Leak
   match-leak-kinds: reachable
   fun:malloc
   fun:VSIMallocVerbose
   fun:_ZN13CPLStringList12AddNameValueEPKcS1_
   fun:_ZN23GDALMultiDomainMetadata15SetMetadataItemEPKcS1_S1_
   fun:RegisterOGRSDTS
   fun:GDALAllRegister
   fun:_ZN11CSimulation27bCheckRasterGISOutputFormatEv
   fun:_ZN11CSimulation13nDoSimulationEiPPKc
   fun:main
}
{
   <insert_a_suppression_name_here>
   Memcheck:Leak
   match-leak-kinds: reachable
   fun:malloc
   fun:VSIMallocVerbose
   fun:_ZN13CPLStringList12AddNameValueEPKcS1_
   fun:_ZN23GDALMultiDomainMetadata15SetMetadataItemEPKcS1_S1_
   fun:RegisterOGRS57
   fun:GDALAllRegister
   fun:_ZN11CSimulation27bCheckRasterGISOutputFormatEv
   fun:_ZN11CSimulation13nDoSimulationEiPPKc
   fun:main
}
{
   <insert_a_suppression_name_here>
   Memcheck:Leak
   match-leak-kinds: reachable
   fun:malloc
   fun:VSIMallocVerbose
   fun:_ZN13CPLStringList12AddNameValueEPKcS1_
   fun:_ZN23GDALMultiDomainMetadata15SetMetadataItemEPKcS1_S1_
   fun:RegisterOGRDGN
   fun:GDALAllRegister
   fun:_ZN11CSimulation27bCheckRasterGISOutputFormatEv
   fun:_ZN11CSimulation13nDoSimulationEiPPKc
   fun:main
}
{
   <insert_a_suppression_name_here>
   Memcheck:Leak
   match-leak-kinds: reachable
   fun:malloc
   fun:VSIMallocVerbose
   fun:_ZN13CPLStringList12AddNameValueEPKcS1_
   fun:_ZN23GDALMultiDomainMetadata15SetMetadataItemEPKcS1_S1_
   fun:RegisterOGRVRT
   fun:GDALAllRegister
   fun:_ZN11CSimulation27bCheckRasterGISOutputFormatEv
   fun:_ZN11CSimulation13nDoSimulationEiPPKc
   fun:main
}
{
   <insert_a_suppression_name_here>
   Memcheck:Leak
   match-leak-kinds: reachable
   fun:malloc
   fun:VSIMallocVerbose
   fun:_ZN13CPLStringList12AddNameValueEPKcS1_
   fun:_ZN23GDALMultiDomainMetadata15SetMetadataItemEPKcS1_S1_
   fun:RegisterOGRMEM
   fun:GDALAllRegister
   fun:_ZN11CSimulation27bCheckRasterGISOutputFormatEv
   fun:_ZN11CSimulation13nDoSimulationEiPPKc
   fun:main
}
{
   <insert_a_suppression_name_here>
   Memcheck:Leak
   match-leak-kinds: reachable
   fun:malloc
   fun:VSIMallocVerbose
   fun:_ZN13CPLStringList12AddNameValueEPKcS1_
   fun:_ZN23GDALMultiDomainMetadata15SetMetadataItemEPKcS1_S1_
   fun:RegisterOGRCSV
   fun:GDALAllRegister
   fun:_ZN11CSimulation27bCheckRasterGISOutputFormatEv
   fun:_ZN11CSimulation13nDoSimulationEiPPKc
   fun:main
}
{
   <insert_a_suppression_name_here>
   Memcheck:Leak
   match-leak-kinds: reachable
   fun:malloc
   fun:VSIMallocVerbose
   fun:_ZN13CPLStringList12AddNameValueEPKcS1_
   fun:_ZN23GDALMultiDomainMetadata15SetMetadataItemEPKcS1_S1_
   fun:RegisterOGRNAS
   fun:GDALAllRegister
   fun:_ZN11CSimulation27bCheckRasterGISOutputFormatEv
   fun:_ZN11CSimulation13nDoSimulationEiPPKc
   fun:main
}
{
   <insert_a_suppression_name_here>
   Memcheck:Leak
   match-leak-kinds: reachable
   fun:malloc
   fun:VSIMallocVerbose
   fun:_ZN13CPLStringList12AddNameValueEPKcS1_
   fun:_ZN23GDALMultiDomainMetadata15SetMetadataItemEPKcS1_S1_
   fun:RegisterOGRGML
   fun:GDALAllRegister
   fun:_ZN11CSimulation27bCheckRasterGISOutputFormatEv
   fun:_ZN11CSimulation13nDoSimulationEiPPKc
   fun:main
}
{
   <insert_a_suppression_name_here>
   Memcheck:Leak
   match-leak-kinds: reachable
   fun:malloc
   fun:VSIMallocVerbose
   fun:_ZN13CPLStringList12AddNameValueEPKcS1_
   fun:_ZN23GDALMultiDomainMetadata15SetMetadataItemEPKcS1_S1_
   fun:RegisterOGRGPX
   fun:GDALAllRegister
   fun:_ZN11CSimulation27bCheckRasterGISOutputFormatEv
   fun:_ZN11CSimulation13nDoSimulationEiPPKc
   fun:main
}
{
   <insert_a_suppression_name_here>
   Memcheck:Leak
   match-leak-kinds: reachable
   fun:malloc
   fun:VSIMallocVerbose
   fun:_ZN13CPLStringList12AddNameValueEPKcS1_
   fun:_ZN23GDALMultiDomainMetadata15SetMetadataItemEPKcS1_S1_
   fun:RegisterOGRLIBKML
   fun:GDALAllRegister
   fun:_ZN11CSimulation27bCheckRasterGISOutputFormatEv
   fun:_ZN11CSimulation13nDoSimulationEiPPKc
   fun:main
}
{
   <insert_a_suppression_name_here>
   Memcheck:Leak
   match-leak-kinds: reachable
   fun:malloc
   fun:VSIMallocVerbose
   fun:_ZN13CPLStringList12AddNameValueEPKcS1_
   fun:_ZN23GDALMultiDomainMetadata15SetMetadataItemEPKcS1_S1_
   fun:RegisterOGRKML
   fun:GDALAllRegister
   fun:_ZN11CSimulation27bCheckRasterGISOutputFormatEv
   fun:_ZN11CSimulation13nDoSimulationEiPPKc
   fun:main
}
{
   <insert_a_suppression_name_here>
   Memcheck:Leak
   match-leak-kinds: reachable
   fun:malloc
   fun:VSIMallocVerbose
   fun:_ZN13CPLStringList12AddNameValueEPKcS1_
   fun:_ZN23GDALMultiDomainMetadata15SetMetadataItemEPKcS1_S1_
   fun:RegisterOGRGeoJSON
   fun:GDALAllRegister
   fun:_ZN11CSimulation27bCheckRasterGISOutputFormatEv
   fun:_ZN11CSimulation13nDoSimulationEiPPKc
   fun:main
}
{
   <insert_a_suppression_name_here>
   Memcheck:Leak
   match-leak-kinds: reachable
   fun:malloc
   fun:VSIMallocVerbose
   fun:_ZN13CPLStringList12AddNameValueEPKcS1_
   fun:_ZN23GDALMultiDomainMetadata15SetMetadataItemEPKcS1_S1_
   fun:RegisterOGRGeoJSONSeq
   fun:GDALAllRegister
   fun:_ZN11CSimulation27bCheckRasterGISOutputFormatEv
   fun:_ZN11CSimulation13nDoSimulationEiPPKc
   fun:main
}
{
   <insert_a_suppression_name_here>
   Memcheck:Leak
   match-leak-kinds: reachable
   fun:malloc
   fun:VSIMallocVerbose
   fun:_ZN13CPLStringList12AddNameValueEPKcS1_
   fun:_ZN23GDALMultiDomainMetadata15SetMetadataItemEPKcS1_S1_
   fun:RegisterOGRESRIJSON
   fun:GDALAllRegister
   fun:_ZN11CSimulation27bCheckRasterGISOutputFormatEv
   fun:_ZN11CSimulation13nDoSimulationEiPPKc
   fun:main
}
{
   <insert_a_suppression_name_here>
   Memcheck:Leak
   match-leak-kinds: reachable
   fun:malloc
   fun:VSIMallocVerbose
   fun:_ZN13CPLStringList12AddNameValueEPKcS1_
   fun:_ZN23GDALMultiDomainMetadata15SetMetadataItemEPKcS1_S1_
   fun:RegisterOGRTopoJSON
   fun:GDALAllRegister
   fun:_ZN11CSimulation27bCheckRasterGISOutputFormatEv
   fun:_ZN11CSimulation13nDoSimulationEiPPKc
   fun:main
}
{
   <insert_a_suppression_name_here>
   Memcheck:Leak
   match-leak-kinds: reachable
   fun:malloc
   fun:VSIMallocVerbose
   fun:_ZN13CPLStringList12AddNameValueEPKcS1_
   fun:_ZN23GDALMultiDomainMetadata15SetMetadataItemEPKcS1_S1_
   fun:RegisterOGRILI1
   fun:GDALAllRegister
   fun:_ZN11CSimulation27bCheckRasterGISOutputFormatEv
   fun:_ZN11CSimulation13nDoSimulationEiPPKc
   fun:main
}
{
   <insert_a_suppression_name_here>
   Memcheck:Leak
   match-leak-kinds: reachable
   fun:malloc
   fun:VSIMallocVerbose
   fun:_ZN13CPLStringList12AddNameValueEPKcS1_
   fun:_ZN23GDALMultiDomainMetadata15SetMetadataItemEPKcS1_S1_
   fun:RegisterOGRILI2
   fun:GDALAllRegister
   fun:_ZN11CSimulation27bCheckRasterGISOutputFormatEv
   fun:_ZN11CSimulation13nDoSimulationEiPPKc
   fun:main
}
{
   <insert_a_suppression_name_here>
   Memcheck:Leak
   match-leak-kinds: reachable
   fun:malloc
   fun:VSIMallocVerbose
   fun:_ZN13CPLStringList12AddNameValueEPKcS1_
   fun:_ZN23GDALMultiDomainMetadata15SetMetadataItemEPKcS1_S1_
   fun:RegisterOGRGMT
   fun:GDALAllRegister
   fun:_ZN11CSimulation27bCheckRasterGISOutputFormatEv
   fun:_ZN11CSimulation13nDoSimulationEiPPKc
   fun:main
}
{
   <insert_a_suppression_name_here>
   Memcheck:Leak
   match-leak-kinds: reachable
   fun:malloc
   fun:VSIMallocVerbose
   fun:_ZN13CPLStringList12AddNameValueEPKcS1_
   fun:_ZN23GDALMultiDomainMetadata15SetMetadataItemEPKcS1_S1_
   fun:RegisterOGRGeoPackage
   fun:GDALAllRegister
   fun:_ZN11CSimulation27bCheckRasterGISOutputFormatEv
   fun:_ZN11CSimulation13nDoSimulationEiPPKc
   fun:main
}
{
   <insert_a_suppression_name_here>
   Memcheck:Leak
   match-leak-kinds: reachable
   fun:malloc
   fun:VSIMallocVerbose
   fun:_ZN13CPLStringList12AddNameValueEPKcS1_
   fun:_ZN23GDALMultiDomainMetadata15SetMetadataItemEPKcS1_S1_
   fun:RegisterOGRSQLite
   fun:GDALAllRegister
   fun:_ZN11CSimulation27bCheckRasterGISOutputFormatEv
   fun:_ZN11CSimulation13nDoSimulationEiPPKc
   fun:main
}
{
   <insert_a_suppression_name_here>
   Memcheck:Leak
   match-leak-kinds: reachable
   fun:malloc
   fun:VSIMallocVerbose
   fun:_ZN13CPLStringList12AddNameValueEPKcS1_
   fun:_ZN23GDALMultiDomainMetadata15SetMetadataItemEPKcS1_S1_
   fun:RegisterOGRODBC
   fun:GDALAllRegister
   fun:_ZN11CSimulation27bCheckRasterGISOutputFormatEv
   fun:_ZN11CSimulation13nDoSimulationEiPPKc
   fun:main
}
{
   <insert_a_suppression_name_here>
   Memcheck:Leak
   match-leak-kinds: reachable
   fun:malloc
   fun:VSIMallocVerbose
   fun:_ZN13CPLStringList12AddNameValueEPKcS1_
   fun:_ZN23GDALMultiDomainMetadata15SetMetadataItemEPKcS1_S1_
   fun:RegisterOGRWAsP
   fun:GDALAllRegister
   fun:_ZN11CSimulation27bCheckRasterGISOutputFormatEv
   fun:_ZN11CSimulation13nDoSimulationEiPPKc
   fun:main
}
{
   <insert_a_suppression_name_here>
   Memcheck:Leak
   match-leak-kinds: reachable
   fun:malloc
   fun:VSIMallocVerbose
   fun:_ZN13CPLStringList12AddNameValueEPKcS1_
   fun:_ZN23GDALMultiDomainMetadata15SetMetadataItemEPKcS1_S1_
   fun:RegisterOGRPGeo
   fun:GDALAllRegister
   fun:_ZN11CSimulation27bCheckRasterGISOutputFormatEv
   fun:_ZN11CSimulation13nDoSimulationEiPPKc
   fun:main
}
{
   <insert_a_suppression_name_here>
   Memcheck:Leak
   match-leak-kinds: reachable
   fun:malloc
   fun:VSIMallocVerbose
   fun:_ZN13CPLStringList12AddNameValueEPKcS1_
   fun:_ZN23GDALMultiDomainMetadata15SetMetadataItemEPKcS1_S1_
   fun:RegisterOGRMSSQLSpatial
   fun:GDALAllRegister
   fun:_ZN11CSimulation27bCheckRasterGISOutputFormatEv
   fun:_ZN11CSimulation13nDoSimulationEiPPKc
   fun:main
}
{
   <insert_a_suppression_name_here>
   Memcheck:Leak
   match-leak-kinds: reachable
   fun:malloc
   fun:VSIMallocVerbose
   fun:_ZN13CPLStringList12AddNameValueEPKcS1_
   fun:_ZN23GDALMultiDomainMetadata15SetMetadataItemEPKcS1_S1_
   fun:RegisterOGROGDI
   fun:GDALAllRegister
   fun:_ZN11CSimulation27bCheckRasterGISOutputFormatEv
   fun:_ZN11CSimulation13nDoSimulationEiPPKc
   fun:main
}
{
   <insert_a_suppression_name_here>
   Memcheck:Leak
   match-leak-kinds: reachable
   fun:malloc
   fun:VSIMallocVerbose
   fun:_ZN13CPLStringList12AddNameValueEPKcS1_
   fun:_ZN23GDALMultiDomainMetadata15SetMetadataItemEPKcS1_S1_
   fun:RegisterOGRPG
   fun:GDALAllRegister
   fun:_ZN11CSimulation27bCheckRasterGISOutputFormatEv
   fun:_ZN11CSimulation13nDoSimulationEiPPKc
   fun:main
}
{
   <insert_a_suppression_name_here>
   Memcheck:Leak
   match-leak-kinds: reachable
   fun:malloc
   fun:VSIMallocVerbose
   fun:_ZN13CPLStringList12AddNameValueEPKcS1_
   fun:_ZN23GDALMultiDomainMetadata15SetMetadataItemEPKcS1_S1_
   fun:RegisterOGRMySQL
   fun:GDALAllRegister
   fun:_ZN11CSimulation27bCheckRasterGISOutputFormatEv
   fun:_ZN11CSimulation13nDoSimulationEiPPKc
   fun:main
}
{
   <insert_a_suppression_name_here>
   Memcheck:Leak
   match-leak-kinds: reachable
   fun:malloc
   fun:VSIMallocVerbose
   fun:_ZN13CPLStringList12AddNameValueEPKcS1_
   fun:_ZN23GDALMultiDomainMetadata15SetMetadataItemEPKcS1_S1_
   fun:RegisterOGROpenFileGDB
   fun:GDALAllRegister
   fun:_ZN11CSimulation27bCheckRasterGISOutputFormatEv
   fun:_ZN11CSimulation13nDoSimulationEiPPKc
   fun:main
}
{
   <insert_a_suppression_name_here>
   Memcheck:Leak
   match-leak-kinds: reachable
   fun:malloc
   fun:VSIMallocVerbose
   fun:_ZN13CPLStringList12AddNameValueEPKcS1_
   fun:_ZN23GDALMultiDomainMetadata15SetMetadataItemEPKcS1_S1_
   fun:RegisterOGRDXF
   fun:GDALAllRegister
   fun:_ZN11CSimulation27bCheckRasterGISOutputFormatEv
   fun:_ZN11CSimulation13nDoSimulationEiPPKc
   fun:main
}
{
   <insert_a_suppression_name_here>
   Memcheck:Leak
   match-leak-kinds: reachable
   fun:malloc
   fun:VSIMallocVerbose
   fun:_ZN13CPLStringList12AddNameValueEPKcS1_
   fun:_ZN23GDALMultiDomainMetadata15SetMetadataItemEPKcS1_S1_
   fun:RegisterOGRCAD
   fun:GDALAllRegister
   fun:_ZN11CSimulation27bCheckRasterGISOutputFormatEv
   fun:_ZN11CSimulation13nDoSimulationEiPPKc
   fun:main
}
{
   <insert_a_suppression_name_here>
   Memcheck:Leak
   match-leak-kinds: reachable
   fun:malloc
   fun:VSIMallocVerbose
   fun:_ZN13CPLStringList12AddNameValueEPKcS1_
   fun:_ZN23GDALMultiDomainMetadata15SetMetadataItemEPKcS1_S1_
   fun:RegisterOGRFlatGeobuf
   fun:GDALAllRegister
   fun:_ZN11CSimulation27bCheckRasterGISOutputFormatEv
   fun:_ZN11CSimulation13nDoSimulationEiPPKc
   fun:main
}
{
   <insert_a_suppression_name_here>
   Memcheck:Leak
   match-leak-kinds: reachable
   fun:malloc
   fun:VSIMallocVerbose
   fun:_ZN13CPLStringList12AddNameValueEPKcS1_
   fun:_ZN23GDALMultiDomainMetadata15SetMetadataItemEPKcS1_S1_
   fun:RegisterOGRGeoconcept
   fun:GDALAllRegister
   fun:_ZN11CSimulation27bCheckRasterGISOutputFormatEv
   fun:_ZN11CSimulation13nDoSimulationEiPPKc
   fun:main
}
{
   <insert_a_suppression_name_here>
   Memcheck:Leak
   match-leak-kinds: reachable
   fun:malloc
   fun:VSIMallocVerbose
   fun:_ZN13CPLStringList12AddNameValueEPKcS1_
   fun:_ZN23GDALMultiDomainMetadata15SetMetadataItemEPKcS1_S1_
   fun:RegisterOGRGeoRSS
   fun:GDALAllRegister
   fun:_ZN11CSimulation27bCheckRasterGISOutputFormatEv
   fun:_ZN11CSimulation13nDoSimulationEiPPKc
   fun:main
}
{
   <insert_a_suppression_name_here>
   Memcheck:Leak
   match-leak-kinds: reachable
   fun:malloc
   fun:VSIMallocVerbose
   fun:_ZN13CPLStringList12AddNameValueEPKcS1_
   fun:_ZN23GDALMultiDomainMetadata15SetMetadataItemEPKcS1_S1_
   fun:RegisterOGRVFK
   fun:GDALAllRegister
   fun:_ZN11CSimulation27bCheckRasterGISOutputFormatEv
   fun:_ZN11CSimulation13nDoSimulationEiPPKc
   fun:main
}
{
   <insert_a_suppression_name_here>
   Memcheck:Leak
   match-leak-kinds: reachable
   fun:malloc
   fun:VSIMallocVerbose
   fun:_ZN13CPLStringList12AddNameValueEPKcS1_
   fun:_ZN23GDALMultiDomainMetadata15SetMetadataItemEPKcS1_S1_
   fun:RegisterOGRPGDump
   fun:GDALAllRegister
   fun:_ZN11CSimulation27bCheckRasterGISOutputFormatEv
   fun:_ZN11CSimulation13nDoSimulationEiPPKc
   fun:main
}
{
   <insert_a_suppression_name_here>
   Memcheck:Leak
   match-leak-kinds: reachable
   fun:malloc
   fun:VSIMallocVerbose
   fun:_ZN13CPLStringList12AddNameValueEPKcS1_
   fun:_ZN23GDALMultiDomainMetadata15SetMetadataItemEPKcS1_S1_
   fun:RegisterOGROSM
   fun:GDALAllRegister
   fun:_ZN11CSimulation27bCheckRasterGISOutputFormatEv
   fun:_ZN11CSimulation13nDoSimulationEiPPKc
   fun:main
}
{
   <insert_a_suppression_name_here>
   Memcheck:Leak
   match-leak-kinds: reachable
   fun:malloc
   fun:VSIMallocVerbose
   fun:_ZN13CPLStringList12AddNameValueEPKcS1_
   fun:_ZN23GDALMultiDomainMetadata15SetMetadataItemEPKcS1_S1_
   fun:RegisterOGRGPSBabel
   fun:GDALAllRegister
   fun:_ZN11CSimulation27bCheckRasterGISOutputFormatEv
   fun:_ZN11CSimulation13nDoSimulationEiPPKc
   fun:main
}
{
   <insert_a_suppression_name_here>
   Memcheck:Leak
   match-leak-kinds: reachable
   fun:malloc
   fun:VSIMallocVerbose
   fun:_ZN13CPLStringList12AddNameValueEPKcS1_
   fun:_ZN23GDALMultiDomainMetadata15SetMetadataItemEPKcS1_S1_
   fun:RegisterOGRPDS
   fun:GDALAllRegister
   fun:_ZN11CSimulation27bCheckRasterGISOutputFormatEv
   fun:_ZN11CSimulation13nDoSimulationEiPPKc
   fun:main
}
{
   <insert_a_suppression_name_here>
   Memcheck:Leak
   match-leak-kinds: reachable
   fun:malloc
   fun:VSIMallocVerbose
   fun:_ZN13CPLStringList12AddNameValueEPKcS1_
   fun:_ZN23GDALMultiDomainMetadata15SetMetadataItemEPKcS1_S1_
   fun:RegisterOGRWFS
   fun:GDALAllRegister
   fun:_ZN11CSimulation27bCheckRasterGISOutputFormatEv
   fun:_ZN11CSimulation13nDoSimulationEiPPKc
   fun:main
}
{
   <insert_a_suppression_name_here>
   Memcheck:Leak
   match-leak-kinds: reachable
   fun:malloc
   fun:VSIMallocVerbose
   fun:_ZN13CPLStringList12AddNameValueEPKcS1_
   fun:_ZN23GDALMultiDomainMetadata15SetMetadataItemEPKcS1_S1_
   fun:RegisterOGROAPIF
   fun:GDALAllRegister
   fun:_ZN11CSimulation27bCheckRasterGISOutputFormatEv
   fun:_ZN11CSimulation13nDoSimulationEiPPKc
   fun:main
}
{
   <insert_a_suppression_name_here>
   Memcheck:Leak
   match-leak-kinds: reachable
   fun:malloc
   fun:VSIMallocVerbose
   fun:_ZN13CPLStringList12AddNameValueEPKcS1_
   fun:_ZN23GDALMultiDomainMetadata15SetMetadataItemEPKcS1_S1_
   fun:RegisterOGRSOSI
   fun:GDALAllRegister
   fun:_ZN11CSimulation27bCheckRasterGISOutputFormatEv
   fun:_ZN11CSimulation13nDoSimulationEiPPKc
   fun:main
}
{
   <insert_a_suppression_name_here>
   Memcheck:Leak
   match-leak-kinds: reachable
   fun:malloc
   fun:VSIMallocVerbose
   fun:_ZN13CPLStringList12AddNameValueEPKcS1_
   fun:_ZN23GDALMultiDomainMetadata15SetMetadataItemEPKcS1_S1_
   fun:RegisterOGREDIGEO
   fun:GDALAllRegister
   fun:_ZN11CSimulation27bCheckRasterGISOutputFormatEv
   fun:_ZN11CSimulation13nDoSimulationEiPPKc
   fun:main
}
{
   <insert_a_suppression_name_here>
   Memcheck:Leak
   match-leak-kinds: reachable
   fun:malloc
   fun:VSIMallocVerbose
   fun:_ZN13CPLStringList12AddNameValueEPKcS1_
   fun:_ZN23GDALMultiDomainMetadata15SetMetadataItemEPKcS1_S1_
   fun:RegisterOGRSVG
   fun:GDALAllRegister
   fun:_ZN11CSimulation27bCheckRasterGISOutputFormatEv
   fun:_ZN11CSimulation13nDoSimulationEiPPKc
   fun:main
}
{
   <insert_a_suppression_name_here>
   Memcheck:Leak
   match-leak-kinds: reachable
   fun:malloc
   fun:VSIMallocVerbose
   fun:_ZN13CPLStringList12AddNameValueEPKcS1_
   fun:_ZN23GDALMultiDomainMetadata15SetMetadataItemEPKcS1_S1_
   fun:RegisterOGRIdrisi
   fun:GDALAllRegister
   fun:_ZN11CSimulation27bCheckRasterGISOutputFormatEv
   fun:_ZN11CSimulation13nDoSimulationEiPPKc
   fun:main
}
{
   <insert_a_suppression_name_here>
   Memcheck:Leak
   match-leak-kinds: reachable
   fun:malloc
   fun:VSIMallocVerbose
   fun:_ZN13CPLStringList12AddNameValueEPKcS1_
   fun:_ZN23GDALMultiDomainMetadata15SetMetadataItemEPKcS1_S1_
   fun:RegisterOGRXLS
   fun:GDALAllRegister
   fun:_ZN11CSimulation27bCheckRasterGISOutputFormatEv
   fun:_ZN11CSimulation13nDoSimulationEiPPKc
   fun:main
}
{
   <insert_a_suppression_name_here>
   Memcheck:Leak
   match-leak-kinds: reachable
   fun:malloc
   fun:VSIMallocVerbose
   fun:_ZN13CPLStringList12AddNameValueEPKcS1_
   fun:_ZN23GDALMultiDomainMetadata15SetMetadataItemEPKcS1_S1_
   fun:RegisterOGRODS
   fun:GDALAllRegister
   fun:_ZN11CSimulation27bCheckRasterGISOutputFormatEv
   fun:_ZN11CSimulation13nDoSimulationEiPPKc
   fun:main
}
{
   <insert_a_suppression_name_here>
   Memcheck:Leak
   match-leak-kinds: reachable
   fun:malloc
   fun:VSIMallocVerbose
   fun:_ZN13CPLStringList12AddNameValueEPKcS1_
   fun:_ZN23GDALMultiDomainMetadata15SetMetadataItemEPKcS1_S1_
   fun:RegisterOGRXLSX
   fun:GDALAllRegister
   fun:_ZN11CSimulation27bCheckRasterGISOutputFormatEv
   fun:_ZN11CSimulation13nDoSimulationEiPPKc
   fun:main
}
{
   <insert_a_suppression_name_here>
   Memcheck:Leak
   match-leak-kinds: reachable
   fun:malloc
   fun:VSIMallocVerbose
   fun:_ZN13CPLStringList12AddNameValueEPKcS1_
   fun:_ZN23GDALMultiDomainMetadata15SetMetadataItemEPKcS1_S1_
   fun:RegisterOGRElastic
   fun:GDALAllRegister
   fun:_ZN11CSimulation27bCheckRasterGISOutputFormatEv
   fun:_ZN11CSimulation13nDoSimulationEiPPKc
   fun:main
}
{
   <insert_a_suppression_name_here>
   Memcheck:Leak
   match-leak-kinds: reachable
   fun:malloc
   fun:VSIMallocVerbose
   fun:_ZN13CPLStringList12AddNameValueEPKcS1_
   fun:_ZN23GDALMultiDomainMetadata15SetMetadataItemEPKcS1_S1_
   fun:RegisterOGRCarto
   fun:GDALAllRegister
   fun:_ZN11CSimulation27bCheckRasterGISOutputFormatEv
   fun:_ZN11CSimulation13nDoSimulationEiPPKc
   fun:main
}
{
   <insert_a_suppression_name_here>
   Memcheck:Leak
   match-leak-kinds: reachable
   fun:malloc
   fun:VSIMallocVerbose
   fun:_ZN13CPLStringList12AddNameValueEPKcS1_
   fun:_ZN23GDALMultiDomainMetadata15SetMetadataItemEPKcS1_S1_
   fun:RegisterOGRAmigoCloud
   fun:GDALAllRegister
   fun:_ZN11CSimulation27bCheckRasterGISOutputFormatEv
   fun:_ZN11CSimulation13nDoSimulationEiPPKc
   fun:main
}
{
   <insert_a_suppression_name_here>
   Memcheck:Leak
   match-leak-kinds: reachable
   fun:malloc
   fun:VSIMallocVerbose
   fun:_ZN13CPLStringList12AddNameValueEPKcS1_
   fun:_ZN23GDALMultiDomainMetadata15SetMetadataItemEPKcS1_S1_
   fun:RegisterOGRSXF
   fun:GDALAllRegister
   fun:_ZN11CSimulation27bCheckRasterGISOutputFormatEv
   fun:_ZN11CSimulation13nDoSimulationEiPPKc
   fun:main
}
{
   <insert_a_suppression_name_here>
   Memcheck:Leak
   match-leak-kinds: reachable
   fun:malloc
   fun:VSIMallocVerbose
   fun:_ZN13CPLStringList12AddNameValueEPKcS1_
   fun:_ZN23GDALMultiDomainMetadata15SetMetadataItemEPKcS1_S1_
   fun:RegisterOGRSelafin
   fun:GDALAllRegister
   fun:_ZN11CSimulation27bCheckRasterGISOutputFormatEv
   fun:_ZN11CSimulation13nDoSimulationEiPPKc
   fun:main
}
{
   <insert_a_suppression_name_here>
   Memcheck:Leak
   match-leak-kinds: reachable
   fun:malloc
   fun:VSIMallocVerbose
   fun:_ZN13CPLStringList12AddNameValueEPKcS1_
   fun:_ZN23GDALMultiDomainMetadata15SetMetadataItemEPKcS1_S1_
   fun:RegisterOGRJML
   fun:GDALAllRegister
   fun:_ZN11CSimulation27bCheckRasterGISOutputFormatEv
   fun:_ZN11CSimulation13nDoSimulationEiPPKc
   fun:main
}
{
   <insert_a_suppression_name_here>
   Memcheck:Leak
   match-leak-kinds: reachable
   fun:malloc
   fun:VSIMallocVerbose
   fun:_ZN13CPLStringList12AddNameValueEPKcS1_
   fun:_ZN23GDALMultiDomainMetadata15SetMetadataItemEPKcS1_S1_
   fun:RegisterOGRPLSCENES
   fun:GDALAllRegister
   fun:_ZN11CSimulation27bCheckRasterGISOutputFormatEv
   fun:_ZN11CSimulation13nDoSimulationEiPPKc
   fun:main
}
{
   <insert_a_suppression_name_here>
   Memcheck:Leak
   match-leak-kinds: reachable
   fun:malloc
   fun:VSIMallocVerbose
   fun:_ZN13CPLStringList12AddNameValueEPKcS1_
   fun:_ZN23GDALMultiDomainMetadata15SetMetadataItemEPKcS1_S1_
   fun:RegisterOGRCSW
   fun:GDALAllRegister
   fun:_ZN11CSimulation27bCheckRasterGISOutputFormatEv
   fun:_ZN11CSimulation13nDoSimulationEiPPKc
   fun:main
}
{
   <insert_a_suppression_name_here>
   Memcheck:Leak
   match-leak-kinds: reachable
   fun:malloc
   fun:VSIMallocVerbose
   fun:_ZN13CPLStringList12AddNameValueEPKcS1_
   fun:_ZN23GDALMultiDomainMetadata15SetMetadataItemEPKcS1_S1_
   fun:RegisterOGRVDV
   fun:GDALAllRegister
   fun:_ZN11CSimulation27bCheckRasterGISOutputFormatEv
   fun:_ZN11CSimulation13nDoSimulationEiPPKc
   fun:main
}
{
   <insert_a_suppression_name_here>
   Memcheck:Leak
   match-leak-kinds: reachable
   fun:malloc
   fun:VSIMallocVerbose
   fun:_ZN13CPLStringList12AddNameValueEPKcS1_
   fun:_ZN23GDALMultiDomainMetadata15SetMetadataItemEPKcS1_S1_
   obj:/usr/lib/x86_64-linux-gnu/libgdal.so.36.3.10.2
   fun:RegisterOGRGMLAS
   fun:GDALAllRegister
   fun:_ZN11CSimulation27bCheckRasterGISOutputFormatEv
   fun:_ZN11CSimulation13nDoSimulationEiPPKc
   fun:main
}
{
   <insert_a_suppression_name_here>
   Memcheck:Leak
   match-leak-kinds: reachable
   fun:malloc
   fun:VSIMallocVerbose
   fun:_ZN13CPLStringList12SetNameValueEPKcS1_
   fun:_ZN23GDALMultiDomainMetadata15SetMetadataItemEPKcS1_S1_
   fun:RegisterOGRMVT
   fun:GDALAllRegister
   fun:_ZN11CSimulation27bCheckRasterGISOutputFormatEv
   fun:_ZN11CSimulation13nDoSimulationEiPPKc
   fun:main
}
{
   <insert_a_suppression_name_here>
   Memcheck:Leak
   match-leak-kinds: reachable
   fun:malloc
   fun:VSIMallocVerbose
   fun:_ZN13CPLStringList12AddNameValueEPKcS1_
   fun:_ZN23GDALMultiDomainMetadata15SetMetadataItemEPKcS1_S1_
   fun:RegisterOGRNGW
   fun:GDALAllRegister
   fun:_ZN11CSimulation27bCheckRasterGISOutputFormatEv
   fun:_ZN11CSimulation13nDoSimulationEiPPKc
   fun:main
}
{
   <insert_a_suppression_name_here>
   Memcheck:Leak
   match-leak-kinds: reachable
   fun:malloc
   fun:VSIMallocVerbose
   fun:_ZN13CPLStringList12AddNameValueEPKcS1_
   fun:_ZN23GDALMultiDomainMetadata15SetMetadataItemEPKcS1_S1_
   fun:RegisterOGRMapML
   fun:GDALAllRegister
   fun:_ZN11CSimulation27bCheckRasterGISOutputFormatEv
   fun:_ZN11CSimulation13nDoSimulationEiPPKc
   fun:main
}
{
   <insert_a_suppression_name_here>
   Memcheck:Leak
   match-leak-kinds: reachable
   fun:malloc
   fun:VSIMallocVerbose
   fun:_ZN13CPLStringList12AddNameValueEPKcS1_
   fun:_ZN23GDALMultiDomainMetadata15SetMetadataItemEPKcS1_S1_
   fun:RegisterOGRGTFS
   fun:GDALAllRegister
   fun:_ZN11CSimulation27bCheckRasterGISOutputFormatEv
   fun:_ZN11CSimulation13nDoSimulationEiPPKc
   fun:main
}
{
   <insert_a_suppression_name_here>
   Memcheck:Leak
   match-leak-kinds: reachable
   fun:malloc
   fun:VSIMallocVerbose
   fun:_ZN13CPLStringList12AddNameValueEPKcS1_
   fun:_ZN23GDALMultiDomainMetadata15SetMetadataItemEPKcS1_S1_
   fun:RegisterOGRPMTiles
   fun:GDALAllRegister
   fun:_ZN11CSimulation27bCheckRasterGISOutputFormatEv
   fun:_ZN11CSimulation13nDoSimulationEiPPKc
   fun:main
}
{
   <insert_a_suppression_name_here>
   Memcheck:Leak
   match-leak-kinds: reachable
   fun:malloc
   fun:VSIMallocVerbose
   fun:_ZN13CPLStringList12AddNameValueEPKcS1_
   fun:_ZN23GDALMultiDomainMetadata15SetMetadataItemEPKcS1_S1_
   fun:RegisterOGRJSONFG
   fun:GDALAllRegister
   fun:_ZN11CSimulation27bCheckRasterGISOutputFormatEv
   fun:_ZN11CSimulation13nDoSimulationEiPPKc
   fun:main
}
{
   <insert_a_suppression_name_here>
   Memcheck:Leak
   match-leak-kinds: reachable
   fun:malloc
   fun:VSIMallocVerbose
   fun:_ZN13CPLStringList12AddNameValueEPKcS1_
   fun:_ZN23GDALMultiDomainMetadata15SetMetadataItemEPKcS1_S1_
   fun:RegisterOGRMiraMon
   fun:GDALAllRegister
   fun:_ZN11CSimulation27bCheckRasterGISOutputFormatEv
   fun:_ZN11CSimulation13nDoSimulationEiPPKc
   fun:main
}
{
   <insert_a_suppression_name_here>
   Memcheck:Leak
   match-leak-kinds: reachable
   fun:malloc
   fun:VSIMallocVerbose
   fun:_ZN13CPLStringList12AddNameValueEPKcS1_
   fun:_ZN23GDALMultiDomainMetadata15SetMetadataItemEPKcS1_S1_
   fun:RegisterOGRTiger
   fun:GDALAllRegister
   fun:_ZN11CSimulation27bCheckRasterGISOutputFormatEv
   fun:_ZN11CSimulation13nDoSimulationEiPPKc
   fun:main
}
{
   <insert_a_suppression_name_here>
   Memcheck:Leak
   match-leak-kinds: reachable
   fun:malloc
   fun:VSIMallocVerbose
   fun:_ZN13CPLStringList12AddNameValueEPKcS1_
   fun:_ZN23GDALMultiDomainMetadata15SetMetadataItemEPKcS1_S1_
   fun:RegisterOGRAVCBin
   fun:GDALAllRegister
   fun:_ZN11CSimulation27bCheckRasterGISOutputFormatEv
   fun:_ZN11CSimulation13nDoSimulationEiPPKc
   fun:main
}
{
   <insert_a_suppression_name_here>
   Memcheck:Leak
   match-leak-kinds: reachable
   fun:malloc
   fun:VSIMallocVerbose
   fun:_ZN13CPLStringList12AddNameValueEPKcS1_
   fun:_ZN23GDALMultiDomainMetadata15SetMetadataItemEPKcS1_S1_
   fun:RegisterOGRAVCE00
   fun:GDALAllRegister
   fun:_ZN11CSimulation27bCheckRasterGISOutputFormatEv
   fun:_ZN11CSimulation13nDoSimulationEiPPKc
   fun:main
}
{
   <insert_a_suppression_name_here>
   Memcheck:Leak
   match-leak-kinds: reachable
   fun:malloc
   fun:VSIMallocVerbose
   fun:_ZN13CPLStringList12AddNameValueEPKcS1_
   fun:_ZN23GDALMultiDomainMetadata15SetMetadataItemEPKcS1_S1_
   fun:GDALRegister_GenBin
   fun:GDALRegister_raw_with_sidecar
   fun:GDALAllRegister
   fun:_ZN11CSimulation27bCheckRasterGISOutputFormatEv
   fun:_ZN11CSimulation13nDoSimulationEiPPKc
   fun:main
}
{
   <insert_a_suppression_name_here>
   Memcheck:Leak
   match-leak-kinds: reachable
   fun:malloc
   fun:VSIMallocVerbose
   fun:_ZN13CPLStringList12AddNameValueEPKcS1_
   fun:_ZN23GDALMultiDomainMetadata15SetMetadataItemEPKcS1_S1_
   fun:_ZN10GDALDriver15SetMetadataItemEPKcS1_S1_
   fun:GDALRegister_ENVI
   fun:GDALRegister_raw_with_sidecar
   fun:GDALAllRegister
   fun:_ZN11CSimulation27bCheckRasterGISOutputFormatEv
   fun:_ZN11CSimulation13nDoSimulationEiPPKc
   fun:main
}
{
   <insert_a_suppression_name_here>
   Memcheck:Leak
   match-leak-kinds: reachable
   fun:malloc
   fun:VSIMallocVerbose
   fun:_ZN13CPLStringList12AddNameValueEPKcS1_
   fun:_ZN23GDALMultiDomainMetadata15SetMetadataItemEPKcS1_S1_
   fun:GDALRegister_EHdr
   fun:GDALRegister_raw_with_sidecar
   fun:GDALAllRegister
   fun:_ZN11CSimulation27bCheckRasterGISOutputFormatEv
   fun:_ZN11CSimulation13nDoSimulationEiPPKc
   fun:main
}
{
   <insert_a_suppression_name_here>
   Memcheck:Leak
   match-leak-kinds: reachable
   fun:malloc
   fun:VSIMallocVerbose
   fun:_ZN13CPLStringList12AddNameValueEPKcS1_
   fun:_ZN23GDALMultiDomainMetadata15SetMetadataItemEPKcS1_S1_
   fun:GDALRegister_ISCE
   fun:GDALAllRegister
   fun:_ZN11CSimulation27bCheckRasterGISOutputFormatEv
   fun:_ZN11CSimulation13nDoSimulationEiPPKc
   fun:main
}
{
   <insert_a_suppression_name_here>
   Memcheck:Leak
   match-leak-kinds: reachable
   fun:malloc
   fun:VSIMallocVerbose
   fun:_ZN13CPLStringList12AddNameValueEPKcS1_
   fun:_ZN23GDALMultiDomainMetadata15SetMetadataItemEPKcS1_S1_
   fun:GDALRegister_Zarr
   fun:GDALAllRegister
   fun:_ZN11CSimulation27bCheckRasterGISOutputFormatEv
   fun:_ZN11CSimulation13nDoSimulationEiPPKc
   fun:main
}
{
   <insert_a_suppression_name_here>
   Memcheck:Leak
   match-leak-kinds: reachable
   fun:malloc
   fun:VSIMallocVerbose
   fun:_ZN13CPLStringList12AddNameValueEPKcS1_
   fun:_ZN23GDALMultiDomainMetadata15SetMetadataItemEPKcS1_S1_
   fun:GDALRegister_HTTP
   fun:GDALAllRegister
   fun:_ZN11CSimulation27bCheckRasterGISOutputFormatEv
   fun:_ZN11CSimulation13nDoSimulationEiPPKc
   fun:main
}
{
   <insert_a_suppression_name_here>
   Memcheck:Leak
   match-leak-kinds: reachable
   fun:calloc
   fun:CPLCreateOrAcquireLock
   fun:_ZN13CPLLockHolderC1EPP8_CPLLock11CPLLockTypePKci
   fun:_ZN15GDALRasterBlockC1EP14GDALRasterBandii
   obj:/usr/lib/x86_64-linux-gnu/libgdal.so.36.3.10.2
   fun:_ZN14GDALRasterBand9IRasterIOE10GDALRWFlagiiiiPvii12GDALDataTypexxP20GDALRasterIOExtraArg
   fun:_ZN14GDALRasterBand8RasterIOE10GDALRWFlagiiiiPvii12GDALDataTypexxP20GDALRasterIOExtraArg
   fun:_ZN11CSimulation22nReadRasterBasementDEMEv
   fun:_ZN11CSimulation13nDoSimulationEiPPKc
   fun:main
}
{
   <insert_a_suppression_name_here>
   Memcheck:Leak
   match-leak-kinds: reachable
   fun:calloc
   fun:VSICallocVerbose
   fun:CSLAddStringMayFail
   fun:CSLAddString
   fun:CSLAddNameValue
   fun:CPLSetThreadLocalConfigOption
   fun:_ZN11CSimulation31nInterpolateWavesToPolygonCellsEPKSt6vectorIdSaIdEES4_S4_S4_
   fun:_ZN11CSimulation20nDoAllPropagateWavesEv
   fun:_ZN11CSimulation13nDoSimulationEiPPKc
   fun:main
}
{
   <insert_a_suppression_name_here>
   Memcheck:Leak
   match-leak-kinds: possible
   fun:_Znwm
   fun:_ZNK19OGRSpatialReference5CloneEv
   obj:/usr/lib/x86_64-linux-gnu/libgdal.so.36.3.10.2
   obj:/usr/lib/x86_64-linux-gnu/libgdal.so.36.3.10.2
   fun:_ZN11GDALDataset11CreateLayerEPKcPK16OGRGeomFieldDefnPKS1_
   fun:_ZN11GDALDataset11CreateLayerEPKcPK19OGRSpatialReference18OGRwkbGeometryTypePKS1_
   fun:_ZN11CSimulation19bWriteVectorGISFileEiPKNSt7__cxx1112basic_stringIcSt11char_traitsIcESaIcEEE
   fun:_ZN11CSimulation22bSaveAllVectorGISFilesEv
   fun:_ZN11CSimulation13nDoSimulationEiPPKc
   fun:main
}
{
   <insert_a_suppression_name_here>
   Memcheck:Leak
   match-leak-kinds: possible
   fun:_Znwm
   fun:_ZN14OGRFeatureDefn12AddFieldDefnEPK12OGRFieldDefn
   obj:/usr/lib/x86_64-linux-gnu/libgdal.so.36.3.10.2
   fun:_ZN11CSimulation19bWriteVectorGISFileEiPKNSt7__cxx1112basic_stringIcSt11char_traitsIcESaIcEEE
   fun:_ZN11CSimulation22bSaveAllVectorGISFilesEv
   fun:_ZN11CSimulation13nDoSimulationEiPPKc
   fun:main
}
{
   <insert_a_suppression_name_here>
   Memcheck:Leak
   match-leak-kinds: indirect
   fun:_Znwm
   fun:_ZNK19OGRSpatialReference5CloneEv
   obj:/usr/lib/x86_64-linux-gnu/libgdal.so.36.3.10.2
   obj:/usr/lib/x86_64-linux-gnu/libgdal.so.36.3.10.2
   fun:_ZN11GDALDataset11CreateLayerEPKcPK16OGRGeomFieldDefnPKS1_
   fun:_ZN11GDALDataset11CreateLayerEPKcPK19OGRSpatialReference18OGRwkbGeometryTypePKS1_
   fun:_ZN11CSimulation19bWriteVectorGISFileEiPKNSt7__cxx1112basic_stringIcSt11char_traitsIcESaIcEEE
   fun:_ZN11CSimulation22bSaveAllVectorGISFilesEv
   fun:_ZN11CSimulation19nWriteEndRunDetailsEv
   fun:_ZN11CSimulation13nDoSimulationEiPPKc
   fun:main
}
{
   <insert_a_suppression_name_here>
   Memcheck:Leak
   match-leak-kinds: reachable
   fun:malloc
   fun:VSIMallocVerbose
   fun:_ZN13CPLStringList12AddNameValueEPKcS1_
   fun:_ZN23GDALMultiDomainMetadata15SetMetadataItemEPKcS1_S1_
   fun:_ZN10GDALDriver15SetMetadataItemEPKcS1_S1_
   fun:GDALRegister_NOAA_B
   fun:GDALRegister_raw_no_sidecar
   fun:GDALAllRegister
   fun:_ZN11CSimulation27bCheckRasterGISOutputFormatEv
   fun:_ZN11CSimulation13nDoSimulationEiPPKc
   fun:main
}
{
   <insert_a_suppression_name_here>
   Memcheck:Leak
   match-leak-kinds: indirect
   fun:malloc
   fun:CPLMalloc
   fun:CPLStrdup
   fun:_ZN14OGRFeatureDefnC1EPKc
   obj:/usr/lib/x86_64-linux-gnu/libgdal.so.36.3.10.2
   obj:/usr/lib/x86_64-linux-gnu/libgdal.so.36.3.10.2
   fun:_ZN11GDALDataset11CreateLayerEPKcPK16OGRGeomFieldDefnPKS1_
   fun:_ZN11GDALDataset11CreateLayerEPKcPK19OGRSpatialReference18OGRwkbGeometryTypePKS1_
   fun:_ZN11CSimulation19bWriteVectorGISFileEiPKNSt7__cxx1112basic_stringIcSt11char_traitsIcESaIcEEE
   fun:_ZN11CSimulation22bSaveAllVectorGISFilesEv
   fun:_ZN11CSimulation19nWriteEndRunDetailsEv
   fun:_ZN11CSimulation13nDoSimulationEiPPKc
}
{
   <insert_a_suppression_name_here>
   Memcheck:Leak
   match-leak-kinds: reachable
   fun:_Znwm
   obj:/usr/lib/x86_64-linux-gnu/libgdal.so.36.3.10.2
   fun:_ZN14VSIFileManager14InstallHandlerERKNSt7__cxx1112basic_stringIcSt11char_traitsIcESaIcEEEP20VSIFilesystemHandler
   fun:_ZN14VSIFileManager3GetEv
   fun:_ZN14VSIFileManager10GetHandlerEPKc
   fun:VSIGetDirectorySeparator
   fun:CPLFormFilename
   fun:CPLLoadConfigOptionsFromPredefinedFiles
   fun:_ZN17GDALDriverManagerC1Ev
   fun:GetGDALDriverManager
   fun:GDALAllRegister
   fun:_ZN11CSimulation27bCheckRasterGISOutputFormatEv
}
{
   <insert_a_suppression_name_here>
   Memcheck:Leak
   match-leak-kinds: reachable
   fun:malloc
   fun:VSIMallocVerbose
   fun:_ZN13CPLStringList12AddNameValueEPKcS1_
   fun:_ZN23GDALMultiDomainMetadata15SetMetadataItemEPKcS1_S1_
   fun:_ZN10GDALDriver15SetMetadataItemEPKcS1_S1_
   fun:GDALRegister_Envisat
   fun:GDALAllRegister
   fun:_ZN11CSimulation27bCheckRasterGISOutputFormatEv
   fun:_ZN11CSimulation13nDoSimulationEiPPKc
   fun:main
}
{
   <insert_a_suppression_name_here>
   Memcheck:Leak
   match-leak-kinds: reachable
   fun:malloc
   fun:VSIMallocVerbose
   fun:_ZN13CPLStringList12AddNameValueEPKcS1_
   fun:_ZN23GDALMultiDomainMetadata15SetMetadataItemEPKcS1_S1_
   fun:_ZN10GDALDriver15SetMetadataItemEPKcS1_S1_
   fun:GDALRegister_netCDF
   fun:GDALAllRegister
   fun:_ZN11CSimulation27bCheckRasterGISOutputFormatEv
   fun:_ZN11CSimulation13nDoSimulationEiPPKc
   fun:main
}
{
   <insert_a_suppression_name_here>
   Memcheck:Leak
   match-leak-kinds: reachable
   fun:malloc
   fun:VSIMallocVerbose
   fun:_ZN13CPLStringList12AddNameValueEPKcS1_
   fun:_ZN23GDALMultiDomainMetadata15SetMetadataItemEPKcS1_S1_
   fun:_ZN10GDALDriver15SetMetadataItemEPKcS1_S1_
   fun:GDALRegister_BT
   fun:GDALRegister_raw_no_sidecar
   fun:GDALAllRegister
   fun:_ZN11CSimulation27bCheckRasterGISOutputFormatEv
   fun:_ZN11CSimulation13nDoSimulationEiPPKc
   fun:main
}
{
   <insert_a_suppression_name_here>
   Memcheck:Leak
   match-leak-kinds: reachable
   fun:malloc
   fun:VSIMallocVerbose
   fun:_ZN13CPLStringList12AddNameValueEPKcS1_
   fun:_ZN23GDALMultiDomainMetadata15SetMetadataItemEPKcS1_S1_
   fun:_ZN10GDALDriver15SetMetadataItemEPKcS1_S1_
   fun:GDALRegister_S102
   fun:GDALAllRegister
   fun:_ZN11CSimulation27bCheckRasterGISOutputFormatEv
   fun:_ZN11CSimulation13nDoSimulationEiPPKc
   fun:main
}
{
   <insert_a_suppression_name_here>
   Memcheck:Leak
   match-leak-kinds: reachable
   fun:malloc
   fun:VSIMallocVerbose
   fun:_ZN13CPLStringList12AddNameValueEPKcS1_
   fun:_ZN23GDALMultiDomainMetadata15SetMetadataItemEPKcS1_S1_
   fun:_ZN10GDALDriver15SetMetadataItemEPKcS1_S1_
   fun:GDALRegister_S104
   fun:GDALAllRegister
   fun:_ZN11CSimulation27bCheckRasterGISOutputFormatEv
   fun:_ZN11CSimulation13nDoSimulationEiPPKc
   fun:main
}
{
   <insert_a_suppression_name_here>
   Memcheck:Leak
   match-leak-kinds: reachable
   fun:malloc
   fun:VSIMallocVerbose
   fun:_ZN13CPLStringList12AddNameValueEPKcS1_
   fun:_ZN23GDALMultiDomainMetadata15SetMetadataItemEPKcS1_S1_
   fun:_ZN10GDALDriver15SetMetadataItemEPKcS1_S1_
   fun:GDALRegister_S111
   fun:GDALAllRegister
   fun:_ZN11CSimulation27bCheckRasterGISOutputFormatEv
   fun:_ZN11CSimulation13nDoSimulationEiPPKc
   fun:main
}
{
   <insert_a_suppression_name_here>
   Memcheck:Leak
   match-leak-kinds: reachable
   fun:malloc
   fun:VSIMallocVerbose
   fun:_ZN13CPLStringList12AddNameValueEPKcS1_
   fun:_ZN23GDALMultiDomainMetadata15SetMetadataItemEPKcS1_S1_
   fun:_ZN10GDALDriver15SetMetadataItemEPKcS1_S1_
   fun:GDALRegister_VRT
   fun:GDALAllRegister
   fun:_ZN11CSimulation27bCheckRasterGISOutputFormatEv
   fun:_ZN11CSimulation13nDoSimulationEiPPKc
   fun:main
}
{
   <insert_a_suppression_name_here>
   Memcheck:Leak
   match-leak-kinds: reachable
   fun:malloc
   fun:VSIMallocVerbose
   fun:_ZN13CPLStringList12AddNameValueEPKcS1_
   fun:_ZN23GDALMultiDomainMetadata15SetMetadataItemEPKcS1_S1_
   fun:_ZN10GDALDriver15SetMetadataItemEPKcS1_S1_
   fun:GDALRegister_NITF
   fun:GDALAllRegister
   fun:_ZN11CSimulation27bCheckRasterGISOutputFormatEv
   fun:_ZN11CSimulation13nDoSimulationEiPPKc
   fun:main
}
{
   <insert_a_suppression_name_here>
   Memcheck:Leak
   match-leak-kinds: reachable
   fun:malloc
   fun:VSIMallocVerbose
   fun:_ZN13CPLStringList12AddNameValueEPKcS1_
   fun:_ZN23GDALMultiDomainMetadata15SetMetadataItemEPKcS1_S1_
   fun:_ZN10GDALDriver15SetMetadataItemEPKcS1_S1_
   fun:GDALRegister_RPFTOC
   fun:GDALAllRegister
   fun:_ZN11CSimulation27bCheckRasterGISOutputFormatEv
   fun:_ZN11CSimulation13nDoSimulationEiPPKc
   fun:main
}
{
   <insert_a_suppression_name_here>
   Memcheck:Leak
   match-leak-kinds: reachable
   fun:malloc
   fun:VSIMallocVerbose
   fun:_ZN13CPLStringList12AddNameValueEPKcS1_
   fun:_ZN23GDALMultiDomainMetadata15SetMetadataItemEPKcS1_S1_
   fun:_ZN10GDALDriver15SetMetadataItemEPKcS1_S1_
   fun:GDALRegister_ECRGTOC
   fun:GDALAllRegister
   fun:_ZN11CSimulation27bCheckRasterGISOutputFormatEv
   fun:_ZN11CSimulation13nDoSimulationEiPPKc
   fun:main
}
{
   <insert_a_suppression_name_here>
   Memcheck:Leak
   match-leak-kinds: reachable
   fun:malloc
   fun:VSIMallocVerbose
   fun:_ZN13CPLStringList12AddNameValueEPKcS1_
   fun:_ZN23GDALMultiDomainMetadata15SetMetadataItemEPKcS1_S1_
   fun:_ZN10GDALDriver15SetMetadataItemEPKcS1_S1_
   fun:GDALRegister_HFA
   fun:GDALAllRegister
   fun:_ZN11CSimulation27bCheckRasterGISOutputFormatEv
   fun:_ZN11CSimulation13nDoSimulationEiPPKc
   fun:main
}
{
   <insert_a_suppression_name_here>
   Memcheck:Leak
   match-leak-kinds: reachable
   fun:malloc
   fun:VSIMallocVerbose
   fun:_ZN13CPLStringList12AddNameValueEPKcS1_
   fun:_ZN23GDALMultiDomainMetadata15SetMetadataItemEPKcS1_S1_
   fun:_ZN10GDALDriver15SetMetadataItemEPKcS1_S1_
   fun:GDALRegister_GFF
   fun:GDALAllRegister
   fun:_ZN11CSimulation27bCheckRasterGISOutputFormatEv
   fun:_ZN11CSimulation13nDoSimulationEiPPKc
   fun:main
}
{
   <insert_a_suppression_name_here>
   Memcheck:Leak
   match-leak-kinds: reachable
   fun:malloc
   fun:VSIMallocVerbose
   fun:_ZN13CPLStringList12AddNameValueEPKcS1_
   fun:_ZN23GDALMultiDomainMetadata15SetMetadataItemEPKcS1_S1_
   fun:_ZN10GDALDriver15SetMetadataItemEPKcS1_S1_
   fun:GDALRegister_AAIGrid
   fun:GDALAllRegister
   fun:_ZN11CSimulation27bCheckRasterGISOutputFormatEv
   fun:_ZN11CSimulation13nDoSimulationEiPPKc
   fun:main
}
{
   <insert_a_suppression_name_here>
   Memcheck:Leak
   match-leak-kinds: reachable
   fun:malloc
   fun:VSIMallocVerbose
   fun:_ZN13CPLStringList12AddNameValueEPKcS1_
   fun:_ZN23GDALMultiDomainMetadata15SetMetadataItemEPKcS1_S1_
   fun:_ZN10GDALDriver15SetMetadataItemEPKcS1_S1_
   fun:GDALRegister_ISG
   fun:GDALAllRegister
   fun:_ZN11CSimulation27bCheckRasterGISOutputFormatEv
   fun:_ZN11CSimulation13nDoSimulationEiPPKc
   fun:main
}
{
   <insert_a_suppression_name_here>
   Memcheck:Leak
   match-leak-kinds: reachable
   fun:malloc
   fun:VSIMallocVerbose
   fun:_ZN13CPLStringList12AddNameValueEPKcS1_
   fun:_ZN23GDALMultiDomainMetadata15SetMetadataItemEPKcS1_S1_
   fun:_ZN10GDALDriver15SetMetadataItemEPKcS1_S1_
   fun:GDALRegister_SDTS
   fun:GDALAllRegister
   fun:_ZN11CSimulation27bCheckRasterGISOutputFormatEv
   fun:_ZN11CSimulation13nDoSimulationEiPPKc
   fun:main
}
{
   <insert_a_suppression_name_here>
   Memcheck:Leak
   match-leak-kinds: reachable
   fun:malloc
   fun:VSIMallocVerbose
   fun:_ZN13CPLStringList12AddNameValueEPKcS1_
   fun:_ZN23GDALMultiDomainMetadata15SetMetadataItemEPKcS1_S1_
   fun:_ZN10GDALDriver15SetMetadataItemEPKcS1_S1_
   fun:GDALRegister_PNG
   fun:GDALAllRegister
   fun:_ZN11CSimulation27bCheckRasterGISOutputFormatEv
   fun:_ZN11CSimulation13nDoSimulationEiPPKc
   fun:main
}
{
   <insert_a_suppression_name_here>
   Memcheck:Leak
   match-leak-kinds: reachable
   fun:malloc
   fun:VSIMallocVerbose
   fun:_ZN13CPLStringList12AddNameValueEPKcS1_
   fun:_ZN23GDALMultiDomainMetadata15SetMetadataItemEPKcS1_S1_
   fun:_ZN10GDALDriver15SetMetadataItemEPKcS1_S1_
   fun:GDALRegister_JDEM
   fun:GDALAllRegister
   fun:_ZN11CSimulation27bCheckRasterGISOutputFormatEv
   fun:_ZN11CSimulation13nDoSimulationEiPPKc
   fun:main
}
{
   <insert_a_suppression_name_here>
   Memcheck:Leak
   match-leak-kinds: reachable
   fun:malloc
   fun:VSIMallocVerbose
   fun:_ZN13CPLStringList12AddNameValueEPKcS1_
   fun:_ZN23GDALMultiDomainMetadata15SetMetadataItemEPKcS1_S1_
   fun:_ZN10GDALDriver15SetMetadataItemEPKcS1_S1_
   fun:GDALRegister_GIF
   fun:GDALAllRegister
   fun:_ZN11CSimulation27bCheckRasterGISOutputFormatEv
   fun:_ZN11CSimulation13nDoSimulationEiPPKc
   fun:main
}
{
   <insert_a_suppression_name_here>
   Memcheck:Leak
   match-leak-kinds: reachable
   fun:malloc
   fun:VSIMallocVerbose
   fun:_ZN13CPLStringList12AddNameValueEPKcS1_
   fun:_ZN23GDALMultiDomainMetadata15SetMetadataItemEPKcS1_S1_
   fun:_ZN10GDALDriver15SetMetadataItemEPKcS1_S1_
   fun:GDALRegister_BIGGIF
   fun:GDALAllRegister
   fun:_ZN11CSimulation27bCheckRasterGISOutputFormatEv
   fun:_ZN11CSimulation13nDoSimulationEiPPKc
   fun:main
}
{
   <insert_a_suppression_name_here>
   Memcheck:Leak
   match-leak-kinds: reachable
   fun:malloc
   fun:VSIMallocVerbose
   fun:_ZN13CPLStringList12AddNameValueEPKcS1_
   fun:_ZN23GDALMultiDomainMetadata15SetMetadataItemEPKcS1_S1_
   fun:_ZN10GDALDriver15SetMetadataItemEPKcS1_S1_
   fun:GDALRegister_FITS
   fun:GDALAllRegister
   fun:_ZN11CSimulation27bCheckRasterGISOutputFormatEv
   fun:_ZN11CSimulation13nDoSimulationEiPPKc
   fun:main
}
{
   <insert_a_suppression_name_here>
   Memcheck:Leak
   match-leak-kinds: reachable
   fun:malloc
   fun:VSIMallocVerbose
   fun:_ZN13CPLStringList12AddNameValueEPKcS1_
   fun:_ZN23GDALMultiDomainMetadata15SetMetadataItemEPKcS1_S1_
   fun:_ZN10GDALDriver15SetMetadataItemEPKcS1_S1_
   fun:GDALRegister_BSB
   fun:GDALAllRegister
   fun:_ZN11CSimulation27bCheckRasterGISOutputFormatEv
   fun:_ZN11CSimulation13nDoSimulationEiPPKc
   fun:main
}
{
   <insert_a_suppression_name_here>
   Memcheck:Leak
   match-leak-kinds: reachable
   fun:malloc
   fun:VSIMallocVerbose
   fun:_ZN13CPLStringList12AddNameValueEPKcS1_
   fun:_ZN23GDALMultiDomainMetadata15SetMetadataItemEPKcS1_S1_
   fun:_ZN10GDALDriver15SetMetadataItemEPKcS1_S1_
   fun:GDALRegister_XPM
   fun:GDALAllRegister
   fun:_ZN11CSimulation27bCheckRasterGISOutputFormatEv
   fun:_ZN11CSimulation13nDoSimulationEiPPKc
   fun:main
}
{
   <insert_a_suppression_name_here>
   Memcheck:Leak
   match-leak-kinds: reachable
   fun:malloc
   fun:VSIMallocVerbose
   fun:_ZN13CPLStringList12AddNameValueEPKcS1_
   fun:_ZN23GDALMultiDomainMetadata15SetMetadataItemEPKcS1_S1_
   fun:_ZN10GDALDriver15SetMetadataItemEPKcS1_S1_
   fun:GDALRegister_BMP
   fun:GDALAllRegister
   fun:_ZN11CSimulation27bCheckRasterGISOutputFormatEv
   fun:_ZN11CSimulation13nDoSimulationEiPPKc
   fun:main
}
{
   <insert_a_suppression_name_here>
   Memcheck:Leak
   match-leak-kinds: reachable
   fun:malloc
   fun:VSIMallocVerbose
   fun:_ZN13CPLStringList12AddNameValueEPKcS1_
   fun:_ZN23GDALMultiDomainMetadata15SetMetadataItemEPKcS1_S1_
   fun:_ZN10GDALDriver15SetMetadataItemEPKcS1_S1_
   fun:GDALRegister_PCIDSK
   fun:GDALAllRegister
   fun:_ZN11CSimulation27bCheckRasterGISOutputFormatEv
   fun:_ZN11CSimulation13nDoSimulationEiPPKc
   fun:main
}
{
   <insert_a_suppression_name_here>
   Memcheck:Leak
   match-leak-kinds: reachable
   fun:malloc
   fun:VSIMallocVerbose
   fun:_ZN13CPLStringList12AddNameValueEPKcS1_
   fun:_ZN23GDALMultiDomainMetadata15SetMetadataItemEPKcS1_S1_
   fun:_ZN10GDALDriver15SetMetadataItemEPKcS1_S1_
   fun:GDALRegister_PCRaster
   fun:GDALAllRegister
   fun:_ZN11CSimulation27bCheckRasterGISOutputFormatEv
   fun:_ZN11CSimulation13nDoSimulationEiPPKc
   fun:main
}
{
   <insert_a_suppression_name_here>
   Memcheck:Leak
   match-leak-kinds: reachable
   fun:malloc
   fun:VSIMallocVerbose
   fun:_ZN13CPLStringList12AddNameValueEPKcS1_
   fun:_ZN23GDALMultiDomainMetadata15SetMetadataItemEPKcS1_S1_
   fun:_ZN10GDALDriver15SetMetadataItemEPKcS1_S1_
   fun:GDALRegister_SGI
   fun:GDALAllRegister
   fun:_ZN11CSimulation27bCheckRasterGISOutputFormatEv
   fun:_ZN11CSimulation13nDoSimulationEiPPKc
   fun:main
}
{
   <insert_a_suppression_name_here>
   Memcheck:Leak
   match-leak-kinds: reachable
   fun:malloc
   fun:VSIMallocVerbose
   fun:_ZN13CPLStringList12AddNameValueEPKcS1_
   fun:_ZN23GDALMultiDomainMetadata15SetMetadataItemEPKcS1_S1_
   fun:_ZN10GDALDriver15SetMetadataItemEPKcS1_S1_
   fun:GDALRegister_SRTMHGT
   fun:GDALAllRegister
   fun:_ZN11CSimulation27bCheckRasterGISOutputFormatEv
   fun:_ZN11CSimulation13nDoSimulationEiPPKc
   fun:main
}
{
   <insert_a_suppression_name_here>
   Memcheck:Leak
   match-leak-kinds: reachable
   fun:malloc
   fun:VSIMallocVerbose
   fun:_ZN13CPLStringList12AddNameValueEPKcS1_
   fun:_ZN23GDALMultiDomainMetadata15SetMetadataItemEPKcS1_S1_
   fun:_ZN10GDALDriver15SetMetadataItemEPKcS1_S1_
   fun:GDALRegister_Leveller
   fun:GDALAllRegister
   fun:_ZN11CSimulation27bCheckRasterGISOutputFormatEv
   fun:_ZN11CSimulation13nDoSimulationEiPPKc
   fun:main
}
{
   <insert_a_suppression_name_here>
   Memcheck:Leak
   match-leak-kinds: reachable
   fun:malloc
   fun:VSIMallocVerbose
   fun:_ZN13CPLStringList12AddNameValueEPKcS1_
   fun:_ZN23GDALMultiDomainMetadata15SetMetadataItemEPKcS1_S1_
   fun:_ZN10GDALDriver15SetMetadataItemEPKcS1_S1_
   fun:GDALRegister_Terragen
   fun:GDALAllRegister
   fun:_ZN11CSimulation27bCheckRasterGISOutputFormatEv
   fun:_ZN11CSimulation13nDoSimulationEiPPKc
   fun:main
}
{
   <insert_a_suppression_name_here>
   Memcheck:Leak
   match-leak-kinds: reachable
   fun:malloc
   fun:VSIMallocVerbose
   fun:_ZN13CPLStringList12AddNameValueEPKcS1_
   fun:_ZN23GDALMultiDomainMetadata15SetMetadataItemEPKcS1_S1_
   fun:_ZN10GDALDriver15SetMetadataItemEPKcS1_S1_
   fun:GDALRegister_HDF4
   fun:GDALAllRegister
   fun:_ZN11CSimulation27bCheckRasterGISOutputFormatEv
   fun:_ZN11CSimulation13nDoSimulationEiPPKc
   fun:main
}
{
   <insert_a_suppression_name_here>
   Memcheck:Leak
   match-leak-kinds: reachable
   fun:malloc
   fun:VSIMallocVerbose
   fun:_ZN13CPLStringList12AddNameValueEPKcS1_
   fun:_ZN23GDALMultiDomainMetadata15SetMetadataItemEPKcS1_S1_
   fun:_ZN10GDALDriver15SetMetadataItemEPKcS1_S1_
   fun:GDALRegister_PDS4
   fun:GDALAllRegister
   fun:_ZN11CSimulation27bCheckRasterGISOutputFormatEv
   fun:_ZN11CSimulation13nDoSimulationEiPPKc
   fun:main
}
{
   <insert_a_suppression_name_here>
   Memcheck:Leak
   match-leak-kinds: reachable
   fun:malloc
   fun:VSIMallocVerbose
   fun:_ZN13CPLStringList12AddNameValueEPKcS1_
   fun:_ZN23GDALMultiDomainMetadata15SetMetadataItemEPKcS1_S1_
   fun:_ZN10GDALDriver15SetMetadataItemEPKcS1_S1_
   fun:GDALRegister_ERS
   fun:GDALAllRegister
   fun:_ZN11CSimulation27bCheckRasterGISOutputFormatEv
   fun:_ZN11CSimulation13nDoSimulationEiPPKc
   fun:main
}
{
   <insert_a_suppression_name_here>
   Memcheck:Leak
   match-leak-kinds: reachable
   fun:malloc
   fun:VSIMallocVerbose
   fun:_ZN13CPLStringList12AddNameValueEPKcS1_
   fun:_ZN23GDALMultiDomainMetadata15SetMetadataItemEPKcS1_S1_
   fun:_ZN10GDALDriver15SetMetadataItemEPKcS1_S1_
   fun:GDALRegister_RMF
   fun:GDALAllRegister
   fun:_ZN11CSimulation27bCheckRasterGISOutputFormatEv
   fun:_ZN11CSimulation13nDoSimulationEiPPKc
   fun:main
}
{
   <insert_a_suppression_name_here>
   Memcheck:Leak
   match-leak-kinds: reachable
   fun:malloc
   fun:VSIMallocVerbose
   fun:_ZN13CPLStringList12AddNameValueEPKcS1_
   fun:_ZN23GDALMultiDomainMetadata15SetMetadataItemEPKcS1_S1_
   fun:_ZN10GDALDriver15SetMetadataItemEPKcS1_S1_
   fun:GDALRegister_MSGN
   fun:GDALAllRegister
   fun:_ZN11CSimulation27bCheckRasterGISOutputFormatEv
   fun:_ZN11CSimulation13nDoSimulationEiPPKc
   fun:main
}
{
   <insert_a_suppression_name_here>
   Memcheck:Leak
   match-leak-kinds: reachable
   fun:malloc
   fun:VSIMallocVerbose
   fun:_ZN13CPLStringList12AddNameValueEPKcS1_
   fun:_ZN23GDALMultiDomainMetadata15SetMetadataItemEPKcS1_S1_
   fun:_ZN10GDALDriver15SetMetadataItemEPKcS1_S1_
   fun:GDALRegister_IDRISI
   fun:GDALAllRegister
   fun:_ZN11CSimulation27bCheckRasterGISOutputFormatEv
   fun:_ZN11CSimulation13nDoSimulationEiPPKc
   fun:main
}
{
   <insert_a_suppression_name_here>
   Memcheck:Leak
   match-leak-kinds: reachable
   fun:malloc
   fun:VSIMallocVerbose
   fun:_ZN13CPLStringList12AddNameValueEPKcS1_
   fun:_ZN23GDALMultiDomainMetadata15SetMetadataItemEPKcS1_S1_
   fun:_ZN10GDALDriver15SetMetadataItemEPKcS1_S1_
   fun:GDALRegister_GSAG
   fun:GDALAllRegister
   fun:_ZN11CSimulation27bCheckRasterGISOutputFormatEv
   fun:_ZN11CSimulation13nDoSimulationEiPPKc
   fun:main
}
{
   <insert_a_suppression_name_here>
   Memcheck:Leak
   match-leak-kinds: reachable
   fun:malloc
   fun:VSIMallocVerbose
   fun:_ZN13CPLStringList12AddNameValueEPKcS1_
   fun:_ZN23GDALMultiDomainMetadata15SetMetadataItemEPKcS1_S1_
   fun:_ZN10GDALDriver15SetMetadataItemEPKcS1_S1_
   fun:GDALRegister_GSBG
   fun:GDALAllRegister
   fun:_ZN11CSimulation27bCheckRasterGISOutputFormatEv
   fun:_ZN11CSimulation13nDoSimulationEiPPKc
   fun:main
}
{
   <insert_a_suppression_name_here>
   Memcheck:Leak
   match-leak-kinds: reachable
   fun:malloc
   fun:VSIMallocVerbose
   fun:_ZN13CPLStringList12AddNameValueEPKcS1_
   fun:_ZN23GDALMultiDomainMetadata15SetMetadataItemEPKcS1_S1_
   fun:_ZN10GDALDriver15SetMetadataItemEPKcS1_S1_
   fun:GDALRegister_GS7BG
   fun:GDALAllRegister
   fun:_ZN11CSimulation27bCheckRasterGISOutputFormatEv
   fun:_ZN11CSimulation13nDoSimulationEiPPKc
   fun:main
}
{
   <insert_a_suppression_name_here>
   Memcheck:Leak
   match-leak-kinds: reachable
   fun:malloc
   fun:VSIMallocVerbose
   fun:_ZN13CPLStringList12AddNameValueEPKcS1_
   fun:_ZN23GDALMultiDomainMetadata15SetMetadataItemEPKcS1_S1_
   fun:_ZN10GDALDriver15SetMetadataItemEPKcS1_S1_
   fun:GDALRegister_COASP
   fun:GDALAllRegister
   fun:_ZN11CSimulation27bCheckRasterGISOutputFormatEv
   fun:_ZN11CSimulation13nDoSimulationEiPPKc
   fun:main
}
{
   <insert_a_suppression_name_here>
   Memcheck:Leak
   match-leak-kinds: reachable
   fun:malloc
   fun:VSIMallocVerbose
   fun:_ZN13CPLStringList12AddNameValueEPKcS1_
   fun:_ZN23GDALMultiDomainMetadata15SetMetadataItemEPKcS1_S1_
   fun:_ZN10GDALDriver15SetMetadataItemEPKcS1_S1_
   fun:GDALRegister_R
   fun:GDALAllRegister
   fun:_ZN11CSimulation27bCheckRasterGISOutputFormatEv
   fun:_ZN11CSimulation13nDoSimulationEiPPKc
   fun:main
}
{
   <insert_a_suppression_name_here>
   Memcheck:Leak
   match-leak-kinds: reachable
   fun:malloc
   fun:VSIMallocVerbose
   fun:_ZN13CPLStringList12AddNameValueEPKcS1_
   fun:_ZN23GDALMultiDomainMetadata15SetMetadataItemEPKcS1_S1_
   fun:_ZN10GDALDriver15SetMetadataItemEPKcS1_S1_
   fun:GDALRegister_PDF
   fun:GDALAllRegister
   fun:_ZN11CSimulation27bCheckRasterGISOutputFormatEv
   fun:_ZN11CSimulation13nDoSimulationEiPPKc
   fun:main
}
{
   <insert_a_suppression_name_here>
   Memcheck:Leak
   match-leak-kinds: reachable
   fun:malloc
   fun:VSIMallocVerbose
   fun:_ZN13CPLStringList12AddNameValueEPKcS1_
   fun:_ZN23GDALMultiDomainMetadata15SetMetadataItemEPKcS1_S1_
   fun:_ZN10GDALDriver15SetMetadataItemEPKcS1_S1_
   fun:GDALRegister_mrf
   fun:GDALAllRegister
   fun:_ZN11CSimulation27bCheckRasterGISOutputFormatEv
   fun:_ZN11CSimulation13nDoSimulationEiPPKc
   fun:main
}
{
   <insert_a_suppression_name_here>
   Memcheck:Leak
   match-leak-kinds: reachable
   fun:malloc
   fun:VSIMallocVerbose
   fun:_ZN13CPLStringList12AddNameValueEPKcS1_
   fun:_ZN23GDALMultiDomainMetadata15SetMetadataItemEPKcS1_S1_
   fun:_ZN10GDALDriver15SetMetadataItemEPKcS1_S1_
   fun:GDALRegister_MFF
   fun:GDALRegister_raw_no_sidecar
   fun:GDALAllRegister
   fun:_ZN11CSimulation27bCheckRasterGISOutputFormatEv
   fun:_ZN11CSimulation13nDoSimulationEiPPKc
   fun:main
}
{
   <insert_a_suppression_name_here>
   Memcheck:Leak
   match-leak-kinds: reachable
   fun:malloc
   fun:VSIMallocVerbose
   fun:_ZN13CPLStringList12AddNameValueEPKcS1_
   fun:_ZN23GDALMultiDomainMetadata15SetMetadataItemEPKcS1_S1_
   fun:_ZN10GDALDriver15SetMetadataItemEPKcS1_S1_
   fun:GDALRegister_LCP
   fun:GDALRegister_raw_no_sidecar
   fun:GDALAllRegister
   fun:_ZN11CSimulation27bCheckRasterGISOutputFormatEv
   fun:_ZN11CSimulation13nDoSimulationEiPPKc
   fun:main
}
{
   <insert_a_suppression_name_here>
   Memcheck:Leak
   match-leak-kinds: reachable
   fun:malloc
   fun:VSIMallocVerbose
   fun:_ZN13CPLStringList12AddNameValueEPKcS1_
   fun:_ZN23GDALMultiDomainMetadata15SetMetadataItemEPKcS1_S1_
   fun:_ZN10GDALDriver15SetMetadataItemEPKcS1_S1_
   fun:GDALRegister_GTX
   fun:GDALRegister_raw_no_sidecar
   fun:GDALAllRegister
   fun:_ZN11CSimulation27bCheckRasterGISOutputFormatEv
   fun:_ZN11CSimulation13nDoSimulationEiPPKc
   fun:main
}
{
   <insert_a_suppression_name_here>
   Memcheck:Leak
   match-leak-kinds: reachable
   fun:malloc
   fun:VSIMallocVerbose
   fun:_ZN13CPLStringList12AddNameValueEPKcS1_
   fun:_ZN23GDALMultiDomainMetadata15SetMetadataItemEPKcS1_S1_
   fun:_ZN10GDALDriver15SetMetadataItemEPKcS1_S1_
   fun:GDALRegister_SNODAS
   fun:GDALRegister_raw_no_sidecar
   fun:GDALAllRegister
   fun:_ZN11CSimulation27bCheckRasterGISOutputFormatEv
   fun:_ZN11CSimulation13nDoSimulationEiPPKc
   fun:main
}
{
   <insert_a_suppression_name_here>
   Memcheck:Leak
   match-leak-kinds: reachable
   fun:malloc
   fun:VSIMallocVerbose
   fun:_ZN13CPLStringList12AddNameValueEPKcS1_
   fun:_ZN23GDALMultiDomainMetadata15SetMetadataItemEPKcS1_S1_
   fun:_ZN10GDALDriver15SetMetadataItemEPKcS1_S1_
   fun:GDALRegister_KRO
   fun:GDALRegister_raw_no_sidecar
   fun:GDALAllRegister
   fun:_ZN11CSimulation27bCheckRasterGISOutputFormatEv
   fun:_ZN11CSimulation13nDoSimulationEiPPKc
   fun:main
}
{
   <insert_a_suppression_name_here>
   Memcheck:Leak
   match-leak-kinds: reachable
   fun:malloc
   fun:VSIMallocVerbose
   fun:_ZN13CPLStringList12AddNameValueEPKcS1_
   fun:_ZN23GDALMultiDomainMetadata15SetMetadataItemEPKcS1_S1_
   fun:_ZN10GDALDriver15SetMetadataItemEPKcS1_S1_
   fun:GDALRegister_RRASTER
   fun:GDALRegister_raw_no_sidecar
   fun:GDALAllRegister
   fun:_ZN11CSimulation27bCheckRasterGISOutputFormatEv
   fun:_ZN11CSimulation13nDoSimulationEiPPKc
   fun:main
}
{
   <insert_a_suppression_name_here>
   Memcheck:Leak
   match-leak-kinds: reachable
   fun:malloc
   fun:VSIMallocVerbose
   fun:_ZN13CPLStringList12AddNameValueEPKcS1_
   fun:_ZN23GDALMultiDomainMetadata15SetMetadataItemEPKcS1_S1_
   fun:_ZN10GDALDriver15SetMetadataItemEPKcS1_S1_
   fun:GDALRegister_NSIDCbin
   fun:GDALAllRegister
   fun:_ZN11CSimulation27bCheckRasterGISOutputFormatEv
   fun:_ZN11CSimulation13nDoSimulationEiPPKc
   fun:main
}
{
   <insert_a_suppression_name_here>
   Memcheck:Leak
   match-leak-kinds: reachable
   fun:malloc
   fun:VSIMallocVerbose
   fun:_ZN13CPLStringList12AddNameValueEPKcS1_
   fun:_ZN23GDALMultiDomainMetadata15SetMetadataItemEPKcS1_S1_
   fun:_ZN10GDALDriver15SetMetadataItemEPKcS1_S1_
   fun:GDALRegister_RIK
   fun:GDALAllRegister
   fun:_ZN11CSimulation27bCheckRasterGISOutputFormatEv
   fun:_ZN11CSimulation13nDoSimulationEiPPKc
   fun:main
}
{
   <insert_a_suppression_name_here>
   Memcheck:Leak
   match-leak-kinds: reachable
   fun:malloc
   fun:VSIMallocVerbose
   fun:_ZN13CPLStringList12AddNameValueEPKcS1_
   fun:_ZN23GDALMultiDomainMetadata15SetMetadataItemEPKcS1_S1_
   fun:_ZN10GDALDriver15SetMetadataItemEPKcS1_S1_
   fun:GDALRegister_USGSDEM
   fun:GDALAllRegister
   fun:_ZN11CSimulation27bCheckRasterGISOutputFormatEv
   fun:_ZN11CSimulation13nDoSimulationEiPPKc
   fun:main
}
{
   <insert_a_suppression_name_here>
   Memcheck:Leak
   match-leak-kinds: reachable
   fun:malloc
   fun:VSIMallocVerbose
   fun:_ZN13CPLStringList12AddNameValueEPKcS1_
   fun:_ZN23GDALMultiDomainMetadata15SetMetadataItemEPKcS1_S1_
   fun:_ZN10GDALDriver15SetMetadataItemEPKcS1_S1_
   fun:GDALRegister_GXF
   fun:GDALAllRegister
   fun:_ZN11CSimulation27bCheckRasterGISOutputFormatEv
   fun:_ZN11CSimulation13nDoSimulationEiPPKc
   fun:main
}
{
   <insert_a_suppression_name_here>
   Memcheck:Leak
   match-leak-kinds: reachable
   fun:malloc
   fun:VSIMallocVerbose
   fun:_ZN13CPLStringList12AddNameValueEPKcS1_
   fun:_ZN23GDALMultiDomainMetadata15SetMetadataItemEPKcS1_S1_
   fun:_ZN10GDALDriver15SetMetadataItemEPKcS1_S1_
   fun:GDALRegister_BAG
   fun:GDALAllRegister
   fun:_ZN11CSimulation27bCheckRasterGISOutputFormatEv
   fun:_ZN11CSimulation13nDoSimulationEiPPKc
   fun:main
}
{
   <insert_a_suppression_name_here>
   Memcheck:Leak
   match-leak-kinds: reachable
   fun:malloc
   fun:VSIMallocVerbose
   fun:_ZN13CPLStringList12AddNameValueEPKcS1_
   fun:_ZN23GDALMultiDomainMetadata15SetMetadataItemEPKcS1_S1_
   fun:_ZN10GDALDriver15SetMetadataItemEPKcS1_S1_
   fun:GDALRegister_NWT_GRD
   fun:GDALAllRegister
   fun:_ZN11CSimulation27bCheckRasterGISOutputFormatEv
   fun:_ZN11CSimulation13nDoSimulationEiPPKc
   fun:main
}
{
   <insert_a_suppression_name_here>
   Memcheck:Leak
   match-leak-kinds: reachable
   fun:malloc
   fun:VSIMallocVerbose
   fun:_ZN13CPLStringList12AddNameValueEPKcS1_
   fun:_ZN23GDALMultiDomainMetadata15SetMetadataItemEPKcS1_S1_
   fun:_ZN10GDALDriver15SetMetadataItemEPKcS1_S1_
   fun:GDALRegister_NWT_GRC
   fun:GDALAllRegister
   fun:_ZN11CSimulation27bCheckRasterGISOutputFormatEv
   fun:_ZN11CSimulation13nDoSimulationEiPPKc
   fun:main
}
{
   <insert_a_suppression_name_here>
   Memcheck:Leak
   match-leak-kinds: reachable
   fun:malloc
   fun:VSIMallocVerbose
   fun:_ZN13CPLStringList12AddNameValueEPKcS1_
   fun:_ZN23GDALMultiDomainMetadata15SetMetadataItemEPKcS1_S1_
   fun:_ZN10GDALDriver15SetMetadataItemEPKcS1_S1_
   fun:GDALRegister_ADRG
   fun:GDALAllRegister
   fun:_ZN11CSimulation27bCheckRasterGISOutputFormatEv
   fun:_ZN11CSimulation13nDoSimulationEiPPKc
   fun:main
}
{
   <insert_a_suppression_name_here>
   Memcheck:Leak
   match-leak-kinds: reachable
   fun:malloc
   fun:VSIMallocVerbose
   fun:_ZN13CPLStringList12AddNameValueEPKcS1_
   fun:_ZN23GDALMultiDomainMetadata15SetMetadataItemEPKcS1_S1_
   fun:_ZN10GDALDriver15SetMetadataItemEPKcS1_S1_
   fun:GDALRegister_SRP
   fun:GDALAllRegister
   fun:_ZN11CSimulation27bCheckRasterGISOutputFormatEv
   fun:_ZN11CSimulation13nDoSimulationEiPPKc
   fun:main
}
{
   <insert_a_suppression_name_here>
   Memcheck:Leak
   match-leak-kinds: reachable
   fun:malloc
   fun:VSIMallocVerbose
   fun:_ZN13CPLStringList12AddNameValueEPKcS1_
   fun:_ZN23GDALMultiDomainMetadata15SetMetadataItemEPKcS1_S1_
   fun:_ZN10GDALDriver15SetMetadataItemEPKcS1_S1_
   fun:GDALRegister_BLX
   fun:GDALAllRegister
   fun:_ZN11CSimulation27bCheckRasterGISOutputFormatEv
   fun:_ZN11CSimulation13nDoSimulationEiPPKc
   fun:main
}
{
   <insert_a_suppression_name_here>
   Memcheck:Leak
   match-leak-kinds: reachable
   fun:malloc
   fun:VSIMallocVerbose
   fun:_ZN13CPLStringList12AddNameValueEPKcS1_
   fun:_ZN23GDALMultiDomainMetadata15SetMetadataItemEPKcS1_S1_
   fun:_ZN10GDALDriver15SetMetadataItemEPKcS1_S1_
   fun:GDALRegister_XYZ
   fun:GDALAllRegister
   fun:_ZN11CSimulation27bCheckRasterGISOutputFormatEv
   fun:_ZN11CSimulation13nDoSimulationEiPPKc
   fun:main
}
{
   <insert_a_suppression_name_here>
   Memcheck:Leak
   match-leak-kinds: reachable
   fun:malloc
   fun:VSIMallocVerbose
   fun:_ZN13CPLStringList12AddNameValueEPKcS1_
   fun:_ZN23GDALMultiDomainMetadata15SetMetadataItemEPKcS1_S1_
   fun:_ZN10GDALDriver15SetMetadataItemEPKcS1_S1_
   fun:GDALRegister_HF2
   fun:GDALAllRegister
   fun:_ZN11CSimulation27bCheckRasterGISOutputFormatEv
   fun:_ZN11CSimulation13nDoSimulationEiPPKc
   fun:main
}
{
   <insert_a_suppression_name_here>
   Memcheck:Leak
   match-leak-kinds: reachable
   fun:malloc
   fun:VSIMallocVerbose
   fun:_ZN13CPLStringList12AddNameValueEPKcS1_
   fun:_ZN23GDALMultiDomainMetadata15SetMetadataItemEPKcS1_S1_
   fun:_ZN10GDALDriver15SetMetadataItemEPKcS1_S1_
   fun:GDALRegister_ZMap
   fun:GDALAllRegister
   fun:_ZN11CSimulation27bCheckRasterGISOutputFormatEv
   fun:_ZN11CSimulation13nDoSimulationEiPPKc
   fun:main
}
{
   <insert_a_suppression_name_here>
   Memcheck:Leak
   match-leak-kinds: reachable
   fun:malloc
   fun:VSIMallocVerbose
   fun:_ZN13CPLStringList12AddNameValueEPKcS1_
   fun:_ZN23GDALMultiDomainMetadata15SetMetadataItemEPKcS1_S1_
   fun:_ZN10GDALDriver15SetMetadataItemEPKcS1_S1_
   fun:GDALRegister_NGSGEOID
   fun:GDALAllRegister
   fun:_ZN11CSimulation27bCheckRasterGISOutputFormatEv
   fun:_ZN11CSimulation13nDoSimulationEiPPKc
   fun:main
}
{
   <insert_a_suppression_name_here>
   Memcheck:Leak
   match-leak-kinds: reachable
   fun:malloc
   fun:VSIMallocVerbose
   fun:_ZN13CPLStringList12AddNameValueEPKcS1_
   fun:_ZN23GDALMultiDomainMetadata15SetMetadataItemEPKcS1_S1_
   fun:_ZN10GDALDriver15SetMetadataItemEPKcS1_S1_
   fun:GDALRegister_IRIS
   fun:GDALAllRegister
   fun:_ZN11CSimulation27bCheckRasterGISOutputFormatEv
   fun:_ZN11CSimulation13nDoSimulationEiPPKc
   fun:main
}
{
   <insert_a_suppression_name_here>
   Memcheck:Leak
   match-leak-kinds: reachable
   fun:malloc
   fun:VSIMallocVerbose
   fun:_ZN13CPLStringList12AddNameValueEPKcS1_
   fun:_ZN23GDALMultiDomainMetadata15SetMetadataItemEPKcS1_S1_
   fun:_ZN10GDALDriver15SetMetadataItemEPKcS1_S1_
   fun:GDALRegister_PRF
   fun:GDALAllRegister
   fun:_ZN11CSimulation27bCheckRasterGISOutputFormatEv
   fun:_ZN11CSimulation13nDoSimulationEiPPKc
   fun:main
}
{
   <insert_a_suppression_name_here>
   Memcheck:Leak
   match-leak-kinds: reachable
   fun:malloc
   fun:VSIMallocVerbose
   fun:_ZN13CPLStringList12AddNameValueEPKcS1_
   fun:_ZN23GDALMultiDomainMetadata15SetMetadataItemEPKcS1_S1_
   fun:_ZN10GDALDriver15SetMetadataItemEPKcS1_S1_
   fun:GDALRegister_TGA
   fun:GDALAllRegister
   fun:_ZN11CSimulation27bCheckRasterGISOutputFormatEv
   fun:_ZN11CSimulation13nDoSimulationEiPPKc
   fun:main
}
{
   <insert_a_suppression_name_here>
   Memcheck:Leak
   match-leak-kinds: reachable
   fun:malloc
   fun:VSIMallocVerbose
   fun:_ZN13CPLStringList12AddNameValueEPKcS1_
   fun:_ZN23GDALMultiDomainMetadata15SetMetadataItemEPKcS1_S1_
   fun:_ZN10GDALDriver15SetMetadataItemEPKcS1_S1_
   fun:RegisterOGRLVBAG
   fun:GDALAllRegister
   fun:_ZN11CSimulation27bCheckRasterGISOutputFormatEv
   fun:_ZN11CSimulation13nDoSimulationEiPPKc
   fun:main
}
{
   <insert_a_suppression_name_here>
   Memcheck:Leak
   match-leak-kinds: reachable
   fun:malloc
   fun:VSIMallocVerbose
   fun:_ZN13CPLStringList12AddNameValueEPKcS1_
   fun:_ZN23GDALMultiDomainMetadata15SetMetadataItemEPKcS1_S1_
   fun:_ZN10GDALDriver15SetMetadataItemEPKcS1_S1_
   fun:RegisterOGRS57
   fun:GDALAllRegister
   fun:_ZN11CSimulation27bCheckRasterGISOutputFormatEv
   fun:_ZN11CSimulation13nDoSimulationEiPPKc
   fun:main
}
{
   <insert_a_suppression_name_here>
   Memcheck:Leak
   match-leak-kinds: reachable
   fun:malloc
   fun:VSIMallocVerbose
   fun:_ZN13CPLStringList12AddNameValueEPKcS1_
   fun:_ZN23GDALMultiDomainMetadata15SetMetadataItemEPKcS1_S1_
   fun:_ZN10GDALDriver15SetMetadataItemEPKcS1_S1_
   fun:RegisterOGRDGN
   fun:GDALAllRegister
   fun:_ZN11CSimulation27bCheckRasterGISOutputFormatEv
   fun:_ZN11CSimulation13nDoSimulationEiPPKc
   fun:main
}
{
   <insert_a_suppression_name_here>
   Memcheck:Leak
   match-leak-kinds: reachable
   fun:malloc
   fun:VSIMallocVerbose
   fun:_ZN13CPLStringList12AddNameValueEPKcS1_
   fun:_ZN23GDALMultiDomainMetadata15SetMetadataItemEPKcS1_S1_
   fun:_ZN10GDALDriver15SetMetadataItemEPKcS1_S1_
   fun:RegisterOGRVRT
   fun:GDALAllRegister
   fun:_ZN11CSimulation27bCheckRasterGISOutputFormatEv
   fun:_ZN11CSimulation13nDoSimulationEiPPKc
   fun:main
}
{
   <insert_a_suppression_name_here>
   Memcheck:Leak
   match-leak-kinds: reachable
   fun:malloc
   fun:VSIMallocVerbose
   fun:_ZN13CPLStringList12AddNameValueEPKcS1_
   fun:_ZN23GDALMultiDomainMetadata15SetMetadataItemEPKcS1_S1_
   fun:_ZN10GDALDriver15SetMetadataItemEPKcS1_S1_
   fun:RegisterOGRNAS
   fun:GDALAllRegister
   fun:_ZN11CSimulation27bCheckRasterGISOutputFormatEv
   fun:_ZN11CSimulation13nDoSimulationEiPPKc
   fun:main
}
{
   <insert_a_suppression_name_here>
   Memcheck:Leak
   match-leak-kinds: reachable
   fun:malloc
   fun:VSIMallocVerbose
   fun:_ZN13CPLStringList12AddNameValueEPKcS1_
   fun:_ZN23GDALMultiDomainMetadata15SetMetadataItemEPKcS1_S1_
   fun:_ZN10GDALDriver15SetMetadataItemEPKcS1_S1_
   fun:RegisterOGRGPX
   fun:GDALAllRegister
   fun:_ZN11CSimulation27bCheckRasterGISOutputFormatEv
   fun:_ZN11CSimulation13nDoSimulationEiPPKc
   fun:main
}
{
   <insert_a_suppression_name_here>
   Memcheck:Leak
   match-leak-kinds: reachable
   fun:malloc
   fun:VSIMallocVerbose
   fun:_ZN13CPLStringList12AddNameValueEPKcS1_
   fun:_ZN23GDALMultiDomainMetadata15SetMetadataItemEPKcS1_S1_
   fun:_ZN10GDALDriver15SetMetadataItemEPKcS1_S1_
   fun:RegisterOGRKML
   fun:GDALAllRegister
   fun:_ZN11CSimulation27bCheckRasterGISOutputFormatEv
   fun:_ZN11CSimulation13nDoSimulationEiPPKc
   fun:main
}
{
   <insert_a_suppression_name_here>
   Memcheck:Leak
   match-leak-kinds: reachable
   fun:malloc
   fun:VSIMallocVerbose
   fun:_ZN13CPLStringList12AddNameValueEPKcS1_
   fun:_ZN23GDALMultiDomainMetadata15SetMetadataItemEPKcS1_S1_
   fun:_ZN10GDALDriver15SetMetadataItemEPKcS1_S1_
   fun:RegisterOGRGMT
   fun:GDALAllRegister
   fun:_ZN11CSimulation27bCheckRasterGISOutputFormatEv
   fun:_ZN11CSimulation13nDoSimulationEiPPKc
   fun:main
}
{
   <insert_a_suppression_name_here>
   Memcheck:Leak
   match-leak-kinds: reachable
   fun:malloc
   fun:VSIMallocVerbose
   fun:_ZN13CPLStringList12AddNameValueEPKcS1_
   fun:_ZN23GDALMultiDomainMetadata15SetMetadataItemEPKcS1_S1_
   fun:_ZN10GDALDriver15SetMetadataItemEPKcS1_S1_
   fun:RegisterOGRWAsP
   fun:GDALAllRegister
   fun:_ZN11CSimulation27bCheckRasterGISOutputFormatEv
   fun:_ZN11CSimulation13nDoSimulationEiPPKc
   fun:main
}
{
   <insert_a_suppression_name_here>
   Memcheck:Leak
   match-leak-kinds: reachable
   fun:malloc
   fun:VSIMallocVerbose
   fun:_ZN13CPLStringList12AddNameValueEPKcS1_
   fun:_ZN23GDALMultiDomainMetadata15SetMetadataItemEPKcS1_S1_
   fun:_ZN10GDALDriver15SetMetadataItemEPKcS1_S1_
   fun:RegisterOGRPGeo
   fun:GDALAllRegister
   fun:_ZN11CSimulation27bCheckRasterGISOutputFormatEv
   fun:_ZN11CSimulation13nDoSimulationEiPPKc
   fun:main
}
{
   <insert_a_suppression_name_here>
   Memcheck:Leak
   match-leak-kinds: reachable
   fun:malloc
   fun:VSIMallocVerbose
   fun:_ZN13CPLStringList12AddNameValueEPKcS1_
   fun:_ZN23GDALMultiDomainMetadata15SetMetadataItemEPKcS1_S1_
   fun:_ZN10GDALDriver15SetMetadataItemEPKcS1_S1_
   fun:RegisterOGROpenFileGDB
   fun:GDALAllRegister
   fun:_ZN11CSimulation27bCheckRasterGISOutputFormatEv
   fun:_ZN11CSimulation13nDoSimulationEiPPKc
   fun:main
}
{
   <insert_a_suppression_name_here>
   Memcheck:Leak
   match-leak-kinds: reachable
   fun:malloc
   fun:VSIMallocVerbose
   fun:_ZN13CPLStringList12AddNameValueEPKcS1_
   fun:_ZN23GDALMultiDomainMetadata15SetMetadataItemEPKcS1_S1_
   fun:_ZN10GDALDriver15SetMetadataItemEPKcS1_S1_
   fun:RegisterOGRDXF
   fun:GDALAllRegister
   fun:_ZN11CSimulation27bCheckRasterGISOutputFormatEv
   fun:_ZN11CSimulation13nDoSimulationEiPPKc
   fun:main
}
{
   <insert_a_suppression_name_here>
   Memcheck:Leak
   match-leak-kinds: reachable
   fun:malloc
   fun:VSIMallocVerbose
   fun:_ZN13CPLStringList12AddNameValueEPKcS1_
   fun:_ZN23GDALMultiDomainMetadata15SetMetadataItemEPKcS1_S1_
   fun:_ZN10GDALDriver15SetMetadataItemEPKcS1_S1_
   fun:RegisterOGRCAD
   fun:GDALAllRegister
   fun:_ZN11CSimulation27bCheckRasterGISOutputFormatEv
   fun:_ZN11CSimulation13nDoSimulationEiPPKc
   fun:main
}
{
   <insert_a_suppression_name_here>
   Memcheck:Leak
   match-leak-kinds: reachable
   fun:malloc
   fun:VSIMallocVerbose
   fun:_ZN13CPLStringList12AddNameValueEPKcS1_
   fun:_ZN23GDALMultiDomainMetadata15SetMetadataItemEPKcS1_S1_
   fun:_ZN10GDALDriver15SetMetadataItemEPKcS1_S1_
   fun:RegisterOGRFlatGeobuf
   fun:GDALAllRegister
   fun:_ZN11CSimulation27bCheckRasterGISOutputFormatEv
   fun:_ZN11CSimulation13nDoSimulationEiPPKc
   fun:main
}
{
   <insert_a_suppression_name_here>
   Memcheck:Leak
   match-leak-kinds: reachable
   fun:malloc
   fun:VSIMallocVerbose
   fun:_ZN13CPLStringList12AddNameValueEPKcS1_
   fun:_ZN23GDALMultiDomainMetadata15SetMetadataItemEPKcS1_S1_
   fun:_ZN10GDALDriver15SetMetadataItemEPKcS1_S1_
   fun:RegisterOGRVFK
   fun:GDALAllRegister
   fun:_ZN11CSimulation27bCheckRasterGISOutputFormatEv
   fun:_ZN11CSimulation13nDoSimulationEiPPKc
   fun:main
}
{
   <insert_a_suppression_name_here>
   Memcheck:Leak
   match-leak-kinds: reachable
   fun:malloc
   fun:VSIMallocVerbose
   fun:_ZN13CPLStringList12AddNameValueEPKcS1_
   fun:_ZN23GDALMultiDomainMetadata15SetMetadataItemEPKcS1_S1_
   fun:_ZN10GDALDriver15SetMetadataItemEPKcS1_S1_
   fun:RegisterOGRPGDump
   fun:GDALAllRegister
   fun:_ZN11CSimulation27bCheckRasterGISOutputFormatEv
   fun:_ZN11CSimulation13nDoSimulationEiPPKc
   fun:main
}
{
   <insert_a_suppression_name_here>
   Memcheck:Leak
   match-leak-kinds: reachable
   fun:malloc
   fun:VSIMallocVerbose
   fun:_ZN13CPLStringList12AddNameValueEPKcS1_
   fun:_ZN23GDALMultiDomainMetadata15SetMetadataItemEPKcS1_S1_
   fun:_ZN10GDALDriver15SetMetadataItemEPKcS1_S1_
   fun:RegisterOGREDIGEO
   fun:GDALAllRegister
   fun:_ZN11CSimulation27bCheckRasterGISOutputFormatEv
   fun:_ZN11CSimulation13nDoSimulationEiPPKc
   fun:main
}
{
   <insert_a_suppression_name_here>
   Memcheck:Leak
   match-leak-kinds: reachable
   fun:malloc
   fun:VSIMallocVerbose
   fun:_ZN13CPLStringList12AddNameValueEPKcS1_
   fun:_ZN23GDALMultiDomainMetadata15SetMetadataItemEPKcS1_S1_
   fun:_ZN10GDALDriver15SetMetadataItemEPKcS1_S1_
   fun:RegisterOGRSVG
   fun:GDALAllRegister
   fun:_ZN11CSimulation27bCheckRasterGISOutputFormatEv
   fun:_ZN11CSimulation13nDoSimulationEiPPKc
   fun:main
}
{
   <insert_a_suppression_name_here>
   Memcheck:Leak
   match-leak-kinds: reachable
   fun:malloc
   fun:VSIMallocVerbose
   fun:_ZN13CPLStringList12AddNameValueEPKcS1_
   fun:_ZN23GDALMultiDomainMetadata15SetMetadataItemEPKcS1_S1_
   fun:_ZN10GDALDriver15SetMetadataItemEPKcS1_S1_
   fun:RegisterOGRIdrisi
   fun:GDALAllRegister
   fun:_ZN11CSimulation27bCheckRasterGISOutputFormatEv
   fun:_ZN11CSimulation13nDoSimulationEiPPKc
   fun:main
}
{
   <insert_a_suppression_name_here>
   Memcheck:Leak
   match-leak-kinds: reachable
   fun:malloc
   fun:VSIMallocVerbose
   fun:_ZN13CPLStringList12AddNameValueEPKcS1_
   fun:_ZN23GDALMultiDomainMetadata15SetMetadataItemEPKcS1_S1_
   fun:_ZN10GDALDriver15SetMetadataItemEPKcS1_S1_
   fun:RegisterOGRXLS
   fun:GDALAllRegister
   fun:_ZN11CSimulation27bCheckRasterGISOutputFormatEv
   fun:_ZN11CSimulation13nDoSimulationEiPPKc
   fun:main
}
{
   <insert_a_suppression_name_here>
   Memcheck:Leak
   match-leak-kinds: reachable
   fun:malloc
   fun:VSIMallocVerbose
   fun:_ZN13CPLStringList12AddNameValueEPKcS1_
   fun:_ZN23GDALMultiDomainMetadata15SetMetadataItemEPKcS1_S1_
   fun:_ZN10GDALDriver15SetMetadataItemEPKcS1_S1_
   fun:RegisterOGRODS
   fun:GDALAllRegister
   fun:_ZN11CSimulation27bCheckRasterGISOutputFormatEv
   fun:_ZN11CSimulation13nDoSimulationEiPPKc
   fun:main
}
{
   <insert_a_suppression_name_here>
   Memcheck:Leak
   match-leak-kinds: reachable
   fun:malloc
   fun:VSIMallocVerbose
   fun:_ZN13CPLStringList12AddNameValueEPKcS1_
   fun:_ZN23GDALMultiDomainMetadata15SetMetadataItemEPKcS1_S1_
   fun:_ZN10GDALDriver15SetMetadataItemEPKcS1_S1_
   fun:RegisterOGRSXF
   fun:GDALAllRegister
   fun:_ZN11CSimulation27bCheckRasterGISOutputFormatEv
   fun:_ZN11CSimulation13nDoSimulationEiPPKc
   fun:main
}
{
   <insert_a_suppression_name_here>
   Memcheck:Leak
   match-leak-kinds: reachable
   fun:malloc
   fun:VSIMallocVerbose
   fun:_ZN13CPLStringList12AddNameValueEPKcS1_
   fun:_ZN23GDALMultiDomainMetadata15SetMetadataItemEPKcS1_S1_
   fun:_ZN10GDALDriver15SetMetadataItemEPKcS1_S1_
   fun:RegisterOGRJML
   fun:GDALAllRegister
   fun:_ZN11CSimulation27bCheckRasterGISOutputFormatEv
   fun:_ZN11CSimulation13nDoSimulationEiPPKc
   fun:main
}
{
   <insert_a_suppression_name_here>
   Memcheck:Leak
   match-leak-kinds: reachable
   fun:malloc
   fun:VSIMallocVerbose
   fun:_ZN13CPLStringList12SetNameValueEPKcS1_
   fun:_ZN23GDALMultiDomainMetadata15SetMetadataItemEPKcS1_S1_
   fun:RegisterOGRMapML
   fun:GDALAllRegister
   fun:_ZN11CSimulation27bCheckRasterGISOutputFormatEv
   fun:_ZN11CSimulation13nDoSimulationEiPPKc
   fun:main
}
{
   <insert_a_suppression_name_here>
   Memcheck:Leak
   match-leak-kinds: reachable
   fun:malloc
   fun:VSIMallocVerbose
   fun:_ZN13CPLStringList12AddNameValueEPKcS1_
   fun:_ZN23GDALMultiDomainMetadata15SetMetadataItemEPKcS1_S1_
   fun:_ZN10GDALDriver15SetMetadataItemEPKcS1_S1_
   fun:RegisterOGRGTFS
   fun:GDALAllRegister
   fun:_ZN11CSimulation27bCheckRasterGISOutputFormatEv
   fun:_ZN11CSimulation13nDoSimulationEiPPKc
   fun:main
}
{
   <insert_a_suppression_name_here>
   Memcheck:Leak
   match-leak-kinds: reachable
   fun:malloc
   fun:VSIMallocVerbose
   fun:_ZN13CPLStringList12AddNameValueEPKcS1_
   fun:_ZN23GDALMultiDomainMetadata15SetMetadataItemEPKcS1_S1_
   fun:_ZN10GDALDriver15SetMetadataItemEPKcS1_S1_
   fun:RegisterOGRJSONFG
   fun:GDALAllRegister
   fun:_ZN11CSimulation27bCheckRasterGISOutputFormatEv
   fun:_ZN11CSimulation13nDoSimulationEiPPKc
   fun:main
}
{
   <insert_a_suppression_name_here>
   Memcheck:Leak
   match-leak-kinds: reachable
   fun:malloc
   fun:VSIMallocVerbose
   fun:_ZN13CPLStringList12AddNameValueEPKcS1_
   fun:_ZN23GDALMultiDomainMetadata15SetMetadataItemEPKcS1_S1_
   fun:_ZN10GDALDriver15SetMetadataItemEPKcS1_S1_
   fun:RegisterOGRAVCE00
   fun:GDALAllRegister
   fun:_ZN11CSimulation27bCheckRasterGISOutputFormatEv
   fun:_ZN11CSimulation13nDoSimulationEiPPKc
   fun:main
}
{
   <insert_a_suppression_name_here>
   Memcheck:Leak
   match-leak-kinds: reachable
   fun:malloc
   fun:VSIMallocVerbose
   fun:_ZN13CPLStringList12AddNameValueEPKcS1_
   fun:_ZN23GDALMultiDomainMetadata15SetMetadataItemEPKcS1_S1_
   fun:_ZN10GDALDriver15SetMetadataItemEPKcS1_S1_
   fun:GDALRegister_EHdr
   fun:GDALRegister_raw_with_sidecar
   fun:GDALAllRegister
   fun:_ZN11CSimulation27bCheckRasterGISOutputFormatEv
   fun:_ZN11CSimulation13nDoSimulationEiPPKc
   fun:main
}
{
   <insert_a_suppression_name_here>
   Memcheck:Leak
   match-leak-kinds: possible
   fun:malloc
   fun:CPLMalloc
   fun:CPLStrdup
   fun:_ZN14OGRFeatureDefnC1EPKc
   obj:/usr/lib/x86_64-linux-gnu/libgdal.so.36.3.10.2
   obj:/usr/lib/x86_64-linux-gnu/libgdal.so.36.3.10.2
   fun:_ZN11GDALDataset11CreateLayerEPKcPK16OGRGeomFieldDefnPKS1_
   fun:_ZN11GDALDataset11CreateLayerEPKcPK19OGRSpatialReference18OGRwkbGeometryTypePKS1_
   fun:_ZN11CSimulation19bWriteVectorGISFileEiPKNSt7__cxx1112basic_stringIcSt11char_traitsIcESaIcEEE
   fun:_ZN11CSimulation22bSaveAllVectorGISFilesEv
   fun:_ZN11CSimulation13nDoSimulationEiPPKc
   fun:main
}
{
   <insert_a_suppression_name_here>
   Memcheck:Leak
   match-leak-kinds: reachable
   fun:malloc
   fun:VSIMallocVerbose
   fun:_ZN13CPLStringList12AddNameValueEPKcS1_
   fun:_ZN23GDALMultiDomainMetadata15SetMetadataItemEPKcS1_S1_
   fun:_ZN10GDALDriver15SetMetadataItemEPKcS1_S1_
   fun:GDALRegister_WEBP
   fun:GDALAllRegister
   fun:_ZN11CSimulation27bCheckRasterGISOutputFormatEv
   fun:_ZN11CSimulation13nDoSimulationEiPPKc
   fun:main
}
{
   <insert_a_suppression_name_here>
   Memcheck:Leak
   match-leak-kinds: reachable
   fun:malloc
   fun:VSIMallocVerbose
   fun:_ZN13CPLStringList12AddNameValueEPKcS1_
   fun:_ZN23GDALMultiDomainMetadata15SetMetadataItemEPKcS1_S1_
   fun:_ZN10GDALDriver15SetMetadataItemEPKcS1_S1_
   fun:GDALRegister_ACE2
   fun:GDALRegister_raw_no_sidecar
   fun:GDALAllRegister
   fun:_ZN11CSimulation27bCheckRasterGISOutputFormatEv
   fun:_ZN11CSimulation13nDoSimulationEiPPKc
   fun:main
}
{
   <insert_a_suppression_name_here>
   Memcheck:Leak
   match-leak-kinds: reachable
   fun:malloc
   fun:VSIMallocVerbose
   fun:_ZN13CPLStringList12AddNameValueEPKcS1_
   fun:_ZN23GDALMultiDomainMetadata15SetMetadataItemEPKcS1_S1_
   fun:_ZN10GDALDriver15SetMetadataItemEPKcS1_S1_
   fun:GDALRegister_AVIF
   fun:GDALAllRegister
   fun:_ZN11CSimulation27bCheckRasterGISOutputFormatEv
   fun:_ZN11CSimulation13nDoSimulationEiPPKc
   fun:main
}
{
   <insert_a_suppression_name_here>
   Memcheck:Leak
   match-leak-kinds: reachable
   fun:malloc
   fun:VSIMallocVerbose
   fun:_ZN13CPLStringList12AddNameValueEPKcS1_
   fun:_ZN23GDALMultiDomainMetadata15SetMetadataItemEPKcS1_S1_
   fun:_ZN10GDALDriver15SetMetadataItemEPKcS1_S1_
   fun:GDALRegister_HEIF
   fun:GDALAllRegister
   fun:_ZN11CSimulation27bCheckRasterGISOutputFormatEv
   fun:_ZN11CSimulation13nDoSimulationEiPPKc
   fun:main
}
{
   <insert_a_suppression_name_here>
   Memcheck:Leak
   match-leak-kinds: reachable
   fun:malloc
   fun:VSIMallocVerbose
   fun:_ZN13CPLStringList12AddNameValueEPKcS1_
   fun:_ZN23GDALMultiDomainMetadata15SetMetadataItemEPKcS1_S1_
   fun:_ZN10GDALDriver15SetMetadataItemEPKcS1_S1_
   fun:GDALRegister_STACTA
   fun:GDALAllRegister
   fun:_ZN11CSimulation27bCheckRasterGISOutputFormatEv
   fun:_ZN11CSimulation13nDoSimulationEiPPKc
   fun:main
}
{
   <insert_a_suppression_name_here>
   Memcheck:Leak
   match-leak-kinds: reachable
   fun:malloc
   fun:VSIMallocVerbose
   fun:_ZN13CPLStringList12AddNameValueEPKcS1_
   fun:_ZN23GDALMultiDomainMetadata15SetMetadataItemEPKcS1_S1_
   fun:_ZN10GDALDriver15SetMetadataItemEPKcS1_S1_
   fun:RegisterOGRESRIJSON
   fun:GDALAllRegister
   fun:_ZN11CSimulation27bCheckRasterGISOutputFormatEv
   fun:_ZN11CSimulation13nDoSimulationEiPPKc
   fun:main
}
{
   <insert_a_suppression_name_here>
   Memcheck:Leak
   match-leak-kinds: reachable
   fun:_Znwm
   obj:/usr/lib/x86_64-linux-gnu/libgdal.so.36.3.10.2
   fun:GDALRegister_VRT
   fun:GDALAllRegister
   fun:_ZN11CSimulation27bCheckRasterGISOutputFormatEv
   fun:_ZN11CSimulation13nDoSimulationEiPPKc
   fun:main
}
{
   <insert_a_suppression_name_here>
   Memcheck:Leak
   match-leak-kinds: reachable
   fun:malloc
   fun:VSIStrdup
   fun:VSIStrdupVerbose
   fun:CSLAddStringMayFail
   fun:CSLAddString
   fun:CSLAddNameValue
   obj:/usr/lib/x86_64-linux-gnu/libgdal.so.36.3.10.2
   fun:GDALRegister_VRT
   fun:GDALAllRegister
   fun:_ZN11CSimulation27bCheckRasterGISOutputFormatEv
   fun:_ZN11CSimulation13nDoSimulationEiPPKc
   fun:main
}
{
   <insert_a_suppression_name_here>
   Memcheck:Leak
   match-leak-kinds: reachable
   fun:malloc
   fun:VSIMallocVerbose
   fun:_ZN13CPLStringList12AddNameValueEPKcS1_
   fun:_ZN23GDALMultiDomainMetadata15SetMetadataItemEPKcS1_S1_
   fun:_ZN10GDALDriver15SetMetadataItemEPKcS1_S1_
   fun:GDALRegister_Rasterlite
   fun:GDALAllRegister
   fun:_ZN11CSimulation27bCheckRasterGISOutputFormatEv
   fun:_ZN11CSimulation13nDoSimulationEiPPKc
   fun:main
}
{
   <insert_a_suppression_name_here>
   Memcheck:Leak
   match-leak-kinds: reachable
   fun:malloc
   fun:VSIMallocVerbose
   fun:_ZN13CPLStringList12AddNameValueEPKcS1_
   fun:_ZN23GDALMultiDomainMetadata15SetMetadataItemEPKcS1_S1_
   fun:_ZN10GDALDriver15SetMetadataItemEPKcS1_S1_
   fun:GDALRegister_SIGDEM
   fun:GDALAllRegister
   fun:_ZN11CSimulation27bCheckRasterGISOutputFormatEv
   fun:_ZN11CSimulation13nDoSimulationEiPPKc
   fun:main
}
{
   <insert_a_suppression_name_here>
   Memcheck:Leak
   match-leak-kinds: reachable
   fun:malloc
   fun:VSIMallocVerbose
   fun:_ZN13CPLStringList12AddNameValueEPKcS1_
   fun:_ZN23GDALMultiDomainMetadata15SetMetadataItemEPKcS1_S1_
   fun:RegisterOGRMVT
   fun:GDALAllRegister
   fun:_ZN11CSimulation27bCheckRasterGISOutputFormatEv
   fun:_ZN11CSimulation13nDoSimulationEiPPKc
   fun:main
}
{
   <insert_a_suppression_name_here>
   Memcheck:Leak
   match-leak-kinds: reachable
   fun:malloc
   fun:VSIMallocVerbose
   fun:_ZN13CPLStringList12AddNameValueEPKcS1_
   fun:_ZN23GDALMultiDomainMetadata15SetMetadataItemEPKcS1_S1_
   fun:_ZN10GDALDriver15SetMetadataItemEPKcS1_S1_
   fun:RegisterOGRPMTiles
   fun:GDALAllRegister
   fun:_ZN11CSimulation27bCheckRasterGISOutputFormatEv
   fun:_ZN11CSimulation13nDoSimulationEiPPKc
   fun:main
}
{
   <insert_a_suppression_name_here>
   Memcheck:Leak
   match-leak-kinds: reachable
   fun:malloc
   fun:VSIMallocVerbose
   fun:_ZN13CPLStringList12SetNameValueEPKcS1_
   fun:_ZN23GDALMultiDomainMetadata15SetMetadataItemEPKcS1_S1_
   fun:GDALRegister_JP2OpenJPEG
   fun:GDALAllRegister
   fun:_ZN11CSimulation27bCheckRasterGISOutputFormatEv
   fun:_ZN11CSimulation13nDoSimulationEiPPKc
   fun:main
}
{
   <insert_a_suppression_name_here>
   Memcheck:Leak
   match-leak-kinds: reachable
   fun:malloc
   fun:VSIMallocVerbose
   fun:_ZN13CPLStringList12AddNameValueEPKcS1_
   fun:_ZN23GDALMultiDomainMetadata15SetMetadataItemEPKcS1_S1_
   fun:_ZN10GDALDriver15SetMetadataItemEPKcS1_S1_
   fun:GDALRegister_MBTiles
   fun:GDALAllRegister
   fun:_ZN11CSimulation27bCheckRasterGISOutputFormatEv
   fun:_ZN11CSimulation13nDoSimulationEiPPKc
   fun:main
}
{
   <insert_a_suppression_name_here>
   Memcheck:Leak
   match-leak-kinds: reachable
   fun:malloc
   fun:VSIMallocVerbose
   fun:_ZN13CPLStringList12SetNameValueEPKcS1_
   fun:_ZN23GDALMultiDomainMetadata15SetMetadataItemEPKcS1_S1_
   fun:RegisterOGRGML
   fun:GDALAllRegister
   fun:_ZN11CSimulation27bCheckRasterGISOutputFormatEv
   fun:_ZN11CSimulation13nDoSimulationEiPPKc
   fun:main
}
{
   <insert_a_suppression_name_here>
   Memcheck:Leak
   match-leak-kinds: reachable
   fun:calloc
   fun:VSICallocVerbose
   fun:CPLPushFinderLocation
   fun:_ZN17GDALDriverManagerC1Ev
   fun:GetGDALDriverManager
   fun:GDALAllRegister
   fun:_ZN11CSimulation27bCheckRasterGISOutputFormatEv
   fun:_ZN11CSimulation13nDoSimulationEiPPKc
   fun:main
}
{
   <insert_a_suppression_name_here>
   Memcheck:Leak
   match-leak-kinds: reachable
   fun:realloc
   fun:VSIReallocVerbose
   fun:CSLAddStringMayFail
   fun:CPLPushFinderLocation
   fun:CPLPushFinderLocation
   fun:_ZN17GDALDriverManagerC1Ev
   fun:GetGDALDriverManager
   fun:GDALAllRegister
   fun:_ZN11CSimulation27bCheckRasterGISOutputFormatEv
   fun:_ZN11CSimulation13nDoSimulationEiPPKc
   fun:main
}
{
   <insert_a_suppression_name_here>
   Memcheck:Leak
   match-leak-kinds: reachable
   fun:malloc
   fun:VSIMallocVerbose
   fun:_ZN13CPLStringList12SetNameValueEPKcS1_
   fun:_ZN23GDALMultiDomainMetadata15SetMetadataItemEPKcS1_S1_
   fun:GDALRegister_GTiff
   fun:GDALAllRegister
   fun:_ZN11CSimulation27bCheckRasterGISOutputFormatEv
   fun:_ZN11CSimulation13nDoSimulationEiPPKc
   fun:main
}
{
   <insert_a_suppression_name_here>
   Memcheck:Leak
   match-leak-kinds: reachable
   fun:malloc
   fun:VSIMallocVerbose
   fun:_ZN13CPLStringList12SetNameValueEPKcS1_
   fun:_ZN23GDALMultiDomainMetadata15SetMetadataItemEPKcS1_S1_
   fun:GDALRegister_JPEG
   fun:GDALAllRegister
   fun:_ZN11CSimulation27bCheckRasterGISOutputFormatEv
   fun:_ZN11CSimulation13nDoSimulationEiPPKc
   fun:main
}
{
   <insert_a_suppression_name_here>
   Memcheck:Leak
   match-leak-kinds: reachable
   fun:malloc
   fun:VSIMallocVerbose
   fun:_ZN13CPLStringList12AddNameValueEPKcS1_
   fun:_ZN23GDALMultiDomainMetadata15SetMetadataItemEPKcS1_S1_
   fun:GDALAllRegister
   fun:_ZN11CSimulation27bCheckRasterGISOutputFormatEv
   fun:_ZN11CSimulation13nDoSimulationEiPPKc
   fun:main
}
{
   <insert_a_suppression_name_here>
   Memcheck:Leak
   match-leak-kinds: reachable
   fun:malloc
   fun:CPLMalloc
   fun:CSLSetNameValue
   fun:CPLSetThreadLocalConfigOption
   fun:_ZN11CSimulation19bWriteRasterGISFileEiPKNSt7__cxx1112basic_stringIcSt11char_traitsIcESaIcEEEid
   fun:_ZN11CSimulation22bSaveAllRasterGISFilesEv
   fun:_ZN11CSimulation19nWriteEndRunDetailsEv
   fun:_ZN11CSimulation13nDoSimulationEiPPKc
   fun:main
}
{
   <insert_a_suppression_name_here>
   Memcheck:Leak
   match-leak-kinds: reachable
   fun:malloc
   fun:VSIMallocVerbose
   fun:_ZN13CPLStringList12SetNameValueEPKcS1_
   fun:_ZN23GDALMultiDomainMetadata15SetMetadataItemEPKcS1_S1_
   fun:GDALRegister_PDF
   fun:GDALAllRegister
   fun:_ZN11CSimulation27bCheckRasterGISOutputFormatEv
   fun:_ZN11CSimulation13nDoSimulationEiPPKc
   fun:main
}
{
   <insert_a_suppression_name_here>
   Memcheck:Leak
   match-leak-kinds: possible
   fun:malloc
   fun:VSIMallocVerbose
   fun:_ZN10OGRFeatureC1EP14OGRFeatureDefn
   fun:_ZN10OGRFeature13CreateFeatureEP14OGRFeatureDefn
   fun:_ZN11CSimulation19bWriteVectorGISFileEiPKNSt7__cxx1112basic_stringIcSt11char_traitsIcESaIcEEE
   fun:_ZN11CSimulation22bSaveAllVectorGISFilesEv
   fun:_ZN11CSimulation13nDoSimulationEiPPKc
   fun:main
}
{
   <insert_a_suppression_name_here>
   Memcheck:Leak
   match-leak-kinds: reachable
   fun:malloc
   fun:VSIMallocVerbose
   fun:_ZN13CPLStringList12SetNameValueEPKcS1_
   fun:_ZN23GDALMultiDomainMetadata15SetMetadataItemEPKcS1_S1_
   fun:RegisterOGRShape
   fun:GDALAllRegister
   fun:_ZN11CSimulation27bCheckRasterGISOutputFormatEv
   fun:_ZN11CSimulation13nDoSimulationEiPPKc
   fun:main
}
{
   <insert_a_suppression_name_here>
   Memcheck:Leak
   match-leak-kinds: indirect
   fun:malloc
   fun:VSIStrdup
   fun:VSIStrdupVerbose
   fun:CSLAddStringMayFail
   fun:CSLAddString
   fun:_ZN11CSimulation19bWriteRasterGISFileEiPKNSt7__cxx1112basic_stringIcSt11char_traitsIcESaIcEEEid
   fun:_ZN11CSimulation22bSaveAllRasterGISFilesEv
   fun:_ZN11CSimulation13nDoSimulationEiPPKc
   fun:main
}
{
   <insert_a_suppression_name_here>
   Memcheck:Leak
   match-leak-kinds: definite
   fun:realloc
   fun:VSIReallocVerbose
   fun:CSLAddStringMayFail
   fun:CSLAddString
   fun:_ZN11CSimulation19bWriteRasterGISFileEiPKNSt7__cxx1112basic_stringIcSt11char_traitsIcESaIcEEEid
   fun:_ZN11CSimulation22bSaveAllRasterGISFilesEv
   fun:_ZN11CSimulation19nWriteEndRunDetailsEv
   fun:_ZN11CSimulation13nDoSimulationEiPPKc
   fun:main
}
{
   <insert_a_suppression_name_here>
   Memcheck:Leak
   match-leak-kinds: reachable
   fun:_Znwm
   fun:_ZN17GDALDriverManager15AutoLoadDriversEv
   fun:GDALAllRegister
   fun:_ZN11CSimulation27bCheckRasterGISOutputFormatEv
   fun:_ZN11CSimulation13nDoSimulationEiPPKc
   fun:main
}
{
   <insert_a_suppression_name_here>
   Memcheck:Leak
   match-leak-kinds: reachable
   fun:_Znwm
   fun:VSIInstallSparseFileHandler
   fun:_ZN14VSIFileManager3GetEv
   fun:_ZN14VSIFileManager10GetHandlerEPKc
   fun:VSIGetDirectorySeparator
   fun:CPLFormFilename
   fun:CPLLoadConfigOptionsFromPredefinedFiles
   fun:_ZN17GDALDriverManagerC1Ev
   fun:GetGDALDriverManager
   fun:GDALAllRegister
   fun:_ZN11CSimulation27bCheckRasterGISOutputFormatEv
   fun:_ZN11CSimulation13nDoSimulationEiPPKc
}
{
   <insert_a_suppression_name_here>
   Memcheck:Leak
   match-leak-kinds: reachable
   fun:realloc
   fun:VSIReallocVerbose
   fun:CSLAddStringMayFail
   fun:CSLAddString
   fun:CSLAddNameValue
   obj:/usr/lib/x86_64-linux-gnu/libgdal.so.36.3.10.2
   fun:GDALRegister_VRT
   fun:GDALAllRegister
   fun:_ZN11CSimulation27bCheckRasterGISOutputFormatEv
   fun:_ZN11CSimulation13nDoSimulationEiPPKc
   fun:main
}
{
   <insert_a_suppression_name_here>
   Memcheck:Leak
   match-leak-kinds: reachable
   fun:realloc
   fun:VSIReallocVerbose
   fun:CSLAddStringMayFail
   fun:CSLAddString
   fun:CSLAddNameValue
   fun:CPLSetConfigOption
   fun:_ZN11CSimulation25InitializeGDALPerformanceEv
   fun:_ZN11CSimulation22nReadRasterBasementDEMEv
   fun:_ZN11CSimulation13nDoSimulationEiPPKc
   fun:main
}
{
   <insert_a_suppression_name_here>
   Memcheck:Leak
   match-leak-kinds: reachable
   fun:_Znwm
   fun:_ZN20GDALDefaultOverviews12OverviewScanEv
   fun:_ZN20GDALDefaultOverviews13IsInitializedEv
   fun:_ZN11GDALDataset11GetFileListEv
   fun:_ZN14GDALPamDataset11GetFileListEv
   obj:/usr/lib/x86_64-linux-gnu/libgdal.so.36.3.10.2
   fun:_ZN10GDALDriver6DeleteEPKc
   fun:_ZN10GDALDriver11QuietDeleteEPKcPKS1_
   fun:_ZN10GDALDriver6CreateEPKciii12GDALDataTypePKS1_
   fun:_ZN11CSimulation19bWriteRasterGISFileEiPKNSt7__cxx1112basic_stringIcSt11char_traitsIcESaIcEEEid
   fun:_ZN11CSimulation22bSaveAllRasterGISFilesEv
   fun:_ZN11CSimulation13nDoSimulationEiPPKc
}
{
   <insert_a_suppression_name_here>
   Memcheck:Leak
   match-leak-kinds: reachable
   fun:_ZnwmRKSt9nothrow_t
   fun:_ZNK8OGRPoint5cloneEv
   fun:_ZN10OGRFeature12SetGeomFieldEiPK11OGRGeometry
   fun:_ZN11CSimulation19bWriteVectorGISFileEiPKNSt7__cxx1112basic_stringIcSt11char_traitsIcESaIcEEE
   fun:_ZN11CSimulation22bSaveAllVectorGISFilesEv
   fun:_ZN11CSimulation19nWriteEndRunDetailsEv
   fun:_ZN11CSimulation13nDoSimulationEiPPKc
   fun:main
}
{
   <insert_a_suppression_name_here>
   Memcheck:Leak
   match-leak-kinds: possible
   fun:_ZnwmRKSt9nothrow_t
   fun:_ZNK8OGRPoint5cloneEv
   fun:_ZN10OGRFeature12SetGeomFieldEiPK11OGRGeometry
   fun:_ZN11CSimulation19bWriteVectorGISFileEiPKNSt7__cxx1112basic_stringIcSt11char_traitsIcESaIcEEE
   fun:_ZN11CSimulation22bSaveAllVectorGISFilesEv
   fun:_ZN11CSimulation19nWriteEndRunDetailsEv
   fun:_ZN11CSimulation13nDoSimulationEiPPKc
   fun:main
}
{
   <insert_a_suppression_name_here>
   Memcheck:Leak
   match-leak-kinds: reachable
   fun:malloc
   obj:/usr/lib/x86_64-linux-gnu/libgdal.so.36.3.10.2
   fun:CPLCreateOrAcquireMutexEx
   fun:_ZN14CPLMutexHolderC1EPP9_CPLMutexdPKcii
   fun:GetGDALDriverManager
   fun:GDALAllRegister
   fun:_ZN11CSimulation27bCheckRasterGISOutputFormatEv
   fun:_ZN11CSimulation13nDoSimulationEiPPKc
   fun:main
}
{
   <insert_a_suppression_name_here>
   Memcheck:Leak
   match-leak-kinds: reachable
   fun:malloc
   obj:/usr/lib/x86_64-linux-gnu/libgdal.so.36.3.10.2
   fun:CPLCreateOrAcquireMutexEx
   fun:_ZN14CPLMutexHolderC1EPP9_CPLMutexdPKcii
   fun:CPLGetGlobalConfigOption
   fun:CPLGetConfigOption
   fun:CPLLoadConfigOptionsFromPredefinedFiles
   fun:_ZN17GDALDriverManagerC1Ev
   fun:GetGDALDriverManager
   fun:GDALAllRegister
   fun:_ZN11CSimulation27bCheckRasterGISOutputFormatEv
   fun:_ZN11CSimulation13nDoSimulationEiPPKc
}
{
   <insert_a_suppression_name_here>
   Memcheck:Leak
   match-leak-kinds: reachable
   fun:malloc
   obj:/usr/lib/x86_64-linux-gnu/libgdal.so.36.3.10.2
   fun:CPLCreateOrAcquireMutexEx
   fun:_ZN14CPLMutexHolderC1EPP9_CPLMutexdPKcii
   fun:_ZN14VSIFileManager3GetEv
   fun:_ZN14VSIFileManager10GetHandlerEPKc
   fun:VSIGetDirectorySeparator
   fun:CPLFormFilename
   fun:CPLLoadConfigOptionsFromPredefinedFiles
   fun:_ZN17GDALDriverManagerC1Ev
   fun:GetGDALDriverManager
   fun:GDALAllRegister
}
{
   <insert_a_suppression_name_here>
   Memcheck:Leak
   match-leak-kinds: reachable
   fun:malloc
   fun:CPLCreateMutex
   fun:_ZN14VSIFileManager3GetEv
   fun:_ZN14VSIFileManager10GetHandlerEPKc
   fun:VSIGetDirectorySeparator
   fun:CPLFormFilename
   fun:CPLLoadConfigOptionsFromPredefinedFiles
   fun:_ZN17GDALDriverManagerC1Ev
   fun:GetGDALDriverManager
   fun:GDALAllRegister
   fun:_ZN11CSimulation27bCheckRasterGISOutputFormatEv
   fun:_ZN11CSimulation13nDoSimulationEiPPKc
}
{
   <insert_a_suppression_name_here>
   Memcheck:Leak
   match-leak-kinds: reachable
   fun:_Znwm
   obj:/usr/lib/x86_64-linux-gnu/libgdal.so.36.3.10.2
   fun:_ZN23GDALMultiDomainMetadata15SetMetadataItemEPKcS1_S1_
   fun:GDALRegister_VRT
   fun:GDALAllRegister
   fun:_ZN11CSimulation27bCheckRasterGISOutputFormatEv
   fun:_ZN11CSimulation13nDoSimulationEiPPKc
   fun:main
}
{
   <insert_a_suppression_name_here>
   Memcheck:Leak
   match-leak-kinds: reachable
   fun:_Znwm
   obj:/usr/lib/x86_64-linux-gnu/libgdal.so.36.3.10.2
   fun:_ZN23GDALMultiDomainMetadata15SetMetadataItemEPKcS1_S1_
   fun:GDALRegister_Derived
   fun:GDALAllRegister
   fun:_ZN11CSimulation27bCheckRasterGISOutputFormatEv
   fun:_ZN11CSimulation13nDoSimulationEiPPKc
   fun:main
}
{
   <insert_a_suppression_name_here>
   Memcheck:Leak
   match-leak-kinds: reachable
   fun:_Znwm
   obj:/usr/lib/x86_64-linux-gnu/libgdal.so.36.3.10.2
   fun:_ZN23GDALMultiDomainMetadata15SetMetadataItemEPKcS1_S1_
   fun:GDALRegister_GTI
   fun:GDALAllRegister
   fun:_ZN11CSimulation27bCheckRasterGISOutputFormatEv
   fun:_ZN11CSimulation13nDoSimulationEiPPKc
   fun:main
}
{
   <insert_a_suppression_name_here>
   Memcheck:Leak
   match-leak-kinds: reachable
   fun:_Znwm
   obj:/usr/lib/x86_64-linux-gnu/libgdal.so.36.3.10.2
   fun:_ZN23GDALMultiDomainMetadata15SetMetadataItemEPKcS1_S1_
   fun:GDALRegister_SNAP_TIFF
   fun:GDALAllRegister
   fun:_ZN11CSimulation27bCheckRasterGISOutputFormatEv
   fun:_ZN11CSimulation13nDoSimulationEiPPKc
   fun:main
}
{
   <insert_a_suppression_name_here>
   Memcheck:Leak
   match-leak-kinds: reachable
   fun:_Znwm
   obj:/usr/lib/x86_64-linux-gnu/libgdal.so.36.3.10.2
   fun:_ZN23GDALMultiDomainMetadata15SetMetadataItemEPKcS1_S1_
   fun:GDALRegister_GTiff
   fun:GDALAllRegister
   fun:_ZN11CSimulation27bCheckRasterGISOutputFormatEv
   fun:_ZN11CSimulation13nDoSimulationEiPPKc
   fun:main
}
{
   <insert_a_suppression_name_here>
   Memcheck:Leak
   match-leak-kinds: reachable
   fun:_Znwm
   obj:/usr/lib/x86_64-linux-gnu/libgdal.so.36.3.10.2
   fun:_ZN23GDALMultiDomainMetadata15SetMetadataItemEPKcS1_S1_
   fun:GDALRegister_COG
   fun:GDALAllRegister
   fun:_ZN11CSimulation27bCheckRasterGISOutputFormatEv
   fun:_ZN11CSimulation13nDoSimulationEiPPKc
   fun:main
}
{
   <insert_a_suppression_name_here>
   Memcheck:Leak
   match-leak-kinds: reachable
   fun:_Znwm
   obj:/usr/lib/x86_64-linux-gnu/libgdal.so.36.3.10.2
   fun:_ZN23GDALMultiDomainMetadata15SetMetadataItemEPKcS1_S1_
   fun:GDALRegister_NITF
   fun:GDALAllRegister
   fun:_ZN11CSimulation27bCheckRasterGISOutputFormatEv
   fun:_ZN11CSimulation13nDoSimulationEiPPKc
   fun:main
}
{
   <insert_a_suppression_name_here>
   Memcheck:Leak
   match-leak-kinds: reachable
   fun:_Znwm
   obj:/usr/lib/x86_64-linux-gnu/libgdal.so.36.3.10.2
   fun:_ZN23GDALMultiDomainMetadata15SetMetadataItemEPKcS1_S1_
   fun:GDALRegister_RPFTOC
   fun:GDALAllRegister
   fun:_ZN11CSimulation27bCheckRasterGISOutputFormatEv
   fun:_ZN11CSimulation13nDoSimulationEiPPKc
   fun:main
}
{
   <insert_a_suppression_name_here>
   Memcheck:Leak
   match-leak-kinds: reachable
   fun:_Znwm
   obj:/usr/lib/x86_64-linux-gnu/libgdal.so.36.3.10.2
   fun:_ZN23GDALMultiDomainMetadata15SetMetadataItemEPKcS1_S1_
   fun:GDALRegister_ECRGTOC
   fun:GDALAllRegister
   fun:_ZN11CSimulation27bCheckRasterGISOutputFormatEv
   fun:_ZN11CSimulation13nDoSimulationEiPPKc
   fun:main
}
{
   <insert_a_suppression_name_here>
   Memcheck:Leak
   match-leak-kinds: reachable
   fun:_Znwm
   obj:/usr/lib/x86_64-linux-gnu/libgdal.so.36.3.10.2
   fun:_ZN23GDALMultiDomainMetadata15SetMetadataItemEPKcS1_S1_
   fun:GDALRegister_HFA
   fun:GDALAllRegister
   fun:_ZN11CSimulation27bCheckRasterGISOutputFormatEv
   fun:_ZN11CSimulation13nDoSimulationEiPPKc
   fun:main
}
{
   <insert_a_suppression_name_here>
   Memcheck:Leak
   match-leak-kinds: reachable
   fun:_Znwm
   obj:/usr/lib/x86_64-linux-gnu/libgdal.so.36.3.10.2
   fun:_ZN23GDALMultiDomainMetadata15SetMetadataItemEPKcS1_S1_
   fun:GDALRegister_SAR_CEOS
   fun:GDALAllRegister
   fun:_ZN11CSimulation27bCheckRasterGISOutputFormatEv
   fun:_ZN11CSimulation13nDoSimulationEiPPKc
   fun:main
}
{
   <insert_a_suppression_name_here>
   Memcheck:Leak
   match-leak-kinds: reachable
   fun:_Znwm
   obj:/usr/lib/x86_64-linux-gnu/libgdal.so.36.3.10.2
   fun:_ZN23GDALMultiDomainMetadata15SetMetadataItemEPKcS1_S1_
   fun:GDALRegister_CEOS
   fun:GDALAllRegister
   fun:_ZN11CSimulation27bCheckRasterGISOutputFormatEv
   fun:_ZN11CSimulation13nDoSimulationEiPPKc
   fun:main
}
{
   <insert_a_suppression_name_here>
   Memcheck:Leak
   match-leak-kinds: reachable
   fun:_Znwm
   obj:/usr/lib/x86_64-linux-gnu/libgdal.so.36.3.10.2
   fun:_ZN23GDALMultiDomainMetadata15SetMetadataItemEPKcS1_S1_
   fun:GDALRegister_PALSARJaxa
   fun:GDALAllRegister
   fun:_ZN11CSimulation27bCheckRasterGISOutputFormatEv
   fun:_ZN11CSimulation13nDoSimulationEiPPKc
   fun:main
}
{
   <insert_a_suppression_name_here>
   Memcheck:Leak
   match-leak-kinds: reachable
   fun:_Znwm
   obj:/usr/lib/x86_64-linux-gnu/libgdal.so.36.3.10.2
   fun:_ZN23GDALMultiDomainMetadata15SetMetadataItemEPKcS1_S1_
   fun:GDALRegister_GFF
   fun:GDALAllRegister
   fun:_ZN11CSimulation27bCheckRasterGISOutputFormatEv
   fun:_ZN11CSimulation13nDoSimulationEiPPKc
   fun:main
}
{
   <insert_a_suppression_name_here>
   Memcheck:Leak
   match-leak-kinds: reachable
   fun:_Znwm
   obj:/usr/lib/x86_64-linux-gnu/libgdal.so.36.3.10.2
   fun:_ZN23GDALMultiDomainMetadata15SetMetadataItemEPKcS1_S1_
   fun:GDALRegister_ELAS
   fun:GDALAllRegister
   fun:_ZN11CSimulation27bCheckRasterGISOutputFormatEv
   fun:_ZN11CSimulation13nDoSimulationEiPPKc
   fun:main
}
{
   <insert_a_suppression_name_here>
   Memcheck:Leak
   match-leak-kinds: reachable
   fun:_Znwm
   obj:/usr/lib/x86_64-linux-gnu/libgdal.so.36.3.10.2
   fun:_ZN23GDALMultiDomainMetadata15SetMetadataItemEPKcS1_S1_
   fun:GDALRegister_ESRIC
   fun:GDALAllRegister
   fun:_ZN11CSimulation27bCheckRasterGISOutputFormatEv
   fun:_ZN11CSimulation13nDoSimulationEiPPKc
   fun:main
}
{
   <insert_a_suppression_name_here>
   Memcheck:Leak
   match-leak-kinds: reachable
   fun:_Znwm
   obj:/usr/lib/x86_64-linux-gnu/libgdal.so.36.3.10.2
   fun:_ZN23GDALMultiDomainMetadata15SetMetadataItemEPKcS1_S1_
   fun:GDALRegister_AIGrid
   fun:GDALAllRegister
   fun:_ZN11CSimulation27bCheckRasterGISOutputFormatEv
   fun:_ZN11CSimulation13nDoSimulationEiPPKc
   fun:main
}
{
   <insert_a_suppression_name_here>
   Memcheck:Leak
   match-leak-kinds: reachable
   fun:_Znwm
   obj:/usr/lib/x86_64-linux-gnu/libgdal.so.36.3.10.2
   fun:_ZN23GDALMultiDomainMetadata15SetMetadataItemEPKcS1_S1_
   fun:GDALRegister_AAIGrid
   fun:GDALAllRegister
   fun:_ZN11CSimulation27bCheckRasterGISOutputFormatEv
   fun:_ZN11CSimulation13nDoSimulationEiPPKc
   fun:main
}
{
   <insert_a_suppression_name_here>
   Memcheck:Leak
   match-leak-kinds: reachable
   fun:_Znwm
   obj:/usr/lib/x86_64-linux-gnu/libgdal.so.36.3.10.2
   fun:_ZN23GDALMultiDomainMetadata15SetMetadataItemEPKcS1_S1_
   fun:GDALRegister_GRASSASCIIGrid
   fun:GDALAllRegister
   fun:_ZN11CSimulation27bCheckRasterGISOutputFormatEv
   fun:_ZN11CSimulation13nDoSimulationEiPPKc
   fun:main
}
{
   <insert_a_suppression_name_here>
   Memcheck:Leak
   match-leak-kinds: reachable
   fun:_Znwm
   obj:/usr/lib/x86_64-linux-gnu/libgdal.so.36.3.10.2
   fun:_ZN23GDALMultiDomainMetadata15SetMetadataItemEPKcS1_S1_
   fun:GDALRegister_ISG
   fun:GDALAllRegister
   fun:_ZN11CSimulation27bCheckRasterGISOutputFormatEv
   fun:_ZN11CSimulation13nDoSimulationEiPPKc
   fun:main
}
{
   <insert_a_suppression_name_here>
   Memcheck:Leak
   match-leak-kinds: reachable
   fun:_Znwm
   obj:/usr/lib/x86_64-linux-gnu/libgdal.so.36.3.10.2
   fun:_ZN23GDALMultiDomainMetadata15SetMetadataItemEPKcS1_S1_
   fun:GDALRegister_SDTS
   fun:GDALAllRegister
   fun:_ZN11CSimulation27bCheckRasterGISOutputFormatEv
   fun:_ZN11CSimulation13nDoSimulationEiPPKc
   fun:main
}
{
   <insert_a_suppression_name_here>
   Memcheck:Leak
   match-leak-kinds: reachable
   fun:_Znwm
   obj:/usr/lib/x86_64-linux-gnu/libgdal.so.36.3.10.2
   fun:_ZN23GDALMultiDomainMetadata15SetMetadataItemEPKcS1_S1_
   fun:GDALRegister_DTED
   fun:GDALAllRegister
   fun:_ZN11CSimulation27bCheckRasterGISOutputFormatEv
   fun:_ZN11CSimulation13nDoSimulationEiPPKc
   fun:main
}
{
   <insert_a_suppression_name_here>
   Memcheck:Leak
   match-leak-kinds: reachable
   fun:_Znwm
   obj:/usr/lib/x86_64-linux-gnu/libgdal.so.36.3.10.2
   fun:_ZN23GDALMultiDomainMetadata15SetMetadataItemEPKcS1_S1_
   fun:GDALRegister_PNG
   fun:GDALAllRegister
   fun:_ZN11CSimulation27bCheckRasterGISOutputFormatEv
   fun:_ZN11CSimulation13nDoSimulationEiPPKc
   fun:main
}
{
   <insert_a_suppression_name_here>
   Memcheck:Leak
   match-leak-kinds: reachable
   fun:_Znwm
   obj:/usr/lib/x86_64-linux-gnu/libgdal.so.36.3.10.2
   fun:_ZN23GDALMultiDomainMetadata15SetMetadataItemEPKcS1_S1_
   fun:GDALRegister_JPEG
   fun:GDALAllRegister
   fun:_ZN11CSimulation27bCheckRasterGISOutputFormatEv
   fun:_ZN11CSimulation13nDoSimulationEiPPKc
   fun:main
}
{
   <insert_a_suppression_name_here>
   Memcheck:Leak
   match-leak-kinds: reachable
   fun:_Znwm
   obj:/usr/lib/x86_64-linux-gnu/libgdal.so.36.3.10.2
   fun:_ZN23GDALMultiDomainMetadata15SetMetadataItemEPKcS1_S1_
   fun:GDALRegister_MEM
   fun:GDALAllRegister
   fun:_ZN11CSimulation27bCheckRasterGISOutputFormatEv
   fun:_ZN11CSimulation13nDoSimulationEiPPKc
   fun:main
}
{
   <insert_a_suppression_name_here>
   Memcheck:Leak
   match-leak-kinds: reachable
   fun:_Znwm
   obj:/usr/lib/x86_64-linux-gnu/libgdal.so.36.3.10.2
   fun:_ZN23GDALMultiDomainMetadata15SetMetadataItemEPKcS1_S1_
   fun:GDALRegister_JDEM
   fun:GDALAllRegister
   fun:_ZN11CSimulation27bCheckRasterGISOutputFormatEv
   fun:_ZN11CSimulation13nDoSimulationEiPPKc
   fun:main
}
{
   <insert_a_suppression_name_here>
   Memcheck:Leak
   match-leak-kinds: reachable
   fun:_Znwm
   obj:/usr/lib/x86_64-linux-gnu/libgdal.so.36.3.10.2
   fun:_ZN23GDALMultiDomainMetadata15SetMetadataItemEPKcS1_S1_
   fun:GDALRegister_GIF
   fun:GDALAllRegister
   fun:_ZN11CSimulation27bCheckRasterGISOutputFormatEv
   fun:_ZN11CSimulation13nDoSimulationEiPPKc
   fun:main
}
{
   <insert_a_suppression_name_here>
   Memcheck:Leak
   match-leak-kinds: reachable
   fun:_Znwm
   obj:/usr/lib/x86_64-linux-gnu/libgdal.so.36.3.10.2
   fun:_ZN23GDALMultiDomainMetadata15SetMetadataItemEPKcS1_S1_
   fun:GDALRegister_BIGGIF
   fun:GDALAllRegister
   fun:_ZN11CSimulation27bCheckRasterGISOutputFormatEv
   fun:_ZN11CSimulation13nDoSimulationEiPPKc
   fun:main
}
{
   <insert_a_suppression_name_here>
   Memcheck:Leak
   match-leak-kinds: reachable
   fun:_Znwm
   obj:/usr/lib/x86_64-linux-gnu/libgdal.so.36.3.10.2
   fun:_ZN23GDALMultiDomainMetadata15SetMetadataItemEPKcS1_S1_
   fun:GDALRegister_Envisat
   fun:GDALAllRegister
   fun:_ZN11CSimulation27bCheckRasterGISOutputFormatEv
   fun:_ZN11CSimulation13nDoSimulationEiPPKc
   fun:main
}
{
   <insert_a_suppression_name_here>
   Memcheck:Leak
   match-leak-kinds: reachable
   fun:_Znwm
   obj:/usr/lib/x86_64-linux-gnu/libgdal.so.36.3.10.2
   fun:_ZN23GDALMultiDomainMetadata15SetMetadataItemEPKcS1_S1_
   fun:GDALRegister_FITS
   fun:GDALAllRegister
   fun:_ZN11CSimulation27bCheckRasterGISOutputFormatEv
   fun:_ZN11CSimulation13nDoSimulationEiPPKc
   fun:main
}
{
   <insert_a_suppression_name_here>
   Memcheck:Leak
   match-leak-kinds: reachable
   fun:_Znwm
   obj:/usr/lib/x86_64-linux-gnu/libgdal.so.36.3.10.2
   fun:_ZN23GDALMultiDomainMetadata15SetMetadataItemEPKcS1_S1_
   fun:GDALRegister_BSB
   fun:GDALAllRegister
   fun:_ZN11CSimulation27bCheckRasterGISOutputFormatEv
   fun:_ZN11CSimulation13nDoSimulationEiPPKc
   fun:main
}
{
   <insert_a_suppression_name_here>
   Memcheck:Leak
   match-leak-kinds: reachable
   fun:_Znwm
   obj:/usr/lib/x86_64-linux-gnu/libgdal.so.36.3.10.2
   fun:_ZN23GDALMultiDomainMetadata15SetMetadataItemEPKcS1_S1_
   fun:GDALRegister_XPM
   fun:GDALAllRegister
   fun:_ZN11CSimulation27bCheckRasterGISOutputFormatEv
   fun:_ZN11CSimulation13nDoSimulationEiPPKc
   fun:main
}
{
   <insert_a_suppression_name_here>
   Memcheck:Leak
   match-leak-kinds: reachable
   fun:_Znwm
   obj:/usr/lib/x86_64-linux-gnu/libgdal.so.36.3.10.2
   fun:_ZN23GDALMultiDomainMetadata15SetMetadataItemEPKcS1_S1_
   fun:GDALRegister_BMP
   fun:GDALAllRegister
   fun:_ZN11CSimulation27bCheckRasterGISOutputFormatEv
   fun:_ZN11CSimulation13nDoSimulationEiPPKc
   fun:main
}
{
   <insert_a_suppression_name_here>
   Memcheck:Leak
   match-leak-kinds: reachable
   fun:_Znwm
   obj:/usr/lib/x86_64-linux-gnu/libgdal.so.36.3.10.2
   fun:_ZN23GDALMultiDomainMetadata15SetMetadataItemEPKcS1_S1_
   fun:GDALRegister_DIMAP
   fun:GDALAllRegister
   fun:_ZN11CSimulation27bCheckRasterGISOutputFormatEv
   fun:_ZN11CSimulation13nDoSimulationEiPPKc
   fun:main
}
{
   <insert_a_suppression_name_here>
   Memcheck:Leak
   match-leak-kinds: reachable
   fun:_Znwm
   obj:/usr/lib/x86_64-linux-gnu/libgdal.so.36.3.10.2
   fun:_ZN23GDALMultiDomainMetadata15SetMetadataItemEPKcS1_S1_
   fun:GDALRegister_AirSAR
   fun:GDALAllRegister
   fun:_ZN11CSimulation27bCheckRasterGISOutputFormatEv
   fun:_ZN11CSimulation13nDoSimulationEiPPKc
   fun:main
}
{
   <insert_a_suppression_name_here>
   Memcheck:Leak
   match-leak-kinds: reachable
   fun:_Znwm
   obj:/usr/lib/x86_64-linux-gnu/libgdal.so.36.3.10.2
   fun:_ZN23GDALMultiDomainMetadata15SetMetadataItemEPKcS1_S1_
   fun:GDALRegister_RS2
   fun:GDALAllRegister
   fun:_ZN11CSimulation27bCheckRasterGISOutputFormatEv
   fun:_ZN11CSimulation13nDoSimulationEiPPKc
   fun:main
}
{
   <insert_a_suppression_name_here>
   Memcheck:Leak
   match-leak-kinds: reachable
   fun:_Znwm
   obj:/usr/lib/x86_64-linux-gnu/libgdal.so.36.3.10.2
   fun:_ZN23GDALMultiDomainMetadata15SetMetadataItemEPKcS1_S1_
   fun:GDALRegister_SAFE
   fun:GDALAllRegister
   fun:_ZN11CSimulation27bCheckRasterGISOutputFormatEv
   fun:_ZN11CSimulation13nDoSimulationEiPPKc
   fun:main
}
{
   <insert_a_suppression_name_here>
   Memcheck:Leak
   match-leak-kinds: reachable
   fun:_Znwm
   obj:/usr/lib/x86_64-linux-gnu/libgdal.so.36.3.10.2
   fun:_ZN23GDALMultiDomainMetadata15SetMetadataItemEPKcS1_S1_
   fun:GDALRegister_PCIDSK
   fun:GDALAllRegister
   fun:_ZN11CSimulation27bCheckRasterGISOutputFormatEv
   fun:_ZN11CSimulation13nDoSimulationEiPPKc
   fun:main
}
{
   <insert_a_suppression_name_here>
   Memcheck:Leak
   match-leak-kinds: reachable
   fun:_Znwm
   obj:/usr/lib/x86_64-linux-gnu/libgdal.so.36.3.10.2
   fun:_ZN23GDALMultiDomainMetadata15SetMetadataItemEPKcS1_S1_
   fun:GDALRegister_PCRaster
   fun:GDALAllRegister
   fun:_ZN11CSimulation27bCheckRasterGISOutputFormatEv
   fun:_ZN11CSimulation13nDoSimulationEiPPKc
   fun:main
}
{
   <insert_a_suppression_name_here>
   Memcheck:Leak
   match-leak-kinds: reachable
   fun:_Znwm
   obj:/usr/lib/x86_64-linux-gnu/libgdal.so.36.3.10.2
   fun:_ZN23GDALMultiDomainMetadata15SetMetadataItemEPKcS1_S1_
   fun:GDALRegister_ILWIS
   fun:GDALAllRegister
   fun:_ZN11CSimulation27bCheckRasterGISOutputFormatEv
   fun:_ZN11CSimulation13nDoSimulationEiPPKc
   fun:main
}
{
   <insert_a_suppression_name_here>
   Memcheck:Leak
   match-leak-kinds: reachable
   fun:_Znwm
   obj:/usr/lib/x86_64-linux-gnu/libgdal.so.36.3.10.2
   fun:_ZN23GDALMultiDomainMetadata15SetMetadataItemEPKcS1_S1_
   fun:GDALRegister_SGI
   fun:GDALAllRegister
   fun:_ZN11CSimulation27bCheckRasterGISOutputFormatEv
   fun:_ZN11CSimulation13nDoSimulationEiPPKc
   fun:main
}
{
   <insert_a_suppression_name_here>
   Memcheck:Leak
   match-leak-kinds: reachable
   fun:_Znwm
   obj:/usr/lib/x86_64-linux-gnu/libgdal.so.36.3.10.2
   fun:_ZN23GDALMultiDomainMetadata15SetMetadataItemEPKcS1_S1_
   fun:GDALRegister_SRTMHGT
   fun:GDALAllRegister
   fun:_ZN11CSimulation27bCheckRasterGISOutputFormatEv
   fun:_ZN11CSimulation13nDoSimulationEiPPKc
   fun:main
}
{
   <insert_a_suppression_name_here>
   Memcheck:Leak
   match-leak-kinds: reachable
   fun:_Znwm
   obj:/usr/lib/x86_64-linux-gnu/libgdal.so.36.3.10.2
   fun:_ZN23GDALMultiDomainMetadata15SetMetadataItemEPKcS1_S1_
   fun:GDALRegister_Leveller
   fun:GDALAllRegister
   fun:_ZN11CSimulation27bCheckRasterGISOutputFormatEv
   fun:_ZN11CSimulation13nDoSimulationEiPPKc
   fun:main
}
{
   <insert_a_suppression_name_here>
   Memcheck:Leak
   match-leak-kinds: reachable
   fun:_Znwm
   obj:/usr/lib/x86_64-linux-gnu/libgdal.so.36.3.10.2
   fun:_ZN23GDALMultiDomainMetadata15SetMetadataItemEPKcS1_S1_
   fun:GDALRegister_Terragen
   fun:GDALAllRegister
   fun:_ZN11CSimulation27bCheckRasterGISOutputFormatEv
   fun:_ZN11CSimulation13nDoSimulationEiPPKc
   fun:main
}
{
   <insert_a_suppression_name_here>
   Memcheck:Leak
   match-leak-kinds: reachable
   fun:_Znwm
   obj:/usr/lib/x86_64-linux-gnu/libgdal.so.36.3.10.2
   fun:_ZN23GDALMultiDomainMetadata15SetMetadataItemEPKcS1_S1_
   fun:GDALRegister_netCDF
   fun:GDALAllRegister
   fun:_ZN11CSimulation27bCheckRasterGISOutputFormatEv
   fun:_ZN11CSimulation13nDoSimulationEiPPKc
   fun:main
}
{
   <insert_a_suppression_name_here>
   Memcheck:Leak
   match-leak-kinds: reachable
   fun:_Znwm
   obj:/usr/lib/x86_64-linux-gnu/libgdal.so.36.3.10.2
   fun:_ZN23GDALMultiDomainMetadata15SetMetadataItemEPKcS1_S1_
   fun:GDALRegister_HDF4
   fun:GDALAllRegister
   fun:_ZN11CSimulation27bCheckRasterGISOutputFormatEv
   fun:_ZN11CSimulation13nDoSimulationEiPPKc
   fun:main
}
{
   <insert_a_suppression_name_here>
   Memcheck:Leak
   match-leak-kinds: reachable
   fun:_Znwm
   obj:/usr/lib/x86_64-linux-gnu/libgdal.so.36.3.10.2
   fun:_ZN23GDALMultiDomainMetadata15SetMetadataItemEPKcS1_S1_
   fun:GDALRegister_HDF4Image
   fun:GDALAllRegister
   fun:_ZN11CSimulation27bCheckRasterGISOutputFormatEv
   fun:_ZN11CSimulation13nDoSimulationEiPPKc
   fun:main
}
{
   <insert_a_suppression_name_here>
   Memcheck:Leak
   match-leak-kinds: reachable
   fun:_Znwm
   obj:/usr/lib/x86_64-linux-gnu/libgdal.so.36.3.10.2
   fun:_ZN23GDALMultiDomainMetadata15SetMetadataItemEPKcS1_S1_
   fun:GDALRegister_ISIS3
   fun:GDALAllRegister
   fun:_ZN11CSimulation27bCheckRasterGISOutputFormatEv
   fun:_ZN11CSimulation13nDoSimulationEiPPKc
   fun:main
}
{
   <insert_a_suppression_name_here>
   Memcheck:Leak
   match-leak-kinds: reachable
   fun:_Znwm
   obj:/usr/lib/x86_64-linux-gnu/libgdal.so.36.3.10.2
   fun:_ZN23GDALMultiDomainMetadata15SetMetadataItemEPKcS1_S1_
   fun:GDALRegister_ISIS2
   fun:GDALAllRegister
   fun:_ZN11CSimulation27bCheckRasterGISOutputFormatEv
   fun:_ZN11CSimulation13nDoSimulationEiPPKc
   fun:main
}
{
   <insert_a_suppression_name_here>
   Memcheck:Leak
   match-leak-kinds: reachable
   fun:_Znwm
   obj:/usr/lib/x86_64-linux-gnu/libgdal.so.36.3.10.2
   fun:_ZN23GDALMultiDomainMetadata15SetMetadataItemEPKcS1_S1_
   fun:GDALRegister_PDS
   fun:GDALAllRegister
   fun:_ZN11CSimulation27bCheckRasterGISOutputFormatEv
   fun:_ZN11CSimulation13nDoSimulationEiPPKc
   fun:main
}
{
   <insert_a_suppression_name_here>
   Memcheck:Leak
   match-leak-kinds: reachable
   fun:_Znwm
   obj:/usr/lib/x86_64-linux-gnu/libgdal.so.36.3.10.2
   fun:_ZN23GDALMultiDomainMetadata15SetMetadataItemEPKcS1_S1_
   fun:GDALRegister_PDS4
   fun:GDALAllRegister
   fun:_ZN11CSimulation27bCheckRasterGISOutputFormatEv
   fun:_ZN11CSimulation13nDoSimulationEiPPKc
   fun:main
}
{
   <insert_a_suppression_name_here>
   Memcheck:Leak
   match-leak-kinds: reachable
   fun:_Znwm
   obj:/usr/lib/x86_64-linux-gnu/libgdal.so.36.3.10.2
   fun:_ZN23GDALMultiDomainMetadata15SetMetadataItemEPKcS1_S1_
   fun:GDALRegister_VICAR
   fun:GDALAllRegister
   fun:_ZN11CSimulation27bCheckRasterGISOutputFormatEv
   fun:_ZN11CSimulation13nDoSimulationEiPPKc
   fun:main
}
{
   <insert_a_suppression_name_here>
   Memcheck:Leak
   match-leak-kinds: reachable
   fun:_Znwm
   obj:/usr/lib/x86_64-linux-gnu/libgdal.so.36.3.10.2
   fun:_ZN23GDALMultiDomainMetadata15SetMetadataItemEPKcS1_S1_
   fun:GDALRegister_TIL
   fun:GDALAllRegister
   fun:_ZN11CSimulation27bCheckRasterGISOutputFormatEv
   fun:_ZN11CSimulation13nDoSimulationEiPPKc
   fun:main
}
{
   <insert_a_suppression_name_here>
   Memcheck:Leak
   match-leak-kinds: reachable
   fun:_Znwm
   obj:/usr/lib/x86_64-linux-gnu/libgdal.so.36.3.10.2
   fun:_ZN23GDALMultiDomainMetadata15SetMetadataItemEPKcS1_S1_
   fun:GDALRegister_ERS
   fun:GDALAllRegister
   fun:_ZN11CSimulation27bCheckRasterGISOutputFormatEv
   fun:_ZN11CSimulation13nDoSimulationEiPPKc
   fun:main
}
{
   <insert_a_suppression_name_here>
   Memcheck:Leak
   match-leak-kinds: reachable
   fun:_Znwm
   obj:/usr/lib/x86_64-linux-gnu/libgdal.so.36.3.10.2
   fun:_ZN23GDALMultiDomainMetadata15SetMetadataItemEPKcS1_S1_
   fun:GDALRegister_JP2OpenJPEG
   fun:GDALAllRegister
   fun:_ZN11CSimulation27bCheckRasterGISOutputFormatEv
   fun:_ZN11CSimulation13nDoSimulationEiPPKc
   fun:main
}
{
   <insert_a_suppression_name_here>
   Memcheck:Leak
   match-leak-kinds: reachable
   fun:_Znwm
   obj:/usr/lib/x86_64-linux-gnu/libgdal.so.36.3.10.2
   fun:_ZN23GDALMultiDomainMetadata15SetMetadataItemEPKcS1_S1_
   fun:GDALRegister_L1B
   fun:GDALAllRegister
   fun:_ZN11CSimulation27bCheckRasterGISOutputFormatEv
   fun:_ZN11CSimulation13nDoSimulationEiPPKc
   fun:main
}
{
   <insert_a_suppression_name_here>
   Memcheck:Leak
   match-leak-kinds: reachable
   fun:_Znwm
   obj:/usr/lib/x86_64-linux-gnu/libgdal.so.36.3.10.2
   fun:_ZN23GDALMultiDomainMetadata15SetMetadataItemEPKcS1_S1_
   fun:GDALRegister_FIT
   fun:GDALAllRegister
   fun:_ZN11CSimulation27bCheckRasterGISOutputFormatEv
   fun:_ZN11CSimulation13nDoSimulationEiPPKc
   fun:main
}
{
   <insert_a_suppression_name_here>
   Memcheck:Leak
   match-leak-kinds: reachable
   fun:_Znwm
   obj:/usr/lib/x86_64-linux-gnu/libgdal.so.36.3.10.2
   fun:_ZN23GDALMultiDomainMetadata15SetMetadataItemEPKcS1_S1_
   fun:GDALRegister_GRIB
   fun:GDALAllRegister
   fun:_ZN11CSimulation27bCheckRasterGISOutputFormatEv
   fun:_ZN11CSimulation13nDoSimulationEiPPKc
   fun:main
}
{
   <insert_a_suppression_name_here>
   Memcheck:Leak
   match-leak-kinds: reachable
   fun:_Znwm
   obj:/usr/lib/x86_64-linux-gnu/libgdal.so.36.3.10.2
   fun:_ZN23GDALMultiDomainMetadata15SetMetadataItemEPKcS1_S1_
   fun:GDALRegister_RMF
   fun:GDALAllRegister
   fun:_ZN11CSimulation27bCheckRasterGISOutputFormatEv
   fun:_ZN11CSimulation13nDoSimulationEiPPKc
   fun:main
}
{
   <insert_a_suppression_name_here>
   Memcheck:Leak
   match-leak-kinds: reachable
   fun:_Znwm
   obj:/usr/lib/x86_64-linux-gnu/libgdal.so.36.3.10.2
   fun:_ZN23GDALMultiDomainMetadata15SetMetadataItemEPKcS1_S1_
   fun:GDALRegister_WCS
   fun:GDALAllRegister
   fun:_ZN11CSimulation27bCheckRasterGISOutputFormatEv
   fun:_ZN11CSimulation13nDoSimulationEiPPKc
   fun:main
}
{
   <insert_a_suppression_name_here>
   Memcheck:Leak
   match-leak-kinds: reachable
   fun:_Znwm
   obj:/usr/lib/x86_64-linux-gnu/libgdal.so.36.3.10.2
   fun:_ZN23GDALMultiDomainMetadata15SetMetadataItemEPKcS1_S1_
   fun:GDALRegister_WMS
   fun:GDALAllRegister
   fun:_ZN11CSimulation27bCheckRasterGISOutputFormatEv
   fun:_ZN11CSimulation13nDoSimulationEiPPKc
   fun:main
}
{
   <insert_a_suppression_name_here>
   Memcheck:Leak
   match-leak-kinds: reachable
   fun:_Znwm
   obj:/usr/lib/x86_64-linux-gnu/libgdal.so.36.3.10.2
   fun:_ZN23GDALMultiDomainMetadata15SetMetadataItemEPKcS1_S1_
   fun:GDALRegister_MSGN
   fun:GDALAllRegister
   fun:_ZN11CSimulation27bCheckRasterGISOutputFormatEv
   fun:_ZN11CSimulation13nDoSimulationEiPPKc
   fun:main
}
{
   <insert_a_suppression_name_here>
   Memcheck:Leak
   match-leak-kinds: reachable
   fun:_Znwm
   obj:/usr/lib/x86_64-linux-gnu/libgdal.so.36.3.10.2
   fun:_ZN23GDALMultiDomainMetadata15SetMetadataItemEPKcS1_S1_
   fun:GDALRegister_IDRISI
   fun:GDALAllRegister
   fun:_ZN11CSimulation27bCheckRasterGISOutputFormatEv
   fun:_ZN11CSimulation13nDoSimulationEiPPKc
   fun:main
}
{
   <insert_a_suppression_name_here>
   Memcheck:Leak
   match-leak-kinds: reachable
   fun:_Znwm
   obj:/usr/lib/x86_64-linux-gnu/libgdal.so.36.3.10.2
   fun:_ZN23GDALMultiDomainMetadata15SetMetadataItemEPKcS1_S1_
   fun:GDALRegister_GSAG
   fun:GDALAllRegister
   fun:_ZN11CSimulation27bCheckRasterGISOutputFormatEv
   fun:_ZN11CSimulation13nDoSimulationEiPPKc
   fun:main
}
{
   <insert_a_suppression_name_here>
   Memcheck:Leak
   match-leak-kinds: reachable
   fun:_Znwm
   obj:/usr/lib/x86_64-linux-gnu/libgdal.so.36.3.10.2
   fun:_ZN23GDALMultiDomainMetadata15SetMetadataItemEPKcS1_S1_
   fun:GDALRegister_GSBG
   fun:GDALAllRegister
   fun:_ZN11CSimulation27bCheckRasterGISOutputFormatEv
   fun:_ZN11CSimulation13nDoSimulationEiPPKc
   fun:main
}
{
   <insert_a_suppression_name_here>
   Memcheck:Leak
   match-leak-kinds: reachable
   fun:_Znwm
   obj:/usr/lib/x86_64-linux-gnu/libgdal.so.36.3.10.2
   fun:_ZN23GDALMultiDomainMetadata15SetMetadataItemEPKcS1_S1_
   fun:GDALRegister_GS7BG
   fun:GDALAllRegister
   fun:_ZN11CSimulation27bCheckRasterGISOutputFormatEv
   fun:_ZN11CSimulation13nDoSimulationEiPPKc
   fun:main
}
{
   <insert_a_suppression_name_here>
   Memcheck:Leak
   match-leak-kinds: reachable
   fun:_Znwm
   obj:/usr/lib/x86_64-linux-gnu/libgdal.so.36.3.10.2
   fun:_ZN23GDALMultiDomainMetadata15SetMetadataItemEPKcS1_S1_
   fun:GDALRegister_COSAR
   fun:GDALAllRegister
   fun:_ZN11CSimulation27bCheckRasterGISOutputFormatEv
   fun:_ZN11CSimulation13nDoSimulationEiPPKc
   fun:main
}
{
   <insert_a_suppression_name_here>
   Memcheck:Leak
   match-leak-kinds: reachable
   fun:_Znwm
   obj:/usr/lib/x86_64-linux-gnu/libgdal.so.36.3.10.2
   fun:_ZN23GDALMultiDomainMetadata15SetMetadataItemEPKcS1_S1_
   fun:GDALRegister_TSX
   fun:GDALAllRegister
   fun:_ZN11CSimulation27bCheckRasterGISOutputFormatEv
   fun:_ZN11CSimulation13nDoSimulationEiPPKc
   fun:main
}
{
   <insert_a_suppression_name_here>
   Memcheck:Leak
   match-leak-kinds: reachable
   fun:_Znwm
   obj:/usr/lib/x86_64-linux-gnu/libgdal.so.36.3.10.2
   fun:_ZN23GDALMultiDomainMetadata15SetMetadataItemEPKcS1_S1_
   fun:GDALRegister_COASP
   fun:GDALAllRegister
   fun:_ZN11CSimulation27bCheckRasterGISOutputFormatEv
   fun:_ZN11CSimulation13nDoSimulationEiPPKc
   fun:main
}
{
   <insert_a_suppression_name_here>
   Memcheck:Leak
   match-leak-kinds: reachable
   fun:_Znwm
   obj:/usr/lib/x86_64-linux-gnu/libgdal.so.36.3.10.2
   fun:_ZN23GDALMultiDomainMetadata15SetMetadataItemEPKcS1_S1_
   fun:GDALRegister_R
   fun:GDALAllRegister
   fun:_ZN11CSimulation27bCheckRasterGISOutputFormatEv
   fun:_ZN11CSimulation13nDoSimulationEiPPKc
   fun:main
}
{
   <insert_a_suppression_name_here>
   Memcheck:Leak
   match-leak-kinds: reachable
   fun:_Znwm
   obj:/usr/lib/x86_64-linux-gnu/libgdal.so.36.3.10.2
   fun:_ZN23GDALMultiDomainMetadata15SetMetadataItemEPKcS1_S1_
   fun:GDALRegister_MAP
   fun:GDALAllRegister
   fun:_ZN11CSimulation27bCheckRasterGISOutputFormatEv
   fun:_ZN11CSimulation13nDoSimulationEiPPKc
   fun:main
}
{
   <insert_a_suppression_name_here>
   Memcheck:Leak
   match-leak-kinds: reachable
   fun:_Znwm
   obj:/usr/lib/x86_64-linux-gnu/libgdal.so.36.3.10.2
   fun:_ZN23GDALMultiDomainMetadata15SetMetadataItemEPKcS1_S1_
   fun:GDALRegister_KMLSUPEROVERLAY
   fun:GDALAllRegister
   fun:_ZN11CSimulation27bCheckRasterGISOutputFormatEv
   fun:_ZN11CSimulation13nDoSimulationEiPPKc
   fun:main
}
{
   <insert_a_suppression_name_here>
   Memcheck:Leak
   match-leak-kinds: reachable
   fun:_Znwm
   obj:/usr/lib/x86_64-linux-gnu/libgdal.so.36.3.10.2
   fun:_ZN23GDALMultiDomainMetadata15SetMetadataItemEPKcS1_S1_
   fun:GDALRegister_WEBP
   fun:GDALAllRegister
   fun:_ZN11CSimulation27bCheckRasterGISOutputFormatEv
   fun:_ZN11CSimulation13nDoSimulationEiPPKc
   fun:main
}
{
   <insert_a_suppression_name_here>
   Memcheck:Leak
   match-leak-kinds: reachable
   fun:_Znwm
   obj:/usr/lib/x86_64-linux-gnu/libgdal.so.36.3.10.2
   fun:_ZN23GDALMultiDomainMetadata15SetMetadataItemEPKcS1_S1_
   fun:GDALRegister_PDF
   fun:GDALAllRegister
   fun:_ZN11CSimulation27bCheckRasterGISOutputFormatEv
   fun:_ZN11CSimulation13nDoSimulationEiPPKc
   fun:main
}
{
   <insert_a_suppression_name_here>
   Memcheck:Leak
   match-leak-kinds: reachable
   fun:_Znwm
   obj:/usr/lib/x86_64-linux-gnu/libgdal.so.36.3.10.2
   fun:_ZN23GDALMultiDomainMetadata15SetMetadataItemEPKcS1_S1_
   fun:GDALRegister_Rasterlite
   fun:GDALAllRegister
   fun:_ZN11CSimulation27bCheckRasterGISOutputFormatEv
   fun:_ZN11CSimulation13nDoSimulationEiPPKc
   fun:main
}
{
   <insert_a_suppression_name_here>
   Memcheck:Leak
   match-leak-kinds: reachable
   fun:_Znwm
   obj:/usr/lib/x86_64-linux-gnu/libgdal.so.36.3.10.2
   fun:_ZN23GDALMultiDomainMetadata15SetMetadataItemEPKcS1_S1_
   fun:GDALRegister_MBTiles
   fun:GDALAllRegister
   fun:_ZN11CSimulation27bCheckRasterGISOutputFormatEv
   fun:_ZN11CSimulation13nDoSimulationEiPPKc
   fun:main
}
{
   <insert_a_suppression_name_here>
   Memcheck:Leak
   match-leak-kinds: reachable
   fun:_Znwm
   obj:/usr/lib/x86_64-linux-gnu/libgdal.so.36.3.10.2
   fun:_ZN23GDALMultiDomainMetadata15SetMetadataItemEPKcS1_S1_
   fun:GDALRegister_PLMOSAIC
   fun:GDALAllRegister
   fun:_ZN11CSimulation27bCheckRasterGISOutputFormatEv
   fun:_ZN11CSimulation13nDoSimulationEiPPKc
   fun:main
}
{
   <insert_a_suppression_name_here>
   Memcheck:Leak
   match-leak-kinds: reachable
   fun:_Znwm
   obj:/usr/lib/x86_64-linux-gnu/libgdal.so.36.3.10.2
   fun:_ZN23GDALMultiDomainMetadata15SetMetadataItemEPKcS1_S1_
   fun:GDALRegister_CALS
   fun:GDALAllRegister
   fun:_ZN11CSimulation27bCheckRasterGISOutputFormatEv
   fun:_ZN11CSimulation13nDoSimulationEiPPKc
   fun:main
}
{
   <insert_a_suppression_name_here>
   Memcheck:Leak
   match-leak-kinds: reachable
   fun:_Znwm
   obj:/usr/lib/x86_64-linux-gnu/libgdal.so.36.3.10.2
   fun:_ZN23GDALMultiDomainMetadata15SetMetadataItemEPKcS1_S1_
   fun:GDALRegister_WMTS
   fun:GDALAllRegister
   fun:_ZN11CSimulation27bCheckRasterGISOutputFormatEv
   fun:_ZN11CSimulation13nDoSimulationEiPPKc
   fun:main
}
{
   <insert_a_suppression_name_here>
   Memcheck:Leak
   match-leak-kinds: reachable
   fun:_Znwm
   obj:/usr/lib/x86_64-linux-gnu/libgdal.so.36.3.10.2
   fun:_ZN23GDALMultiDomainMetadata15SetMetadataItemEPKcS1_S1_
   fun:GDALRegister_SENTINEL2
   fun:GDALAllRegister
   fun:_ZN11CSimulation27bCheckRasterGISOutputFormatEv
   fun:_ZN11CSimulation13nDoSimulationEiPPKc
   fun:main
}
{
   <insert_a_suppression_name_here>
   Memcheck:Leak
   match-leak-kinds: reachable
   fun:_Znwm
   obj:/usr/lib/x86_64-linux-gnu/libgdal.so.36.3.10.2
   fun:_ZN23GDALMultiDomainMetadata15SetMetadataItemEPKcS1_S1_
   fun:GDALRegister_mrf
   fun:GDALAllRegister
   fun:_ZN11CSimulation27bCheckRasterGISOutputFormatEv
   fun:_ZN11CSimulation13nDoSimulationEiPPKc
   fun:main
}
{
   <insert_a_suppression_name_here>
   Memcheck:Leak
   match-leak-kinds: reachable
   fun:_Znwm
   obj:/usr/lib/x86_64-linux-gnu/libgdal.so.36.3.10.2
   fun:_ZN23GDALMultiDomainMetadata15SetMetadataItemEPKcS1_S1_
   fun:GDALRegister_PNM
   fun:GDALRegister_raw_no_sidecar
   fun:GDALAllRegister
   fun:_ZN11CSimulation27bCheckRasterGISOutputFormatEv
   fun:_ZN11CSimulation13nDoSimulationEiPPKc
   fun:main
}
{
   <insert_a_suppression_name_here>
   Memcheck:Leak
   match-leak-kinds: reachable
   fun:_Znwm
   obj:/usr/lib/x86_64-linux-gnu/libgdal.so.36.3.10.2
   fun:_ZN23GDALMultiDomainMetadata15SetMetadataItemEPKcS1_S1_
   fun:GDALRegister_DOQ1
   fun:GDALRegister_raw_no_sidecar
   fun:GDALAllRegister
   fun:_ZN11CSimulation27bCheckRasterGISOutputFormatEv
   fun:_ZN11CSimulation13nDoSimulationEiPPKc
   fun:main
}
{
   <insert_a_suppression_name_here>
   Memcheck:Leak
   match-leak-kinds: reachable
   fun:_Znwm
   obj:/usr/lib/x86_64-linux-gnu/libgdal.so.36.3.10.2
   fun:_ZN23GDALMultiDomainMetadata15SetMetadataItemEPKcS1_S1_
   fun:GDALRegister_DOQ2
   fun:GDALRegister_raw_no_sidecar
   fun:GDALAllRegister
   fun:_ZN11CSimulation27bCheckRasterGISOutputFormatEv
   fun:_ZN11CSimulation13nDoSimulationEiPPKc
   fun:main
}
{
   <insert_a_suppression_name_here>
   Memcheck:Leak
   match-leak-kinds: reachable
   fun:_Znwm
   obj:/usr/lib/x86_64-linux-gnu/libgdal.so.36.3.10.2
   fun:_ZN23GDALMultiDomainMetadata15SetMetadataItemEPKcS1_S1_
   fun:GDALRegister_PAux
   fun:GDALRegister_raw_no_sidecar
   fun:GDALAllRegister
   fun:_ZN11CSimulation27bCheckRasterGISOutputFormatEv
   fun:_ZN11CSimulation13nDoSimulationEiPPKc
   fun:main
}
{
   <insert_a_suppression_name_here>
   Memcheck:Leak
   match-leak-kinds: reachable
   fun:_Znwm
   obj:/usr/lib/x86_64-linux-gnu/libgdal.so.36.3.10.2
   fun:_ZN23GDALMultiDomainMetadata15SetMetadataItemEPKcS1_S1_
   fun:GDALRegister_MFF
   fun:GDALRegister_raw_no_sidecar
   fun:GDALAllRegister
   fun:_ZN11CSimulation27bCheckRasterGISOutputFormatEv
   fun:_ZN11CSimulation13nDoSimulationEiPPKc
   fun:main
}
{
   <insert_a_suppression_name_here>
   Memcheck:Leak
   match-leak-kinds: reachable
   fun:_Znwm
   obj:/usr/lib/x86_64-linux-gnu/libgdal.so.36.3.10.2
   fun:_ZN23GDALMultiDomainMetadata15SetMetadataItemEPKcS1_S1_
   fun:GDALRegister_HKV
   fun:GDALRegister_raw_no_sidecar
   fun:GDALAllRegister
   fun:_ZN11CSimulation27bCheckRasterGISOutputFormatEv
   fun:_ZN11CSimulation13nDoSimulationEiPPKc
   fun:main
}
{
   <insert_a_suppression_name_here>
   Memcheck:Leak
   match-leak-kinds: reachable
   fun:_Znwm
   obj:/usr/lib/x86_64-linux-gnu/libgdal.so.36.3.10.2
   fun:_ZN23GDALMultiDomainMetadata15SetMetadataItemEPKcS1_S1_
   fun:GDALRegister_GSC
   fun:GDALRegister_raw_no_sidecar
   fun:GDALAllRegister
   fun:_ZN11CSimulation27bCheckRasterGISOutputFormatEv
   fun:_ZN11CSimulation13nDoSimulationEiPPKc
   fun:main
}
{
   <insert_a_suppression_name_here>
   Memcheck:Leak
   match-leak-kinds: reachable
   fun:_Znwm
   obj:/usr/lib/x86_64-linux-gnu/libgdal.so.36.3.10.2
   fun:_ZN23GDALMultiDomainMetadata15SetMetadataItemEPKcS1_S1_
   fun:GDALRegister_FAST
   fun:GDALRegister_raw_no_sidecar
   fun:GDALAllRegister
   fun:_ZN11CSimulation27bCheckRasterGISOutputFormatEv
   fun:_ZN11CSimulation13nDoSimulationEiPPKc
   fun:main
}
{
   <insert_a_suppression_name_here>
   Memcheck:Leak
   match-leak-kinds: reachable
   fun:_Znwm
   obj:/usr/lib/x86_64-linux-gnu/libgdal.so.36.3.10.2
   fun:_ZN23GDALMultiDomainMetadata15SetMetadataItemEPKcS1_S1_
   fun:GDALRegister_BT
   fun:GDALRegister_raw_no_sidecar
   fun:GDALAllRegister
   fun:_ZN11CSimulation27bCheckRasterGISOutputFormatEv
   fun:_ZN11CSimulation13nDoSimulationEiPPKc
   fun:main
}
{
   <insert_a_suppression_name_here>
   Memcheck:Leak
   match-leak-kinds: reachable
   fun:_Znwm
   obj:/usr/lib/x86_64-linux-gnu/libgdal.so.36.3.10.2
   fun:_ZN23GDALMultiDomainMetadata15SetMetadataItemEPKcS1_S1_
   fun:GDALRegister_LAN
   fun:GDALRegister_raw_no_sidecar
   fun:GDALAllRegister
   fun:_ZN11CSimulation27bCheckRasterGISOutputFormatEv
   fun:_ZN11CSimulation13nDoSimulationEiPPKc
   fun:main
}
{
   <insert_a_suppression_name_here>
   Memcheck:Leak
   match-leak-kinds: reachable
   fun:_Znwm
   obj:/usr/lib/x86_64-linux-gnu/libgdal.so.36.3.10.2
   fun:_ZN23GDALMultiDomainMetadata15SetMetadataItemEPKcS1_S1_
   fun:GDALRegister_CPG
   fun:GDALRegister_raw_no_sidecar
   fun:GDALAllRegister
   fun:_ZN11CSimulation27bCheckRasterGISOutputFormatEv
   fun:_ZN11CSimulation13nDoSimulationEiPPKc
   fun:main
}
{
   <insert_a_suppression_name_here>
   Memcheck:Leak
   match-leak-kinds: reachable
   fun:_Znwm
   obj:/usr/lib/x86_64-linux-gnu/libgdal.so.36.3.10.2
   fun:_ZN23GDALMultiDomainMetadata15SetMetadataItemEPKcS1_S1_
   fun:GDALRegister_NDF
   fun:GDALRegister_raw_no_sidecar
   fun:GDALAllRegister
   fun:_ZN11CSimulation27bCheckRasterGISOutputFormatEv
   fun:_ZN11CSimulation13nDoSimulationEiPPKc
   fun:main
}
{
   <insert_a_suppression_name_here>
   Memcheck:Leak
   match-leak-kinds: reachable
   fun:_Znwm
   obj:/usr/lib/x86_64-linux-gnu/libgdal.so.36.3.10.2
   fun:_ZN23GDALMultiDomainMetadata15SetMetadataItemEPKcS1_S1_
   fun:GDALRegister_EIR
   fun:GDALRegister_raw_no_sidecar
   fun:GDALAllRegister
   fun:_ZN11CSimulation27bCheckRasterGISOutputFormatEv
   fun:_ZN11CSimulation13nDoSimulationEiPPKc
   fun:main
}
{
   <insert_a_suppression_name_here>
   Memcheck:Leak
   match-leak-kinds: reachable
   fun:_Znwm
   obj:/usr/lib/x86_64-linux-gnu/libgdal.so.36.3.10.2
   fun:_ZN23GDALMultiDomainMetadata15SetMetadataItemEPKcS1_S1_
   fun:GDALRegister_DIPEx
   fun:GDALRegister_raw_no_sidecar
   fun:GDALAllRegister
   fun:_ZN11CSimulation27bCheckRasterGISOutputFormatEv
   fun:_ZN11CSimulation13nDoSimulationEiPPKc
   fun:main
}
{
   <insert_a_suppression_name_here>
   Memcheck:Leak
   match-leak-kinds: reachable
   fun:_Znwm
   obj:/usr/lib/x86_64-linux-gnu/libgdal.so.36.3.10.2
   fun:_ZN23GDALMultiDomainMetadata15SetMetadataItemEPKcS1_S1_
   fun:GDALRegister_LCP
   fun:GDALRegister_raw_no_sidecar
   fun:GDALAllRegister
   fun:_ZN11CSimulation27bCheckRasterGISOutputFormatEv
   fun:_ZN11CSimulation13nDoSimulationEiPPKc
   fun:main
}
{
   <insert_a_suppression_name_here>
   Memcheck:Leak
   match-leak-kinds: reachable
   fun:_Znwm
   obj:/usr/lib/x86_64-linux-gnu/libgdal.so.36.3.10.2
   fun:_ZN23GDALMultiDomainMetadata15SetMetadataItemEPKcS1_S1_
   fun:GDALRegister_GTX
   fun:GDALRegister_raw_no_sidecar
   fun:GDALAllRegister
   fun:_ZN11CSimulation27bCheckRasterGISOutputFormatEv
   fun:_ZN11CSimulation13nDoSimulationEiPPKc
   fun:main
}
{
   <insert_a_suppression_name_here>
   Memcheck:Leak
   match-leak-kinds: reachable
   fun:_Znwm
   obj:/usr/lib/x86_64-linux-gnu/libgdal.so.36.3.10.2
   fun:_ZN23GDALMultiDomainMetadata15SetMetadataItemEPKcS1_S1_
   fun:GDALRegister_LOSLAS
   fun:GDALRegister_raw_no_sidecar
   fun:GDALAllRegister
   fun:_ZN11CSimulation27bCheckRasterGISOutputFormatEv
   fun:_ZN11CSimulation13nDoSimulationEiPPKc
   fun:main
}
{
   <insert_a_suppression_name_here>
   Memcheck:Leak
   match-leak-kinds: reachable
   fun:_Znwm
   obj:/usr/lib/x86_64-linux-gnu/libgdal.so.36.3.10.2
   fun:_ZN23GDALMultiDomainMetadata15SetMetadataItemEPKcS1_S1_
   fun:GDALRegister_NTv2
   fun:GDALRegister_raw_no_sidecar
   fun:GDALAllRegister
   fun:_ZN11CSimulation27bCheckRasterGISOutputFormatEv
   fun:_ZN11CSimulation13nDoSimulationEiPPKc
   fun:main
}
{
   <insert_a_suppression_name_here>
   Memcheck:Leak
   match-leak-kinds: reachable
   fun:_Znwm
   obj:/usr/lib/x86_64-linux-gnu/libgdal.so.36.3.10.2
   fun:_ZN23GDALMultiDomainMetadata15SetMetadataItemEPKcS1_S1_
   fun:GDALRegister_CTable2
   fun:GDALRegister_raw_no_sidecar
   fun:GDALAllRegister
   fun:_ZN11CSimulation27bCheckRasterGISOutputFormatEv
   fun:_ZN11CSimulation13nDoSimulationEiPPKc
   fun:main
}
{
   <insert_a_suppression_name_here>
   Memcheck:Leak
   match-leak-kinds: reachable
   fun:_Znwm
   obj:/usr/lib/x86_64-linux-gnu/libgdal.so.36.3.10.2
   fun:_ZN23GDALMultiDomainMetadata15SetMetadataItemEPKcS1_S1_
   fun:GDALRegister_ACE2
   fun:GDALRegister_raw_no_sidecar
   fun:GDALAllRegister
   fun:_ZN11CSimulation27bCheckRasterGISOutputFormatEv
   fun:_ZN11CSimulation13nDoSimulationEiPPKc
   fun:main
}
{
   <insert_a_suppression_name_here>
   Memcheck:Leak
   match-leak-kinds: reachable
   fun:_Znwm
   obj:/usr/lib/x86_64-linux-gnu/libgdal.so.36.3.10.2
   fun:_ZN23GDALMultiDomainMetadata15SetMetadataItemEPKcS1_S1_
   fun:GDALRegister_SNODAS
   fun:GDALRegister_raw_no_sidecar
   fun:GDALAllRegister
   fun:_ZN11CSimulation27bCheckRasterGISOutputFormatEv
   fun:_ZN11CSimulation13nDoSimulationEiPPKc
   fun:main
}
{
   <insert_a_suppression_name_here>
   Memcheck:Leak
   match-leak-kinds: reachable
   fun:_Znwm
   obj:/usr/lib/x86_64-linux-gnu/libgdal.so.36.3.10.2
   fun:_ZN23GDALMultiDomainMetadata15SetMetadataItemEPKcS1_S1_
   fun:GDALRegister_KRO
   fun:GDALRegister_raw_no_sidecar
   fun:GDALAllRegister
   fun:_ZN11CSimulation27bCheckRasterGISOutputFormatEv
   fun:_ZN11CSimulation13nDoSimulationEiPPKc
   fun:main
}
{
   <insert_a_suppression_name_here>
   Memcheck:Leak
   match-leak-kinds: reachable
   fun:_Znwm
   obj:/usr/lib/x86_64-linux-gnu/libgdal.so.36.3.10.2
   fun:_ZN23GDALMultiDomainMetadata15SetMetadataItemEPKcS1_S1_
   fun:GDALRegister_ROIPAC
   fun:GDALRegister_raw_no_sidecar
   fun:GDALAllRegister
   fun:_ZN11CSimulation27bCheckRasterGISOutputFormatEv
   fun:_ZN11CSimulation13nDoSimulationEiPPKc
   fun:main
}
{
   <insert_a_suppression_name_here>
   Memcheck:Leak
   match-leak-kinds: reachable
   fun:_Znwm
   obj:/usr/lib/x86_64-linux-gnu/libgdal.so.36.3.10.2
   fun:_ZN23GDALMultiDomainMetadata15SetMetadataItemEPKcS1_S1_
   fun:GDALRegister_RRASTER
   fun:GDALRegister_raw_no_sidecar
   fun:GDALAllRegister
   fun:_ZN11CSimulation27bCheckRasterGISOutputFormatEv
   fun:_ZN11CSimulation13nDoSimulationEiPPKc
   fun:main
}
{
   <insert_a_suppression_name_here>
   Memcheck:Leak
   match-leak-kinds: reachable
   fun:_Znwm
   obj:/usr/lib/x86_64-linux-gnu/libgdal.so.36.3.10.2
   fun:_ZN23GDALMultiDomainMetadata15SetMetadataItemEPKcS1_S1_
   fun:GDALRegister_BYN
   fun:GDALRegister_raw_no_sidecar
   fun:GDALAllRegister
   fun:_ZN11CSimulation27bCheckRasterGISOutputFormatEv
   fun:_ZN11CSimulation13nDoSimulationEiPPKc
   fun:main
}
{
   <insert_a_suppression_name_here>
   Memcheck:Leak
   match-leak-kinds: reachable
   fun:_Znwm
   obj:/usr/lib/x86_64-linux-gnu/libgdal.so.36.3.10.2
   fun:_ZN23GDALMultiDomainMetadata15SetMetadataItemEPKcS1_S1_
   fun:GDALRegister_NOAA_B
   fun:GDALRegister_raw_no_sidecar
   fun:GDALAllRegister
   fun:_ZN11CSimulation27bCheckRasterGISOutputFormatEv
   fun:_ZN11CSimulation13nDoSimulationEiPPKc
   fun:main
}
{
   <insert_a_suppression_name_here>
   Memcheck:Leak
   match-leak-kinds: reachable
   fun:_Znwm
   obj:/usr/lib/x86_64-linux-gnu/libgdal.so.36.3.10.2
   fun:_ZN23GDALMultiDomainMetadata15SetMetadataItemEPKcS1_S1_
   fun:GDALRegister_NSIDCbin
   fun:GDALAllRegister
   fun:_ZN11CSimulation27bCheckRasterGISOutputFormatEv
   fun:_ZN11CSimulation13nDoSimulationEiPPKc
   fun:main
}
{
   <insert_a_suppression_name_here>
   Memcheck:Leak
   match-leak-kinds: reachable
   fun:_Znwm
   obj:/usr/lib/x86_64-linux-gnu/libgdal.so.36.3.10.2
   fun:_ZN23GDALMultiDomainMetadata15SetMetadataItemEPKcS1_S1_
   fun:GDALRegister_RIK
   fun:GDALAllRegister
   fun:_ZN11CSimulation27bCheckRasterGISOutputFormatEv
   fun:_ZN11CSimulation13nDoSimulationEiPPKc
   fun:main
}
{
   <insert_a_suppression_name_here>
   Memcheck:Leak
   match-leak-kinds: reachable
   fun:_Znwm
   obj:/usr/lib/x86_64-linux-gnu/libgdal.so.36.3.10.2
   fun:_ZN23GDALMultiDomainMetadata15SetMetadataItemEPKcS1_S1_
   fun:GDALRegister_USGSDEM
   fun:GDALAllRegister
   fun:_ZN11CSimulation27bCheckRasterGISOutputFormatEv
   fun:_ZN11CSimulation13nDoSimulationEiPPKc
   fun:main
}
{
   <insert_a_suppression_name_here>
   Memcheck:Leak
   match-leak-kinds: reachable
   fun:_Znwm
   obj:/usr/lib/x86_64-linux-gnu/libgdal.so.36.3.10.2
   fun:_ZN23GDALMultiDomainMetadata15SetMetadataItemEPKcS1_S1_
   fun:GDALRegister_GXF
   fun:GDALAllRegister
   fun:_ZN11CSimulation27bCheckRasterGISOutputFormatEv
   fun:_ZN11CSimulation13nDoSimulationEiPPKc
   fun:main
}
{
   <insert_a_suppression_name_here>
   Memcheck:Leak
   match-leak-kinds: reachable
   fun:_Znwm
   obj:/usr/lib/x86_64-linux-gnu/libgdal.so.36.3.10.2
   fun:_ZN23GDALMultiDomainMetadata15SetMetadataItemEPKcS1_S1_
   fun:GDALRegister_BAG
   fun:GDALAllRegister
   fun:_ZN11CSimulation27bCheckRasterGISOutputFormatEv
   fun:_ZN11CSimulation13nDoSimulationEiPPKc
   fun:main
}
{
   <insert_a_suppression_name_here>
   Memcheck:Leak
   match-leak-kinds: reachable
   fun:_Znwm
   obj:/usr/lib/x86_64-linux-gnu/libgdal.so.36.3.10.2
   fun:_ZN23GDALMultiDomainMetadata15SetMetadataItemEPKcS1_S1_
   fun:GDALRegister_S102
   fun:GDALAllRegister
   fun:_ZN11CSimulation27bCheckRasterGISOutputFormatEv
   fun:_ZN11CSimulation13nDoSimulationEiPPKc
   fun:main
}
{
   <insert_a_suppression_name_here>
   Memcheck:Leak
   match-leak-kinds: reachable
   fun:_Znwm
   obj:/usr/lib/x86_64-linux-gnu/libgdal.so.36.3.10.2
   fun:_ZN23GDALMultiDomainMetadata15SetMetadataItemEPKcS1_S1_
   fun:GDALRegister_S104
   fun:GDALAllRegister
   fun:_ZN11CSimulation27bCheckRasterGISOutputFormatEv
   fun:_ZN11CSimulation13nDoSimulationEiPPKc
   fun:main
}
{
   <insert_a_suppression_name_here>
   Memcheck:Leak
   match-leak-kinds: reachable
   fun:_Znwm
   obj:/usr/lib/x86_64-linux-gnu/libgdal.so.36.3.10.2
   fun:_ZN23GDALMultiDomainMetadata15SetMetadataItemEPKcS1_S1_
   fun:GDALRegister_S111
   fun:GDALAllRegister
   fun:_ZN11CSimulation27bCheckRasterGISOutputFormatEv
   fun:_ZN11CSimulation13nDoSimulationEiPPKc
   fun:main
}
{
   <insert_a_suppression_name_here>
   Memcheck:Leak
   match-leak-kinds: reachable
   fun:_Znwm
   obj:/usr/lib/x86_64-linux-gnu/libgdal.so.36.3.10.2
   fun:_ZN23GDALMultiDomainMetadata15SetMetadataItemEPKcS1_S1_
   fun:GDALRegister_HDF5
   fun:GDALAllRegister
   fun:_ZN11CSimulation27bCheckRasterGISOutputFormatEv
   fun:_ZN11CSimulation13nDoSimulationEiPPKc
   fun:main
}
{
   <insert_a_suppression_name_here>
   Memcheck:Leak
   match-leak-kinds: reachable
   fun:_Znwm
   obj:/usr/lib/x86_64-linux-gnu/libgdal.so.36.3.10.2
   fun:_ZN23GDALMultiDomainMetadata15SetMetadataItemEPKcS1_S1_
   fun:GDALRegister_HDF5Image
   fun:GDALAllRegister
   fun:_ZN11CSimulation27bCheckRasterGISOutputFormatEv
   fun:_ZN11CSimulation13nDoSimulationEiPPKc
   fun:main
}
{
   <insert_a_suppression_name_here>
   Memcheck:Leak
   match-leak-kinds: reachable
   fun:_Znwm
   obj:/usr/lib/x86_64-linux-gnu/libgdal.so.36.3.10.2
   fun:_ZN23GDALMultiDomainMetadata15SetMetadataItemEPKcS1_S1_
   fun:GDALRegister_NWT_GRD
   fun:GDALAllRegister
   fun:_ZN11CSimulation27bCheckRasterGISOutputFormatEv
   fun:_ZN11CSimulation13nDoSimulationEiPPKc
   fun:main
}
{
   <insert_a_suppression_name_here>
   Memcheck:Leak
   match-leak-kinds: reachable
   fun:_Znwm
   obj:/usr/lib/x86_64-linux-gnu/libgdal.so.36.3.10.2
   fun:_ZN23GDALMultiDomainMetadata15SetMetadataItemEPKcS1_S1_
   fun:GDALRegister_NWT_GRC
   fun:GDALAllRegister
   fun:_ZN11CSimulation27bCheckRasterGISOutputFormatEv
   fun:_ZN11CSimulation13nDoSimulationEiPPKc
   fun:main
}
{
   <insert_a_suppression_name_here>
   Memcheck:Leak
   match-leak-kinds: reachable
   fun:_Znwm
   obj:/usr/lib/x86_64-linux-gnu/libgdal.so.36.3.10.2
   fun:_ZN23GDALMultiDomainMetadata15SetMetadataItemEPKcS1_S1_
   fun:GDALRegister_ADRG
   fun:GDALAllRegister
   fun:_ZN11CSimulation27bCheckRasterGISOutputFormatEv
   fun:_ZN11CSimulation13nDoSimulationEiPPKc
   fun:main
}
{
   <insert_a_suppression_name_here>
   Memcheck:Leak
   match-leak-kinds: reachable
   fun:_Znwm
   obj:/usr/lib/x86_64-linux-gnu/libgdal.so.36.3.10.2
   fun:_ZN23GDALMultiDomainMetadata15SetMetadataItemEPKcS1_S1_
   fun:GDALRegister_SRP
   fun:GDALAllRegister
   fun:_ZN11CSimulation27bCheckRasterGISOutputFormatEv
   fun:_ZN11CSimulation13nDoSimulationEiPPKc
   fun:main
}
{
   <insert_a_suppression_name_here>
   Memcheck:Leak
   match-leak-kinds: reachable
   fun:_Znwm
   obj:/usr/lib/x86_64-linux-gnu/libgdal.so.36.3.10.2
   fun:_ZN23GDALMultiDomainMetadata15SetMetadataItemEPKcS1_S1_
   fun:GDALRegister_BLX
   fun:GDALAllRegister
   fun:_ZN11CSimulation27bCheckRasterGISOutputFormatEv
   fun:_ZN11CSimulation13nDoSimulationEiPPKc
   fun:main
}
{
   <insert_a_suppression_name_here>
   Memcheck:Leak
   match-leak-kinds: reachable
   fun:_Znwm
   obj:/usr/lib/x86_64-linux-gnu/libgdal.so.36.3.10.2
   fun:_ZN23GDALMultiDomainMetadata15SetMetadataItemEPKcS1_S1_
   fun:GDALRegister_PostGISRaster
   fun:GDALAllRegister
   fun:_ZN11CSimulation27bCheckRasterGISOutputFormatEv
   fun:_ZN11CSimulation13nDoSimulationEiPPKc
   fun:main
}
{
   <insert_a_suppression_name_here>
   Memcheck:Leak
   match-leak-kinds: reachable
   fun:_Znwm
   obj:/usr/lib/x86_64-linux-gnu/libgdal.so.36.3.10.2
   fun:_ZN23GDALMultiDomainMetadata15SetMetadataItemEPKcS1_S1_
   fun:GDALRegister_SAGA
   fun:GDALAllRegister
   fun:_ZN11CSimulation27bCheckRasterGISOutputFormatEv
   fun:_ZN11CSimulation13nDoSimulationEiPPKc
   fun:main
}
{
   <insert_a_suppression_name_here>
   Memcheck:Leak
   match-leak-kinds: reachable
   fun:_Znwm
   obj:/usr/lib/x86_64-linux-gnu/libgdal.so.36.3.10.2
   fun:_ZN23GDALMultiDomainMetadata15SetMetadataItemEPKcS1_S1_
   fun:GDALRegister_XYZ
   fun:GDALAllRegister
   fun:_ZN11CSimulation27bCheckRasterGISOutputFormatEv
   fun:_ZN11CSimulation13nDoSimulationEiPPKc
   fun:main
}
{
   <insert_a_suppression_name_here>
   Memcheck:Leak
   match-leak-kinds: reachable
   fun:_Znwm
   obj:/usr/lib/x86_64-linux-gnu/libgdal.so.36.3.10.2
   fun:_ZN23GDALMultiDomainMetadata15SetMetadataItemEPKcS1_S1_
   fun:GDALRegister_HF2
   fun:GDALAllRegister
   fun:_ZN11CSimulation27bCheckRasterGISOutputFormatEv
   fun:_ZN11CSimulation13nDoSimulationEiPPKc
   fun:main
}
{
   <insert_a_suppression_name_here>
   Memcheck:Leak
   match-leak-kinds: reachable
   fun:_Znwm
   obj:/usr/lib/x86_64-linux-gnu/libgdal.so.36.3.10.2
   fun:_ZN23GDALMultiDomainMetadata15SetMetadataItemEPKcS1_S1_
   fun:GDALRegister_OZI
   fun:GDALAllRegister
   fun:_ZN11CSimulation27bCheckRasterGISOutputFormatEv
   fun:_ZN11CSimulation13nDoSimulationEiPPKc
   fun:main
}
{
   <insert_a_suppression_name_here>
   Memcheck:Leak
   match-leak-kinds: reachable
   fun:_Znwm
   obj:/usr/lib/x86_64-linux-gnu/libgdal.so.36.3.10.2
   fun:_ZN23GDALMultiDomainMetadata15SetMetadataItemEPKcS1_S1_
   fun:GDALRegister_CTG
   fun:GDALAllRegister
   fun:_ZN11CSimulation27bCheckRasterGISOutputFormatEv
   fun:_ZN11CSimulation13nDoSimulationEiPPKc
   fun:main
}
{
   <insert_a_suppression_name_here>
   Memcheck:Leak
   match-leak-kinds: reachable
   fun:_Znwm
   obj:/usr/lib/x86_64-linux-gnu/libgdal.so.36.3.10.2
   fun:_ZN23GDALMultiDomainMetadata15SetMetadataItemEPKcS1_S1_
   fun:GDALRegister_ZMap
   fun:GDALAllRegister
   fun:_ZN11CSimulation27bCheckRasterGISOutputFormatEv
   fun:_ZN11CSimulation13nDoSimulationEiPPKc
   fun:main
}
{
   <insert_a_suppression_name_here>
   Memcheck:Leak
   match-leak-kinds: reachable
   fun:_Znwm
   obj:/usr/lib/x86_64-linux-gnu/libgdal.so.36.3.10.2
   fun:_ZN23GDALMultiDomainMetadata15SetMetadataItemEPKcS1_S1_
   fun:GDALRegister_NGSGEOID
   fun:GDALAllRegister
   fun:_ZN11CSimulation27bCheckRasterGISOutputFormatEv
   fun:_ZN11CSimulation13nDoSimulationEiPPKc
   fun:main
}
{
   <insert_a_suppression_name_here>
   Memcheck:Leak
   match-leak-kinds: reachable
   fun:_Znwm
   obj:/usr/lib/x86_64-linux-gnu/libgdal.so.36.3.10.2
   fun:_ZN23GDALMultiDomainMetadata15SetMetadataItemEPKcS1_S1_
   fun:GDALRegister_IRIS
   fun:GDALAllRegister
   fun:_ZN11CSimulation27bCheckRasterGISOutputFormatEv
   fun:_ZN11CSimulation13nDoSimulationEiPPKc
   fun:main
}
{
   <insert_a_suppression_name_here>
   Memcheck:Leak
   match-leak-kinds: reachable
   fun:_Znwm
   obj:/usr/lib/x86_64-linux-gnu/libgdal.so.36.3.10.2
   fun:_ZN23GDALMultiDomainMetadata15SetMetadataItemEPKcS1_S1_
   fun:GDALRegister_PRF
   fun:GDALAllRegister
   fun:_ZN11CSimulation27bCheckRasterGISOutputFormatEv
   fun:_ZN11CSimulation13nDoSimulationEiPPKc
   fun:main
}
{
   <insert_a_suppression_name_here>
   Memcheck:Leak
   match-leak-kinds: reachable
   fun:_Znwm
   obj:/usr/lib/x86_64-linux-gnu/libgdal.so.36.3.10.2
   fun:_ZN23GDALMultiDomainMetadata15SetMetadataItemEPKcS1_S1_
   fun:GDALRegister_EEDAI
   fun:GDALAllRegister
   fun:_ZN11CSimulation27bCheckRasterGISOutputFormatEv
   fun:_ZN11CSimulation13nDoSimulationEiPPKc
   fun:main
}
{
   <insert_a_suppression_name_here>
   Memcheck:Leak
   match-leak-kinds: reachable
   fun:_Znwm
   obj:/usr/lib/x86_64-linux-gnu/libgdal.so.36.3.10.2
   fun:_ZN23GDALMultiDomainMetadata15SetMetadataItemEPKcS1_S1_
   fun:GDALRegister_EEDA
   fun:GDALAllRegister
   fun:_ZN11CSimulation27bCheckRasterGISOutputFormatEv
   fun:_ZN11CSimulation13nDoSimulationEiPPKc
   fun:main
}
{
   <insert_a_suppression_name_here>
   Memcheck:Leak
   match-leak-kinds: reachable
   fun:_Znwm
   obj:/usr/lib/x86_64-linux-gnu/libgdal.so.36.3.10.2
   fun:_ZN23GDALMultiDomainMetadata15SetMetadataItemEPKcS1_S1_
   fun:GDALRegister_DAAS
   fun:GDALAllRegister
   fun:_ZN11CSimulation27bCheckRasterGISOutputFormatEv
   fun:_ZN11CSimulation13nDoSimulationEiPPKc
   fun:main
}
{
   <insert_a_suppression_name_here>
   Memcheck:Leak
   match-leak-kinds: reachable
   fun:_Znwm
   obj:/usr/lib/x86_64-linux-gnu/libgdal.so.36.3.10.2
   fun:_ZN23GDALMultiDomainMetadata15SetMetadataItemEPKcS1_S1_
   fun:GDALRegister_SIGDEM
   fun:GDALAllRegister
   fun:_ZN11CSimulation27bCheckRasterGISOutputFormatEv
   fun:_ZN11CSimulation13nDoSimulationEiPPKc
   fun:main
}
{
   <insert_a_suppression_name_here>
   Memcheck:Leak
   match-leak-kinds: reachable
   fun:_Znwm
   obj:/usr/lib/x86_64-linux-gnu/libgdal.so.36.3.10.2
   fun:_ZN23GDALMultiDomainMetadata15SetMetadataItemEPKcS1_S1_
   obj:/usr/lib/x86_64-linux-gnu/libgdal.so.36.3.10.2
   fun:GDALRegister_AVIF
   fun:GDALAllRegister
   fun:_ZN11CSimulation27bCheckRasterGISOutputFormatEv
   fun:_ZN11CSimulation13nDoSimulationEiPPKc
   fun:main
}
{
   <insert_a_suppression_name_here>
   Memcheck:Leak
   match-leak-kinds: reachable
   fun:_Znwm
   obj:/usr/lib/x86_64-linux-gnu/libgdal.so.36.3.10.2
   fun:_ZN23GDALMultiDomainMetadata15SetMetadataItemEPKcS1_S1_
   fun:GDALRegister_HEIF
   fun:GDALAllRegister
   fun:_ZN11CSimulation27bCheckRasterGISOutputFormatEv
   fun:_ZN11CSimulation13nDoSimulationEiPPKc
   fun:main
}
{
   <insert_a_suppression_name_here>
   Memcheck:Leak
   match-leak-kinds: reachable
   fun:_Znwm
   obj:/usr/lib/x86_64-linux-gnu/libgdal.so.36.3.10.2
   fun:_ZN23GDALMultiDomainMetadata15SetMetadataItemEPKcS1_S1_
   fun:GDALRegister_TGA
   fun:GDALAllRegister
   fun:_ZN11CSimulation27bCheckRasterGISOutputFormatEv
   fun:_ZN11CSimulation13nDoSimulationEiPPKc
   fun:main
}
{
   <insert_a_suppression_name_here>
   Memcheck:Leak
   match-leak-kinds: reachable
   fun:_Znwm
   obj:/usr/lib/x86_64-linux-gnu/libgdal.so.36.3.10.2
   fun:_ZN23GDALMultiDomainMetadata15SetMetadataItemEPKcS1_S1_
   fun:GDALRegister_OGCAPI
   fun:GDALAllRegister
   fun:_ZN11CSimulation27bCheckRasterGISOutputFormatEv
   fun:_ZN11CSimulation13nDoSimulationEiPPKc
   fun:main
}
{
   <insert_a_suppression_name_here>
   Memcheck:Leak
   match-leak-kinds: reachable
   fun:_Znwm
   obj:/usr/lib/x86_64-linux-gnu/libgdal.so.36.3.10.2
   fun:_ZN23GDALMultiDomainMetadata15SetMetadataItemEPKcS1_S1_
   fun:GDALRegister_STACTA
   fun:GDALAllRegister
   fun:_ZN11CSimulation27bCheckRasterGISOutputFormatEv
   fun:_ZN11CSimulation13nDoSimulationEiPPKc
   fun:main
}
{
   <insert_a_suppression_name_here>
   Memcheck:Leak
   match-leak-kinds: reachable
   fun:_Znwm
   obj:/usr/lib/x86_64-linux-gnu/libgdal.so.36.3.10.2
   fun:_ZN23GDALMultiDomainMetadata15SetMetadataItemEPKcS1_S1_
   fun:GDALRegister_STACIT
   fun:GDALAllRegister
   fun:_ZN11CSimulation27bCheckRasterGISOutputFormatEv
   fun:_ZN11CSimulation13nDoSimulationEiPPKc
   fun:main
}
{
   <insert_a_suppression_name_here>
   Memcheck:Leak
   match-leak-kinds: reachable
   fun:_Znwm
   obj:/usr/lib/x86_64-linux-gnu/libgdal.so.36.3.10.2
   fun:_ZN23GDALMultiDomainMetadata15SetMetadataItemEPKcS1_S1_
   fun:RegisterGNMFile
   fun:GDALAllRegister
   fun:_ZN11CSimulation27bCheckRasterGISOutputFormatEv
   fun:_ZN11CSimulation13nDoSimulationEiPPKc
   fun:main
}
{
   <insert_a_suppression_name_here>
   Memcheck:Leak
   match-leak-kinds: reachable
   fun:_Znwm
   obj:/usr/lib/x86_64-linux-gnu/libgdal.so.36.3.10.2
   fun:_ZN23GDALMultiDomainMetadata15SetMetadataItemEPKcS1_S1_
   fun:RegisterGNMDatabase
   fun:GDALAllRegister
   fun:_ZN11CSimulation27bCheckRasterGISOutputFormatEv
   fun:_ZN11CSimulation13nDoSimulationEiPPKc
   fun:main
}
{
   <insert_a_suppression_name_here>
   Memcheck:Leak
   match-leak-kinds: reachable
   fun:_Znwm
   obj:/usr/lib/x86_64-linux-gnu/libgdal.so.36.3.10.2
   fun:_ZN23GDALMultiDomainMetadata15SetMetadataItemEPKcS1_S1_
   fun:RegisterOGRShape
   fun:GDALAllRegister
   fun:_ZN11CSimulation27bCheckRasterGISOutputFormatEv
   fun:_ZN11CSimulation13nDoSimulationEiPPKc
   fun:main
}
{
   <insert_a_suppression_name_here>
   Memcheck:Leak
   match-leak-kinds: reachable
   fun:_Znwm
   obj:/usr/lib/x86_64-linux-gnu/libgdal.so.36.3.10.2
   fun:_ZN23GDALMultiDomainMetadata15SetMetadataItemEPKcS1_S1_
   fun:RegisterOGRTAB
   fun:GDALAllRegister
   fun:_ZN11CSimulation27bCheckRasterGISOutputFormatEv
   fun:_ZN11CSimulation13nDoSimulationEiPPKc
   fun:main
}
{
   <insert_a_suppression_name_here>
   Memcheck:Leak
   match-leak-kinds: reachable
   fun:_Znwm
   obj:/usr/lib/x86_64-linux-gnu/libgdal.so.36.3.10.2
   fun:_ZN23GDALMultiDomainMetadata15SetMetadataItemEPKcS1_S1_
   fun:RegisterOGRNTF
   fun:GDALAllRegister
   fun:_ZN11CSimulation27bCheckRasterGISOutputFormatEv
   fun:_ZN11CSimulation13nDoSimulationEiPPKc
   fun:main
}
{
   <insert_a_suppression_name_here>
   Memcheck:Leak
   match-leak-kinds: reachable
   fun:_Znwm
   obj:/usr/lib/x86_64-linux-gnu/libgdal.so.36.3.10.2
   fun:_ZN23GDALMultiDomainMetadata15SetMetadataItemEPKcS1_S1_
   fun:RegisterOGRLVBAG
   fun:GDALAllRegister
   fun:_ZN11CSimulation27bCheckRasterGISOutputFormatEv
   fun:_ZN11CSimulation13nDoSimulationEiPPKc
   fun:main
}
{
   <insert_a_suppression_name_here>
   Memcheck:Leak
   match-leak-kinds: reachable
   fun:_Znwm
   obj:/usr/lib/x86_64-linux-gnu/libgdal.so.36.3.10.2
   fun:_ZN23GDALMultiDomainMetadata15SetMetadataItemEPKcS1_S1_
   fun:RegisterOGRSDTS
   fun:GDALAllRegister
   fun:_ZN11CSimulation27bCheckRasterGISOutputFormatEv
   fun:_ZN11CSimulation13nDoSimulationEiPPKc
   fun:main
}
{
   <insert_a_suppression_name_here>
   Memcheck:Leak
   match-leak-kinds: reachable
   fun:_Znwm
   obj:/usr/lib/x86_64-linux-gnu/libgdal.so.36.3.10.2
   fun:_ZN23GDALMultiDomainMetadata15SetMetadataItemEPKcS1_S1_
   fun:RegisterOGRS57
   fun:GDALAllRegister
   fun:_ZN11CSimulation27bCheckRasterGISOutputFormatEv
   fun:_ZN11CSimulation13nDoSimulationEiPPKc
   fun:main
}
{
   <insert_a_suppression_name_here>
   Memcheck:Leak
   match-leak-kinds: reachable
   fun:_Znwm
   obj:/usr/lib/x86_64-linux-gnu/libgdal.so.36.3.10.2
   fun:_ZN23GDALMultiDomainMetadata15SetMetadataItemEPKcS1_S1_
   fun:RegisterOGRDGN
   fun:GDALAllRegister
   fun:_ZN11CSimulation27bCheckRasterGISOutputFormatEv
   fun:_ZN11CSimulation13nDoSimulationEiPPKc
   fun:main
}
{
   <insert_a_suppression_name_here>
   Memcheck:Leak
   match-leak-kinds: reachable
   fun:_Znwm
   obj:/usr/lib/x86_64-linux-gnu/libgdal.so.36.3.10.2
   fun:_ZN23GDALMultiDomainMetadata15SetMetadataItemEPKcS1_S1_
   fun:RegisterOGRVRT
   fun:GDALAllRegister
   fun:_ZN11CSimulation27bCheckRasterGISOutputFormatEv
   fun:_ZN11CSimulation13nDoSimulationEiPPKc
   fun:main
}
{
   <insert_a_suppression_name_here>
   Memcheck:Leak
   match-leak-kinds: reachable
   fun:_Znwm
   obj:/usr/lib/x86_64-linux-gnu/libgdal.so.36.3.10.2
   fun:_ZN23GDALMultiDomainMetadata15SetMetadataItemEPKcS1_S1_
   fun:RegisterOGRMEM
   fun:GDALAllRegister
   fun:_ZN11CSimulation27bCheckRasterGISOutputFormatEv
   fun:_ZN11CSimulation13nDoSimulationEiPPKc
   fun:main
}
{
   <insert_a_suppression_name_here>
   Memcheck:Leak
   match-leak-kinds: reachable
   fun:_Znwm
   obj:/usr/lib/x86_64-linux-gnu/libgdal.so.36.3.10.2
   fun:_ZN23GDALMultiDomainMetadata15SetMetadataItemEPKcS1_S1_
   fun:RegisterOGRCSV
   fun:GDALAllRegister
   fun:_ZN11CSimulation27bCheckRasterGISOutputFormatEv
   fun:_ZN11CSimulation13nDoSimulationEiPPKc
   fun:main
}
{
   <insert_a_suppression_name_here>
   Memcheck:Leak
   match-leak-kinds: reachable
   fun:_Znwm
   obj:/usr/lib/x86_64-linux-gnu/libgdal.so.36.3.10.2
   fun:_ZN23GDALMultiDomainMetadata15SetMetadataItemEPKcS1_S1_
   fun:RegisterOGRNAS
   fun:GDALAllRegister
   fun:_ZN11CSimulation27bCheckRasterGISOutputFormatEv
   fun:_ZN11CSimulation13nDoSimulationEiPPKc
   fun:main
}
{
   <insert_a_suppression_name_here>
   Memcheck:Leak
   match-leak-kinds: reachable
   fun:_Znwm
   obj:/usr/lib/x86_64-linux-gnu/libgdal.so.36.3.10.2
   fun:_ZN23GDALMultiDomainMetadata15SetMetadataItemEPKcS1_S1_
   fun:RegisterOGRGML
   fun:GDALAllRegister
   fun:_ZN11CSimulation27bCheckRasterGISOutputFormatEv
   fun:_ZN11CSimulation13nDoSimulationEiPPKc
   fun:main
}
{
   <insert_a_suppression_name_here>
   Memcheck:Leak
   match-leak-kinds: reachable
   fun:_Znwm
   obj:/usr/lib/x86_64-linux-gnu/libgdal.so.36.3.10.2
   fun:_ZN23GDALMultiDomainMetadata15SetMetadataItemEPKcS1_S1_
   fun:RegisterOGRGPX
   fun:GDALAllRegister
   fun:_ZN11CSimulation27bCheckRasterGISOutputFormatEv
   fun:_ZN11CSimulation13nDoSimulationEiPPKc
   fun:main
}
{
   <insert_a_suppression_name_here>
   Memcheck:Leak
   match-leak-kinds: reachable
   fun:_Znwm
   obj:/usr/lib/x86_64-linux-gnu/libgdal.so.36.3.10.2
   fun:_ZN23GDALMultiDomainMetadata15SetMetadataItemEPKcS1_S1_
   fun:RegisterOGRLIBKML
   fun:GDALAllRegister
   fun:_ZN11CSimulation27bCheckRasterGISOutputFormatEv
   fun:_ZN11CSimulation13nDoSimulationEiPPKc
   fun:main
}
{
   <insert_a_suppression_name_here>
   Memcheck:Leak
   match-leak-kinds: reachable
   fun:_Znwm
   obj:/usr/lib/x86_64-linux-gnu/libgdal.so.36.3.10.2
   fun:_ZN23GDALMultiDomainMetadata15SetMetadataItemEPKcS1_S1_
   fun:RegisterOGRKML
   fun:GDALAllRegister
   fun:_ZN11CSimulation27bCheckRasterGISOutputFormatEv
   fun:_ZN11CSimulation13nDoSimulationEiPPKc
   fun:main
}
{
   <insert_a_suppression_name_here>
   Memcheck:Leak
   match-leak-kinds: reachable
   fun:_Znwm
   obj:/usr/lib/x86_64-linux-gnu/libgdal.so.36.3.10.2
   fun:_ZN23GDALMultiDomainMetadata15SetMetadataItemEPKcS1_S1_
   fun:RegisterOGRGeoJSON
   fun:GDALAllRegister
   fun:_ZN11CSimulation27bCheckRasterGISOutputFormatEv
   fun:_ZN11CSimulation13nDoSimulationEiPPKc
   fun:main
}
{
   <insert_a_suppression_name_here>
   Memcheck:Leak
   match-leak-kinds: reachable
   fun:_Znwm
   obj:/usr/lib/x86_64-linux-gnu/libgdal.so.36.3.10.2
   fun:_ZN23GDALMultiDomainMetadata15SetMetadataItemEPKcS1_S1_
   fun:RegisterOGRGeoJSONSeq
   fun:GDALAllRegister
   fun:_ZN11CSimulation27bCheckRasterGISOutputFormatEv
   fun:_ZN11CSimulation13nDoSimulationEiPPKc
   fun:main
}
{
   <insert_a_suppression_name_here>
   Memcheck:Leak
   match-leak-kinds: reachable
   fun:_Znwm
   obj:/usr/lib/x86_64-linux-gnu/libgdal.so.36.3.10.2
   fun:_ZN23GDALMultiDomainMetadata15SetMetadataItemEPKcS1_S1_
   fun:RegisterOGRESRIJSON
   fun:GDALAllRegister
   fun:_ZN11CSimulation27bCheckRasterGISOutputFormatEv
   fun:_ZN11CSimulation13nDoSimulationEiPPKc
   fun:main
}
{
   <insert_a_suppression_name_here>
   Memcheck:Leak
   match-leak-kinds: reachable
   fun:_Znwm
   obj:/usr/lib/x86_64-linux-gnu/libgdal.so.36.3.10.2
   fun:_ZN23GDALMultiDomainMetadata15SetMetadataItemEPKcS1_S1_
   fun:RegisterOGRTopoJSON
   fun:GDALAllRegister
   fun:_ZN11CSimulation27bCheckRasterGISOutputFormatEv
   fun:_ZN11CSimulation13nDoSimulationEiPPKc
   fun:main
}
{
   <insert_a_suppression_name_here>
   Memcheck:Leak
   match-leak-kinds: reachable
   fun:_Znwm
   obj:/usr/lib/x86_64-linux-gnu/libgdal.so.36.3.10.2
   fun:_ZN23GDALMultiDomainMetadata15SetMetadataItemEPKcS1_S1_
   fun:RegisterOGRILI1
   fun:GDALAllRegister
   fun:_ZN11CSimulation27bCheckRasterGISOutputFormatEv
   fun:_ZN11CSimulation13nDoSimulationEiPPKc
   fun:main
}
{
   <insert_a_suppression_name_here>
   Memcheck:Leak
   match-leak-kinds: reachable
   fun:_Znwm
   obj:/usr/lib/x86_64-linux-gnu/libgdal.so.36.3.10.2
   fun:_ZN23GDALMultiDomainMetadata15SetMetadataItemEPKcS1_S1_
   fun:RegisterOGRILI2
   fun:GDALAllRegister
   fun:_ZN11CSimulation27bCheckRasterGISOutputFormatEv
   fun:_ZN11CSimulation13nDoSimulationEiPPKc
   fun:main
}
{
   <insert_a_suppression_name_here>
   Memcheck:Leak
   match-leak-kinds: reachable
   fun:_Znwm
   obj:/usr/lib/x86_64-linux-gnu/libgdal.so.36.3.10.2
   fun:_ZN23GDALMultiDomainMetadata15SetMetadataItemEPKcS1_S1_
   fun:RegisterOGRGMT
   fun:GDALAllRegister
   fun:_ZN11CSimulation27bCheckRasterGISOutputFormatEv
   fun:_ZN11CSimulation13nDoSimulationEiPPKc
   fun:main
}
{
   <insert_a_suppression_name_here>
   Memcheck:Leak
   match-leak-kinds: reachable
   fun:_Znwm
   obj:/usr/lib/x86_64-linux-gnu/libgdal.so.36.3.10.2
   fun:_ZN23GDALMultiDomainMetadata15SetMetadataItemEPKcS1_S1_
   fun:RegisterOGRGeoPackage
   fun:GDALAllRegister
   fun:_ZN11CSimulation27bCheckRasterGISOutputFormatEv
   fun:_ZN11CSimulation13nDoSimulationEiPPKc
   fun:main
}
{
   <insert_a_suppression_name_here>
   Memcheck:Leak
   match-leak-kinds: reachable
   fun:_Znwm
   obj:/usr/lib/x86_64-linux-gnu/libgdal.so.36.3.10.2
   fun:_ZN23GDALMultiDomainMetadata15SetMetadataItemEPKcS1_S1_
   fun:RegisterOGRSQLite
   fun:GDALAllRegister
   fun:_ZN11CSimulation27bCheckRasterGISOutputFormatEv
   fun:_ZN11CSimulation13nDoSimulationEiPPKc
   fun:main
}
{
   <insert_a_suppression_name_here>
   Memcheck:Leak
   match-leak-kinds: reachable
   fun:_Znwm
   obj:/usr/lib/x86_64-linux-gnu/libgdal.so.36.3.10.2
   fun:_ZN23GDALMultiDomainMetadata15SetMetadataItemEPKcS1_S1_
   fun:RegisterOGRODBC
   fun:GDALAllRegister
   fun:_ZN11CSimulation27bCheckRasterGISOutputFormatEv
   fun:_ZN11CSimulation13nDoSimulationEiPPKc
   fun:main
}
{
   <insert_a_suppression_name_here>
   Memcheck:Leak
   match-leak-kinds: reachable
   fun:_Znwm
   obj:/usr/lib/x86_64-linux-gnu/libgdal.so.36.3.10.2
   fun:_ZN23GDALMultiDomainMetadata15SetMetadataItemEPKcS1_S1_
   fun:RegisterOGRWAsP
   fun:GDALAllRegister
   fun:_ZN11CSimulation27bCheckRasterGISOutputFormatEv
   fun:_ZN11CSimulation13nDoSimulationEiPPKc
   fun:main
}
{
   <insert_a_suppression_name_here>
   Memcheck:Leak
   match-leak-kinds: reachable
   fun:_Znwm
   obj:/usr/lib/x86_64-linux-gnu/libgdal.so.36.3.10.2
   fun:_ZN23GDALMultiDomainMetadata15SetMetadataItemEPKcS1_S1_
   fun:RegisterOGRPGeo
   fun:GDALAllRegister
   fun:_ZN11CSimulation27bCheckRasterGISOutputFormatEv
   fun:_ZN11CSimulation13nDoSimulationEiPPKc
   fun:main
}
{
   <insert_a_suppression_name_here>
   Memcheck:Leak
   match-leak-kinds: reachable
   fun:_Znwm
   obj:/usr/lib/x86_64-linux-gnu/libgdal.so.36.3.10.2
   fun:_ZN23GDALMultiDomainMetadata15SetMetadataItemEPKcS1_S1_
   fun:RegisterOGRMSSQLSpatial
   fun:GDALAllRegister
   fun:_ZN11CSimulation27bCheckRasterGISOutputFormatEv
   fun:_ZN11CSimulation13nDoSimulationEiPPKc
   fun:main
}
{
   <insert_a_suppression_name_here>
   Memcheck:Leak
   match-leak-kinds: reachable
   fun:_Znwm
   obj:/usr/lib/x86_64-linux-gnu/libgdal.so.36.3.10.2
   fun:_ZN23GDALMultiDomainMetadata15SetMetadataItemEPKcS1_S1_
   fun:RegisterOGROGDI
   fun:GDALAllRegister
   fun:_ZN11CSimulation27bCheckRasterGISOutputFormatEv
   fun:_ZN11CSimulation13nDoSimulationEiPPKc
   fun:main
}
{
   <insert_a_suppression_name_here>
   Memcheck:Leak
   match-leak-kinds: reachable
   fun:_Znwm
   obj:/usr/lib/x86_64-linux-gnu/libgdal.so.36.3.10.2
   fun:_ZN23GDALMultiDomainMetadata15SetMetadataItemEPKcS1_S1_
   fun:RegisterOGRPG
   fun:GDALAllRegister
   fun:_ZN11CSimulation27bCheckRasterGISOutputFormatEv
   fun:_ZN11CSimulation13nDoSimulationEiPPKc
   fun:main
}
{
   <insert_a_suppression_name_here>
   Memcheck:Leak
   match-leak-kinds: reachable
   fun:_Znwm
   obj:/usr/lib/x86_64-linux-gnu/libgdal.so.36.3.10.2
   fun:_ZN23GDALMultiDomainMetadata15SetMetadataItemEPKcS1_S1_
   fun:RegisterOGRMySQL
   fun:GDALAllRegister
   fun:_ZN11CSimulation27bCheckRasterGISOutputFormatEv
   fun:_ZN11CSimulation13nDoSimulationEiPPKc
   fun:main
}
{
   <insert_a_suppression_name_here>
   Memcheck:Leak
   match-leak-kinds: reachable
   fun:_Znwm
   obj:/usr/lib/x86_64-linux-gnu/libgdal.so.36.3.10.2
   fun:_ZN23GDALMultiDomainMetadata15SetMetadataItemEPKcS1_S1_
   fun:RegisterOGROpenFileGDB
   fun:GDALAllRegister
   fun:_ZN11CSimulation27bCheckRasterGISOutputFormatEv
   fun:_ZN11CSimulation13nDoSimulationEiPPKc
   fun:main
}
{
   <insert_a_suppression_name_here>
   Memcheck:Leak
   match-leak-kinds: reachable
   fun:_Znwm
   obj:/usr/lib/x86_64-linux-gnu/libgdal.so.36.3.10.2
   fun:_ZN23GDALMultiDomainMetadata15SetMetadataItemEPKcS1_S1_
   fun:RegisterOGRDXF
   fun:GDALAllRegister
   fun:_ZN11CSimulation27bCheckRasterGISOutputFormatEv
   fun:_ZN11CSimulation13nDoSimulationEiPPKc
   fun:main
}
{
   <insert_a_suppression_name_here>
   Memcheck:Leak
   match-leak-kinds: reachable
   fun:_Znwm
   obj:/usr/lib/x86_64-linux-gnu/libgdal.so.36.3.10.2
   fun:_ZN23GDALMultiDomainMetadata15SetMetadataItemEPKcS1_S1_
   fun:RegisterOGRCAD
   fun:GDALAllRegister
   fun:_ZN11CSimulation27bCheckRasterGISOutputFormatEv
   fun:_ZN11CSimulation13nDoSimulationEiPPKc
   fun:main
}
{
   <insert_a_suppression_name_here>
   Memcheck:Leak
   match-leak-kinds: reachable
   fun:_Znwm
   obj:/usr/lib/x86_64-linux-gnu/libgdal.so.36.3.10.2
   fun:_ZN23GDALMultiDomainMetadata15SetMetadataItemEPKcS1_S1_
   fun:RegisterOGRFlatGeobuf
   fun:GDALAllRegister
   fun:_ZN11CSimulation27bCheckRasterGISOutputFormatEv
   fun:_ZN11CSimulation13nDoSimulationEiPPKc
   fun:main
}
{
   <insert_a_suppression_name_here>
   Memcheck:Leak
   match-leak-kinds: reachable
   fun:_Znwm
   obj:/usr/lib/x86_64-linux-gnu/libgdal.so.36.3.10.2
   fun:_ZN23GDALMultiDomainMetadata15SetMetadataItemEPKcS1_S1_
   fun:RegisterOGRGeoconcept
   fun:GDALAllRegister
   fun:_ZN11CSimulation27bCheckRasterGISOutputFormatEv
   fun:_ZN11CSimulation13nDoSimulationEiPPKc
   fun:main
}
{
   <insert_a_suppression_name_here>
   Memcheck:Leak
   match-leak-kinds: reachable
   fun:_Znwm
   obj:/usr/lib/x86_64-linux-gnu/libgdal.so.36.3.10.2
   fun:_ZN23GDALMultiDomainMetadata15SetMetadataItemEPKcS1_S1_
   fun:RegisterOGRGeoRSS
   fun:GDALAllRegister
   fun:_ZN11CSimulation27bCheckRasterGISOutputFormatEv
   fun:_ZN11CSimulation13nDoSimulationEiPPKc
   fun:main
}
{
   <insert_a_suppression_name_here>
   Memcheck:Leak
   match-leak-kinds: reachable
   fun:_Znwm
   obj:/usr/lib/x86_64-linux-gnu/libgdal.so.36.3.10.2
   fun:_ZN23GDALMultiDomainMetadata15SetMetadataItemEPKcS1_S1_
   fun:RegisterOGRVFK
   fun:GDALAllRegister
   fun:_ZN11CSimulation27bCheckRasterGISOutputFormatEv
   fun:_ZN11CSimulation13nDoSimulationEiPPKc
   fun:main
}
{
   <insert_a_suppression_name_here>
   Memcheck:Leak
   match-leak-kinds: reachable
   fun:_Znwm
   obj:/usr/lib/x86_64-linux-gnu/libgdal.so.36.3.10.2
   fun:_ZN23GDALMultiDomainMetadata15SetMetadataItemEPKcS1_S1_
   fun:RegisterOGRPGDump
   fun:GDALAllRegister
   fun:_ZN11CSimulation27bCheckRasterGISOutputFormatEv
   fun:_ZN11CSimulation13nDoSimulationEiPPKc
   fun:main
}
{
   <insert_a_suppression_name_here>
   Memcheck:Leak
   match-leak-kinds: reachable
   fun:_Znwm
   obj:/usr/lib/x86_64-linux-gnu/libgdal.so.36.3.10.2
   fun:_ZN23GDALMultiDomainMetadata15SetMetadataItemEPKcS1_S1_
   fun:RegisterOGROSM
   fun:GDALAllRegister
   fun:_ZN11CSimulation27bCheckRasterGISOutputFormatEv
   fun:_ZN11CSimulation13nDoSimulationEiPPKc
   fun:main
}
{
   <insert_a_suppression_name_here>
   Memcheck:Leak
   match-leak-kinds: reachable
   fun:_Znwm
   obj:/usr/lib/x86_64-linux-gnu/libgdal.so.36.3.10.2
   fun:_ZN23GDALMultiDomainMetadata15SetMetadataItemEPKcS1_S1_
   fun:RegisterOGRGPSBabel
   fun:GDALAllRegister
   fun:_ZN11CSimulation27bCheckRasterGISOutputFormatEv
   fun:_ZN11CSimulation13nDoSimulationEiPPKc
   fun:main
}
{
   <insert_a_suppression_name_here>
   Memcheck:Leak
   match-leak-kinds: reachable
   fun:_Znwm
   obj:/usr/lib/x86_64-linux-gnu/libgdal.so.36.3.10.2
   fun:_ZN23GDALMultiDomainMetadata15SetMetadataItemEPKcS1_S1_
   fun:RegisterOGRPDS
   fun:GDALAllRegister
   fun:_ZN11CSimulation27bCheckRasterGISOutputFormatEv
   fun:_ZN11CSimulation13nDoSimulationEiPPKc
   fun:main
}
{
   <insert_a_suppression_name_here>
   Memcheck:Leak
   match-leak-kinds: reachable
   fun:_Znwm
   obj:/usr/lib/x86_64-linux-gnu/libgdal.so.36.3.10.2
   fun:_ZN23GDALMultiDomainMetadata15SetMetadataItemEPKcS1_S1_
   fun:RegisterOGRWFS
   fun:GDALAllRegister
   fun:_ZN11CSimulation27bCheckRasterGISOutputFormatEv
   fun:_ZN11CSimulation13nDoSimulationEiPPKc
   fun:main
}
{
   <insert_a_suppression_name_here>
   Memcheck:Leak
   match-leak-kinds: reachable
   fun:_Znwm
   obj:/usr/lib/x86_64-linux-gnu/libgdal.so.36.3.10.2
   fun:_ZN23GDALMultiDomainMetadata15SetMetadataItemEPKcS1_S1_
   fun:RegisterOGROAPIF
   fun:GDALAllRegister
   fun:_ZN11CSimulation27bCheckRasterGISOutputFormatEv
   fun:_ZN11CSimulation13nDoSimulationEiPPKc
   fun:main
}
{
   <insert_a_suppression_name_here>
   Memcheck:Leak
   match-leak-kinds: reachable
   fun:_Znwm
   obj:/usr/lib/x86_64-linux-gnu/libgdal.so.36.3.10.2
   fun:_ZN23GDALMultiDomainMetadata15SetMetadataItemEPKcS1_S1_
   fun:RegisterOGRSOSI
   fun:GDALAllRegister
   fun:_ZN11CSimulation27bCheckRasterGISOutputFormatEv
   fun:_ZN11CSimulation13nDoSimulationEiPPKc
   fun:main
}
{
   <insert_a_suppression_name_here>
   Memcheck:Leak
   match-leak-kinds: reachable
   fun:_Znwm
   obj:/usr/lib/x86_64-linux-gnu/libgdal.so.36.3.10.2
   fun:_ZN23GDALMultiDomainMetadata15SetMetadataItemEPKcS1_S1_
   fun:RegisterOGREDIGEO
   fun:GDALAllRegister
   fun:_ZN11CSimulation27bCheckRasterGISOutputFormatEv
   fun:_ZN11CSimulation13nDoSimulationEiPPKc
   fun:main
}
{
   <insert_a_suppression_name_here>
   Memcheck:Leak
   match-leak-kinds: reachable
   fun:_Znwm
   obj:/usr/lib/x86_64-linux-gnu/libgdal.so.36.3.10.2
   fun:_ZN23GDALMultiDomainMetadata15SetMetadataItemEPKcS1_S1_
   fun:RegisterOGRSVG
   fun:GDALAllRegister
   fun:_ZN11CSimulation27bCheckRasterGISOutputFormatEv
   fun:_ZN11CSimulation13nDoSimulationEiPPKc
   fun:main
}
{
   <insert_a_suppression_name_here>
   Memcheck:Leak
   match-leak-kinds: reachable
   fun:_Znwm
   obj:/usr/lib/x86_64-linux-gnu/libgdal.so.36.3.10.2
   fun:_ZN23GDALMultiDomainMetadata15SetMetadataItemEPKcS1_S1_
   fun:RegisterOGRIdrisi
   fun:GDALAllRegister
   fun:_ZN11CSimulation27bCheckRasterGISOutputFormatEv
   fun:_ZN11CSimulation13nDoSimulationEiPPKc
   fun:main
}
{
   <insert_a_suppression_name_here>
   Memcheck:Leak
   match-leak-kinds: reachable
   fun:_Znwm
   obj:/usr/lib/x86_64-linux-gnu/libgdal.so.36.3.10.2
   fun:_ZN23GDALMultiDomainMetadata15SetMetadataItemEPKcS1_S1_
   fun:RegisterOGRXLS
   fun:GDALAllRegister
   fun:_ZN11CSimulation27bCheckRasterGISOutputFormatEv
   fun:_ZN11CSimulation13nDoSimulationEiPPKc
   fun:main
}
{
   <insert_a_suppression_name_here>
   Memcheck:Leak
   match-leak-kinds: reachable
   fun:_Znwm
   obj:/usr/lib/x86_64-linux-gnu/libgdal.so.36.3.10.2
   fun:_ZN23GDALMultiDomainMetadata15SetMetadataItemEPKcS1_S1_
   fun:RegisterOGRODS
   fun:GDALAllRegister
   fun:_ZN11CSimulation27bCheckRasterGISOutputFormatEv
   fun:_ZN11CSimulation13nDoSimulationEiPPKc
   fun:main
}
{
   <insert_a_suppression_name_here>
   Memcheck:Leak
   match-leak-kinds: reachable
   fun:_Znwm
   obj:/usr/lib/x86_64-linux-gnu/libgdal.so.36.3.10.2
   fun:_ZN23GDALMultiDomainMetadata15SetMetadataItemEPKcS1_S1_
   fun:RegisterOGRXLSX
   fun:GDALAllRegister
   fun:_ZN11CSimulation27bCheckRasterGISOutputFormatEv
   fun:_ZN11CSimulation13nDoSimulationEiPPKc
   fun:main
}
{
   <insert_a_suppression_name_here>
   Memcheck:Leak
   match-leak-kinds: reachable
   fun:_Znwm
   obj:/usr/lib/x86_64-linux-gnu/libgdal.so.36.3.10.2
   fun:_ZN23GDALMultiDomainMetadata15SetMetadataItemEPKcS1_S1_
   fun:RegisterOGRElastic
   fun:GDALAllRegister
   fun:_ZN11CSimulation27bCheckRasterGISOutputFormatEv
   fun:_ZN11CSimulation13nDoSimulationEiPPKc
   fun:main
}
{
   <insert_a_suppression_name_here>
   Memcheck:Leak
   match-leak-kinds: reachable
   fun:_Znwm
   obj:/usr/lib/x86_64-linux-gnu/libgdal.so.36.3.10.2
   fun:_ZN23GDALMultiDomainMetadata15SetMetadataItemEPKcS1_S1_
   fun:RegisterOGRCarto
   fun:GDALAllRegister
   fun:_ZN11CSimulation27bCheckRasterGISOutputFormatEv
   fun:_ZN11CSimulation13nDoSimulationEiPPKc
   fun:main
}
{
   <insert_a_suppression_name_here>
   Memcheck:Leak
   match-leak-kinds: reachable
   fun:_Znwm
   obj:/usr/lib/x86_64-linux-gnu/libgdal.so.36.3.10.2
   fun:_ZN23GDALMultiDomainMetadata15SetMetadataItemEPKcS1_S1_
   fun:RegisterOGRAmigoCloud
   fun:GDALAllRegister
   fun:_ZN11CSimulation27bCheckRasterGISOutputFormatEv
   fun:_ZN11CSimulation13nDoSimulationEiPPKc
   fun:main
}
{
   <insert_a_suppression_name_here>
   Memcheck:Leak
   match-leak-kinds: reachable
   fun:_Znwm
   obj:/usr/lib/x86_64-linux-gnu/libgdal.so.36.3.10.2
   fun:_ZN23GDALMultiDomainMetadata15SetMetadataItemEPKcS1_S1_
   fun:RegisterOGRSXF
   fun:GDALAllRegister
   fun:_ZN11CSimulation27bCheckRasterGISOutputFormatEv
   fun:_ZN11CSimulation13nDoSimulationEiPPKc
   fun:main
}
{
   <insert_a_suppression_name_here>
   Memcheck:Leak
   match-leak-kinds: reachable
   fun:_Znwm
   obj:/usr/lib/x86_64-linux-gnu/libgdal.so.36.3.10.2
   fun:_ZN23GDALMultiDomainMetadata15SetMetadataItemEPKcS1_S1_
   fun:RegisterOGRSelafin
   fun:GDALAllRegister
   fun:_ZN11CSimulation27bCheckRasterGISOutputFormatEv
   fun:_ZN11CSimulation13nDoSimulationEiPPKc
   fun:main
}
{
   <insert_a_suppression_name_here>
   Memcheck:Leak
   match-leak-kinds: reachable
   fun:_Znwm
   obj:/usr/lib/x86_64-linux-gnu/libgdal.so.36.3.10.2
   fun:_ZN23GDALMultiDomainMetadata15SetMetadataItemEPKcS1_S1_
   fun:RegisterOGRJML
   fun:GDALAllRegister
   fun:_ZN11CSimulation27bCheckRasterGISOutputFormatEv
   fun:_ZN11CSimulation13nDoSimulationEiPPKc
   fun:main
}
{
   <insert_a_suppression_name_here>
   Memcheck:Leak
   match-leak-kinds: reachable
   fun:_Znwm
   obj:/usr/lib/x86_64-linux-gnu/libgdal.so.36.3.10.2
   fun:_ZN23GDALMultiDomainMetadata15SetMetadataItemEPKcS1_S1_
   fun:RegisterOGRPLSCENES
   fun:GDALAllRegister
   fun:_ZN11CSimulation27bCheckRasterGISOutputFormatEv
   fun:_ZN11CSimulation13nDoSimulationEiPPKc
   fun:main
}
{
   <insert_a_suppression_name_here>
   Memcheck:Leak
   match-leak-kinds: reachable
   fun:_Znwm
   obj:/usr/lib/x86_64-linux-gnu/libgdal.so.36.3.10.2
   fun:_ZN23GDALMultiDomainMetadata15SetMetadataItemEPKcS1_S1_
   fun:RegisterOGRCSW
   fun:GDALAllRegister
   fun:_ZN11CSimulation27bCheckRasterGISOutputFormatEv
   fun:_ZN11CSimulation13nDoSimulationEiPPKc
   fun:main
}
{
   <insert_a_suppression_name_here>
   Memcheck:Leak
   match-leak-kinds: reachable
   fun:_Znwm
   obj:/usr/lib/x86_64-linux-gnu/libgdal.so.36.3.10.2
   fun:_ZN23GDALMultiDomainMetadata15SetMetadataItemEPKcS1_S1_
   fun:RegisterOGRVDV
   fun:GDALAllRegister
   fun:_ZN11CSimulation27bCheckRasterGISOutputFormatEv
   fun:_ZN11CSimulation13nDoSimulationEiPPKc
   fun:main
}
{
   <insert_a_suppression_name_here>
   Memcheck:Leak
   match-leak-kinds: reachable
   fun:_Znwm
   obj:/usr/lib/x86_64-linux-gnu/libgdal.so.36.3.10.2
   fun:_ZN23GDALMultiDomainMetadata15SetMetadataItemEPKcS1_S1_
   obj:/usr/lib/x86_64-linux-gnu/libgdal.so.36.3.10.2
   fun:RegisterOGRGMLAS
   fun:GDALAllRegister
   fun:_ZN11CSimulation27bCheckRasterGISOutputFormatEv
   fun:_ZN11CSimulation13nDoSimulationEiPPKc
   fun:main
}
{
   <insert_a_suppression_name_here>
   Memcheck:Leak
   match-leak-kinds: reachable
   fun:_Znwm
   obj:/usr/lib/x86_64-linux-gnu/libgdal.so.36.3.10.2
   fun:_ZN23GDALMultiDomainMetadata15SetMetadataItemEPKcS1_S1_
   fun:RegisterOGRMVT
   fun:GDALAllRegister
   fun:_ZN11CSimulation27bCheckRasterGISOutputFormatEv
   fun:_ZN11CSimulation13nDoSimulationEiPPKc
   fun:main
}
{
   <insert_a_suppression_name_here>
   Memcheck:Leak
   match-leak-kinds: reachable
   fun:_Znwm
   obj:/usr/lib/x86_64-linux-gnu/libgdal.so.36.3.10.2
   fun:_ZN23GDALMultiDomainMetadata15SetMetadataItemEPKcS1_S1_
   fun:RegisterOGRNGW
   fun:GDALAllRegister
   fun:_ZN11CSimulation27bCheckRasterGISOutputFormatEv
   fun:_ZN11CSimulation13nDoSimulationEiPPKc
   fun:main
}
{
   <insert_a_suppression_name_here>
   Memcheck:Leak
   match-leak-kinds: reachable
   fun:_Znwm
   obj:/usr/lib/x86_64-linux-gnu/libgdal.so.36.3.10.2
   fun:_ZN23GDALMultiDomainMetadata15SetMetadataItemEPKcS1_S1_
   fun:RegisterOGRMapML
   fun:GDALAllRegister
   fun:_ZN11CSimulation27bCheckRasterGISOutputFormatEv
   fun:_ZN11CSimulation13nDoSimulationEiPPKc
   fun:main
}
{
   <insert_a_suppression_name_here>
   Memcheck:Leak
   match-leak-kinds: reachable
   fun:_Znwm
   obj:/usr/lib/x86_64-linux-gnu/libgdal.so.36.3.10.2
   fun:_ZN23GDALMultiDomainMetadata15SetMetadataItemEPKcS1_S1_
   fun:RegisterOGRGTFS
   fun:GDALAllRegister
   fun:_ZN11CSimulation27bCheckRasterGISOutputFormatEv
   fun:_ZN11CSimulation13nDoSimulationEiPPKc
   fun:main
}
{
   <insert_a_suppression_name_here>
   Memcheck:Leak
   match-leak-kinds: reachable
   fun:_Znwm
   obj:/usr/lib/x86_64-linux-gnu/libgdal.so.36.3.10.2
   fun:_ZN23GDALMultiDomainMetadata15SetMetadataItemEPKcS1_S1_
   fun:RegisterOGRPMTiles
   fun:GDALAllRegister
   fun:_ZN11CSimulation27bCheckRasterGISOutputFormatEv
   fun:_ZN11CSimulation13nDoSimulationEiPPKc
   fun:main
}
{
   <insert_a_suppression_name_here>
   Memcheck:Leak
   match-leak-kinds: reachable
   fun:_Znwm
   obj:/usr/lib/x86_64-linux-gnu/libgdal.so.36.3.10.2
   fun:_ZN23GDALMultiDomainMetadata15SetMetadataItemEPKcS1_S1_
   fun:RegisterOGRJSONFG
   fun:GDALAllRegister
   fun:_ZN11CSimulation27bCheckRasterGISOutputFormatEv
   fun:_ZN11CSimulation13nDoSimulationEiPPKc
   fun:main
}
{
   <insert_a_suppression_name_here>
   Memcheck:Leak
   match-leak-kinds: reachable
   fun:_Znwm
   obj:/usr/lib/x86_64-linux-gnu/libgdal.so.36.3.10.2
   fun:_ZN23GDALMultiDomainMetadata15SetMetadataItemEPKcS1_S1_
   fun:RegisterOGRMiraMon
   fun:GDALAllRegister
   fun:_ZN11CSimulation27bCheckRasterGISOutputFormatEv
   fun:_ZN11CSimulation13nDoSimulationEiPPKc
   fun:main
}
{
   <insert_a_suppression_name_here>
   Memcheck:Leak
   match-leak-kinds: reachable
   fun:_Znwm
   obj:/usr/lib/x86_64-linux-gnu/libgdal.so.36.3.10.2
   fun:_ZN23GDALMultiDomainMetadata15SetMetadataItemEPKcS1_S1_
   fun:RegisterOGRTiger
   fun:GDALAllRegister
   fun:_ZN11CSimulation27bCheckRasterGISOutputFormatEv
   fun:_ZN11CSimulation13nDoSimulationEiPPKc
   fun:main
}
{
   <insert_a_suppression_name_here>
   Memcheck:Leak
   match-leak-kinds: reachable
   fun:_Znwm
   obj:/usr/lib/x86_64-linux-gnu/libgdal.so.36.3.10.2
   fun:_ZN23GDALMultiDomainMetadata15SetMetadataItemEPKcS1_S1_
   fun:RegisterOGRAVCBin
   fun:GDALAllRegister
   fun:_ZN11CSimulation27bCheckRasterGISOutputFormatEv
   fun:_ZN11CSimulation13nDoSimulationEiPPKc
   fun:main
}
{
   <insert_a_suppression_name_here>
   Memcheck:Leak
   match-leak-kinds: reachable
   fun:_Znwm
   obj:/usr/lib/x86_64-linux-gnu/libgdal.so.36.3.10.2
   fun:_ZN23GDALMultiDomainMetadata15SetMetadataItemEPKcS1_S1_
   fun:RegisterOGRAVCE00
   fun:GDALAllRegister
   fun:_ZN11CSimulation27bCheckRasterGISOutputFormatEv
   fun:_ZN11CSimulation13nDoSimulationEiPPKc
   fun:main
}
{
   <insert_a_suppression_name_here>
   Memcheck:Leak
   match-leak-kinds: reachable
   fun:_Znwm
   obj:/usr/lib/x86_64-linux-gnu/libgdal.so.36.3.10.2
   fun:_ZN23GDALMultiDomainMetadata15SetMetadataItemEPKcS1_S1_
   fun:GDALRegister_GenBin
   fun:GDALRegister_raw_with_sidecar
   fun:GDALAllRegister
   fun:_ZN11CSimulation27bCheckRasterGISOutputFormatEv
   fun:_ZN11CSimulation13nDoSimulationEiPPKc
   fun:main
}
{
   <insert_a_suppression_name_here>
   Memcheck:Leak
   match-leak-kinds: reachable
   fun:_Znwm
   obj:/usr/lib/x86_64-linux-gnu/libgdal.so.36.3.10.2
   fun:_ZN23GDALMultiDomainMetadata15SetMetadataItemEPKcS1_S1_
   fun:GDALRegister_ENVI
   fun:GDALRegister_raw_with_sidecar
   fun:GDALAllRegister
   fun:_ZN11CSimulation27bCheckRasterGISOutputFormatEv
   fun:_ZN11CSimulation13nDoSimulationEiPPKc
   fun:main
}
{
   <insert_a_suppression_name_here>
   Memcheck:Leak
   match-leak-kinds: reachable
   fun:_Znwm
   obj:/usr/lib/x86_64-linux-gnu/libgdal.so.36.3.10.2
   fun:_ZN23GDALMultiDomainMetadata15SetMetadataItemEPKcS1_S1_
   fun:GDALRegister_EHdr
   fun:GDALRegister_raw_with_sidecar
   fun:GDALAllRegister
   fun:_ZN11CSimulation27bCheckRasterGISOutputFormatEv
   fun:_ZN11CSimulation13nDoSimulationEiPPKc
   fun:main
}
{
   <insert_a_suppression_name_here>
   Memcheck:Leak
   match-leak-kinds: reachable
   fun:_Znwm
   obj:/usr/lib/x86_64-linux-gnu/libgdal.so.36.3.10.2
   fun:_ZN23GDALMultiDomainMetadata15SetMetadataItemEPKcS1_S1_
   fun:GDALRegister_ISCE
   fun:GDALAllRegister
   fun:_ZN11CSimulation27bCheckRasterGISOutputFormatEv
   fun:_ZN11CSimulation13nDoSimulationEiPPKc
   fun:main
}
{
   <insert_a_suppression_name_here>
   Memcheck:Leak
   match-leak-kinds: reachable
   fun:_Znwm
   obj:/usr/lib/x86_64-linux-gnu/libgdal.so.36.3.10.2
   fun:_ZN23GDALMultiDomainMetadata15SetMetadataItemEPKcS1_S1_
   fun:GDALRegister_Zarr
   fun:GDALAllRegister
   fun:_ZN11CSimulation27bCheckRasterGISOutputFormatEv
   fun:_ZN11CSimulation13nDoSimulationEiPPKc
   fun:main
}
{
   <insert_a_suppression_name_here>
   Memcheck:Leak
   match-leak-kinds: reachable
   fun:_Znwm
   obj:/usr/lib/x86_64-linux-gnu/libgdal.so.36.3.10.2
   fun:_ZN23GDALMultiDomainMetadata15SetMetadataItemEPKcS1_S1_
   fun:GDALRegister_HTTP
   fun:GDALAllRegister
   fun:_ZN11CSimulation27bCheckRasterGISOutputFormatEv
   fun:_ZN11CSimulation13nDoSimulationEiPPKc
   fun:main
}
{
   <insert_a_suppression_name_here>
   Memcheck:Leak
   match-leak-kinds: reachable
   fun:malloc
   obj:/usr/lib/x86_64-linux-gnu/libgdal.so.36.3.10.2
   fun:CPLCreateOrAcquireMutexEx
   fun:_ZN14CPLMutexHolderC1EPP9_CPLMutexdPKcii
   obj:/usr/lib/x86_64-linux-gnu/libgdal.so.36.3.10.2
   fun:_Z11PamGetProxyPKc
   fun:_ZN14GDALPamDataset16BuildPamFilenameEv
   fun:_ZN14GDALPamDataset10TryLoadXMLEPKPKc
   obj:/usr/lib/x86_64-linux-gnu/libgdal.so.36.3.10.2
   fun:_ZN10GDALDriver4OpenEP12GDALOpenInfob
   fun:GDALOpenEx
   fun:_ZN11CSimulation22nReadRasterBasementDEMEv
}
{
   <insert_a_suppression_name_here>
   Memcheck:Leak
   match-leak-kinds: reachable
   fun:malloc
   obj:/usr/lib/x86_64-linux-gnu/libgdal.so.36.3.10.2
   fun:CPLCreateOrAcquireMutexEx
   fun:_ZN14CPLMutexHolderC1EPP9_CPLMutexdPKcii
   obj:/usr/lib/x86_64-linux-gnu/libgdal.so.36.3.10.2
   fun:_ZN10GDALDriver4OpenEP12GDALOpenInfob
   fun:GDALOpenEx
   fun:_ZN11CSimulation22nReadRasterBasementDEMEv
   fun:_ZN11CSimulation13nDoSimulationEiPPKc
   fun:main
}
{
   <insert_a_suppression_name_here>
   Memcheck:Leak
   match-leak-kinds: reachable
   fun:malloc
   obj:/usr/lib/x86_64-linux-gnu/libgdal.so.36.3.10.2
   fun:CPLCreateOrAcquireLock
   fun:_ZN13CPLLockHolderC1EPP8_CPLLock11CPLLockTypePKci
   fun:_ZN15GDALRasterBlockC1EP14GDALRasterBandii
   obj:/usr/lib/x86_64-linux-gnu/libgdal.so.36.3.10.2
   fun:_ZN14GDALRasterBand9IRasterIOE10GDALRWFlagiiiiPvii12GDALDataTypexxP20GDALRasterIOExtraArg
   fun:_ZN14GDALRasterBand8RasterIOE10GDALRWFlagiiiiPvii12GDALDataTypexxP20GDALRasterIOExtraArg
   fun:_ZN11CSimulation22nReadRasterBasementDEMEv
   fun:_ZN11CSimulation13nDoSimulationEiPPKc
   fun:main
}
{
   <insert_a_suppression_name_here>
   Memcheck:Leak
   match-leak-kinds: reachable
   fun:_Znwm
   obj:/usr/lib/x86_64-linux-gnu/libgdal.so.36.3.10.2
   fun:_ZN19CPLWorkerThreadPoolC1Ev
   fun:_Z23GDALGetGlobalThreadPooli
   obj:/usr/lib/x86_64-linux-gnu/libgdal.so.36.3.10.2
   obj:/usr/lib/x86_64-linux-gnu/libgdal.so.36.3.10.2
   fun:_ZN10GDALDriver4OpenEP12GDALOpenInfob
   fun:GDALOpenEx
   fun:_ZN11CSimulation18nReadRasterGISFileEii
   fun:_ZN11CSimulation13nDoSimulationEiPPKc
   fun:main
}
{
   <insert_a_suppression_name_here>
   Memcheck:Leak
   match-leak-kinds: reachable
   fun:_Znwm
   obj:/usr/lib/x86_64-linux-gnu/libgdal.so.36.3.10.2
   fun:_ZN19CPLWorkerThreadPool9SubmitJobESt8functionIFvvEE
   fun:_ZN11CPLJobQueue9SubmitJobESt8functionIFvvEE
   fun:_ZN11CPLJobQueue9SubmitJobEPFvPvES0_
   obj:/usr/lib/x86_64-linux-gnu/libgdal.so.36.3.10.2
   obj:/usr/lib/x86_64-linux-gnu/libgdal.so.36.3.10.2
   fun:_ZN15GDALRasterBlock5WriteEv
   obj:/usr/lib/x86_64-linux-gnu/libgdal.so.36.3.10.2
   obj:/usr/lib/x86_64-linux-gnu/libgdal.so.36.3.10.2
   fun:_ZN11GDALDataset10FlushCacheEb
   fun:_ZN14GDALPamDataset10FlushCacheEb
}
{
   <insert_a_suppression_name_here>
   Memcheck:Leak
   match-leak-kinds: reachable
   fun:malloc
   obj:/usr/lib/x86_64-linux-gnu/libgdal.so.36.3.10.2
   fun:CPLCreateOrAcquireMutexEx
   fun:_ZN14CPLMutexHolderC1EPP9_CPLMutexdPKcii
   obj:/usr/lib/x86_64-linux-gnu/libgdal.so.36.3.10.2
   obj:/usr/lib/x86_64-linux-gnu/libgdal.so.36.3.10.2
   obj:/usr/lib/x86_64-linux-gnu/libgdal.so.36.3.10.2
   fun:_ZN19CPLWorkerThreadPool20WorkerThreadFunctionEPv
   obj:/usr/lib/x86_64-linux-gnu/libgdal.so.36.3.10.2
   fun:start_thread
   fun:clone
}
{
   <insert_a_suppression_name_here>
   Memcheck:Leak
   match-leak-kinds: indirect
   fun:_Znwm
   obj:/usr/lib/x86_64-linux-gnu/libgdal.so.36.3.10.2
   fun:_ZN14OGRFeatureDefnC1EPKc
   obj:/usr/lib/x86_64-linux-gnu/libgdal.so.36.3.10.2
   obj:/usr/lib/x86_64-linux-gnu/libgdal.so.36.3.10.2
   fun:_ZN11GDALDataset11CreateLayerEPKcPK16OGRGeomFieldDefnPKS1_
   fun:_ZN11GDALDataset11CreateLayerEPKcPK19OGRSpatialReference18OGRwkbGeometryTypePKS1_
   fun:_ZN11CSimulation19bWriteVectorGISFileEiPKNSt7__cxx1112basic_stringIcSt11char_traitsIcESaIcEEE
   fun:_ZN11CSimulation22bSaveAllVectorGISFilesEv
   fun:_ZN11CSimulation13nDoSimulationEiPPKc
   fun:main
}
{
   <insert_a_suppression_name_here>
   Memcheck:Leak
   match-leak-kinds: reachable
   fun:_Znwm
   fun:_ZN14VSIFileManager14InstallHandlerERKNSt7__cxx1112basic_stringIcSt11char_traitsIcESaIcEEEP20VSIFilesystemHandler
   fun:VSIInstallSubFileHandler
   fun:_ZN14VSIFileManager3GetEv
   fun:_ZN14VSIFileManager10GetHandlerEPKc
   fun:VSIGetDirectorySeparator
   fun:CPLFormFilename
   fun:CPLLoadConfigOptionsFromPredefinedFiles
   fun:_ZN17GDALDriverManagerC1Ev
   fun:GetGDALDriverManager
   fun:GDALAllRegister
   fun:_ZN11CSimulation27bCheckRasterGISOutputFormatEv
}
{
   <insert_a_suppression_name_here>
   Memcheck:Leak
   match-leak-kinds: reachable
   fun:_Znwm
   fun:_ZN14VSIFileManager14InstallHandlerERKNSt7__cxx1112basic_stringIcSt11char_traitsIcESaIcEEEP20VSIFilesystemHandler
   fun:VSIInstallMemFileHandler
   fun:_ZN14VSIFileManager3GetEv
   fun:_ZN14VSIFileManager10GetHandlerEPKc
   fun:VSIGetDirectorySeparator
   fun:CPLFormFilename
   fun:CPLLoadConfigOptionsFromPredefinedFiles
   fun:_ZN17GDALDriverManagerC1Ev
   fun:GetGDALDriverManager
   fun:GDALAllRegister
   fun:_ZN11CSimulation27bCheckRasterGISOutputFormatEv
}
{
   <insert_a_suppression_name_here>
   Memcheck:Leak
   match-leak-kinds: reachable
   fun:_Znwm
   fun:_ZN14VSIFileManager14InstallHandlerERKNSt7__cxx1112basic_stringIcSt11char_traitsIcESaIcEEEP20VSIFilesystemHandler
   fun:_ZN14VSIFileManager3GetEv
   fun:_ZN14VSIFileManager10GetHandlerEPKc
   fun:VSIGetDirectorySeparator
   fun:CPLFormFilename
   fun:CPLLoadConfigOptionsFromPredefinedFiles
   fun:_ZN17GDALDriverManagerC1Ev
   fun:GetGDALDriverManager
   fun:GDALAllRegister
   fun:_ZN11CSimulation27bCheckRasterGISOutputFormatEv
   fun:_ZN11CSimulation13nDoSimulationEiPPKc
}
{
   <insert_a_suppression_name_here>
   Memcheck:Leak
   match-leak-kinds: reachable
   fun:_Znwm
   fun:_ZN14VSIFileManager14InstallHandlerERKNSt7__cxx1112basic_stringIcSt11char_traitsIcESaIcEEEP20VSIFilesystemHandler
   fun:VSIInstallSparseFileHandler
   fun:_ZN14VSIFileManager3GetEv
   fun:_ZN14VSIFileManager10GetHandlerEPKc
   fun:VSIGetDirectorySeparator
   fun:CPLFormFilename
   fun:CPLLoadConfigOptionsFromPredefinedFiles
   fun:_ZN17GDALDriverManagerC1Ev
   fun:GetGDALDriverManager
   fun:GDALAllRegister
   fun:_ZN11CSimulation27bCheckRasterGISOutputFormatEv
}
{
   <insert_a_suppression_name_here>
   Memcheck:Leak
   match-leak-kinds: reachable
   fun:_Znwm
   fun:_ZN14VSIFileManager14InstallHandlerERKNSt7__cxx1112basic_stringIcSt11char_traitsIcESaIcEEEP20VSIFilesystemHandler
   fun:VSIInstallCryptFileHandler
   fun:_ZN14VSIFileManager3GetEv
   fun:_ZN14VSIFileManager10GetHandlerEPKc
   fun:VSIGetDirectorySeparator
   fun:CPLFormFilename
   fun:CPLLoadConfigOptionsFromPredefinedFiles
   fun:_ZN17GDALDriverManagerC1Ev
   fun:GetGDALDriverManager
   fun:GDALAllRegister
   fun:_ZN11CSimulation27bCheckRasterGISOutputFormatEv
}
{
   <insert_a_suppression_name_here>
   Memcheck:Leak
   match-leak-kinds: reachable
   fun:_Znwm
   fun:_ZN17GDALDriverManager14RegisterDriverEP10GDALDriverb
   fun:GDALAllRegister
   fun:_ZN11CSimulation27bCheckRasterGISOutputFormatEv
   fun:_ZN11CSimulation13nDoSimulationEiPPKc
   fun:main
}
{
   <insert_a_suppression_name_here>
   Memcheck:Leak
   match-leak-kinds: reachable
   fun:_Znwm
   fun:_ZN17GDALDriverManager14RegisterDriverEP10GDALDriverb
   fun:GDALRegister_GTI
   fun:GDALAllRegister
   fun:_ZN11CSimulation27bCheckRasterGISOutputFormatEv
   fun:_ZN11CSimulation13nDoSimulationEiPPKc
   fun:main
}
{
   <insert_a_suppression_name_here>
   Memcheck:Leak
   match-leak-kinds: reachable
   fun:_Znwm
   fun:_ZN17GDALDriverManager14RegisterDriverEP10GDALDriverb
   fun:GDALRegister_GTiff
   fun:GDALAllRegister
   fun:_ZN11CSimulation27bCheckRasterGISOutputFormatEv
   fun:_ZN11CSimulation13nDoSimulationEiPPKc
   fun:main
}
{
   <insert_a_suppression_name_here>
   Memcheck:Leak
   match-leak-kinds: reachable
   fun:_Znwm
   fun:_ZN17GDALDriverManager14RegisterDriverEP10GDALDriverb
   fun:GDALRegister_HDF4
   fun:GDALAllRegister
   fun:_ZN11CSimulation27bCheckRasterGISOutputFormatEv
   fun:_ZN11CSimulation13nDoSimulationEiPPKc
   fun:main
}
{
   <insert_a_suppression_name_here>
   Memcheck:Leak
   match-leak-kinds: reachable
   fun:_Znwm
   fun:_ZN17GDALDriverManager14RegisterDriverEP10GDALDriverb
   fun:GDALRegister_raw_no_sidecar
   fun:GDALAllRegister
   fun:_ZN11CSimulation27bCheckRasterGISOutputFormatEv
   fun:_ZN11CSimulation13nDoSimulationEiPPKc
   fun:main
}
{
   <insert_a_suppression_name_here>
   Memcheck:Leak
   match-leak-kinds: reachable
   fun:_Znwm
   fun:_ZN17GDALDriverManager14RegisterDriverEP10GDALDriverb
   fun:GDALRegister_ZMap
   fun:GDALAllRegister
   fun:_ZN11CSimulation27bCheckRasterGISOutputFormatEv
   fun:_ZN11CSimulation13nDoSimulationEiPPKc
   fun:main
}
{
   <insert_a_suppression_name_here>
   Memcheck:Leak
   match-leak-kinds: reachable
   fun:_Znwm
   fun:_ZN17GDALDriverManager14RegisterDriverEP10GDALDriverb
   fun:GDALRegister_AVIF
   fun:GDALAllRegister
   fun:_ZN11CSimulation27bCheckRasterGISOutputFormatEv
   fun:_ZN11CSimulation13nDoSimulationEiPPKc
   fun:main
}
{
   <insert_a_suppression_name_here>
   Memcheck:Leak
   match-leak-kinds: reachable
   fun:_Znwm
   fun:_ZN17GDALDriverManager14RegisterDriverEP10GDALDriverb
   fun:GDALRegister_HEIF
   fun:GDALAllRegister
   fun:_ZN11CSimulation27bCheckRasterGISOutputFormatEv
   fun:_ZN11CSimulation13nDoSimulationEiPPKc
   fun:main
}
{
   <insert_a_suppression_name_here>
   Memcheck:Leak
   match-leak-kinds: reachable
   fun:_Znwm
   fun:_ZN17GDALDriverManager14RegisterDriverEP10GDALDriverb
   fun:RegisterOGRLVBAG
   fun:GDALAllRegister
   fun:_ZN11CSimulation27bCheckRasterGISOutputFormatEv
   fun:_ZN11CSimulation13nDoSimulationEiPPKc
   fun:main
}
{
   <insert_a_suppression_name_here>
   Memcheck:Leak
   match-leak-kinds: reachable
   fun:_Znwm
   fun:_ZN17GDALDriverManager14RegisterDriverEP10GDALDriverb
   fun:RegisterOGRSQLite
   fun:GDALAllRegister
   fun:_ZN11CSimulation27bCheckRasterGISOutputFormatEv
   fun:_ZN11CSimulation13nDoSimulationEiPPKc
   fun:main
}
{
   <insert_a_suppression_name_here>
   Memcheck:Leak
   match-leak-kinds: reachable
   fun:_Znwm
   fun:_ZN14VSIFileManager14InstallHandlerERKNSt7__cxx1112basic_stringIcSt11char_traitsIcESaIcEEEP20VSIFilesystemHandler
   fun:RegisterOGRPMTiles
   fun:GDALAllRegister
   fun:_ZN11CSimulation27bCheckRasterGISOutputFormatEv
   fun:_ZN11CSimulation13nDoSimulationEiPPKc
   fun:main
}
{
   <insert_a_suppression_name_here>
   Memcheck:Leak
   match-leak-kinds: reachable
   fun:_Znwm
   fun:_ZN17GDALDriverManager14RegisterDriverEP10GDALDriverb
   fun:GDALRegister_raw_with_sidecar
   fun:GDALAllRegister
   fun:_ZN11CSimulation27bCheckRasterGISOutputFormatEv
   fun:_ZN11CSimulation13nDoSimulationEiPPKc
   fun:main
}
{
   <insert_a_suppression_name_here>
   Memcheck:Leak
   match-leak-kinds: reachable
   fun:realloc
   obj:/usr/lib/x86_64-linux-gnu/libgomp.so.1.0.0
   obj:/usr/lib/x86_64-linux-gnu/libgomp.so.1.0.0
   fun:GOMP_parallel
   fun:_ZN11CSimulation31nInitGridAndCalcStillWaterLevelEv
   fun:_ZN11CSimulation13nDoSimulationEiPPKc
   fun:main
}
{
   <insert_a_suppression_name_here>
   Memcheck:Leak
   match-leak-kinds: definite
   fun:realloc
   fun:VSIReallocVerbose
   fun:CSLAddStringMayFail
   fun:CSLAddString
   fun:CSLAddNameValue
   fun:_ZN11CSimulation29SetRasterFileCreationDefaultsEv
   fun:_ZN11CSimulation27bCheckRasterGISOutputFormatEv
   fun:_ZN11CSimulation13nDoSimulationEiPPKc
   fun:main
}
{
   <insert_a_suppression_name_here>
   Memcheck:Leak
   match-leak-kinds: possible
   fun:_Znwm
   obj:/usr/lib/x86_64-linux-gnu/libgdal.so.36.3.10.2
   obj:/usr/lib/x86_64-linux-gnu/libgdal.so.36.3.10.2
   fun:_ZN11GDALDataset11CreateLayerEPKcPK16OGRGeomFieldDefnPKS1_
   fun:_ZN11GDALDataset11CreateLayerEPKcPK19OGRSpatialReference18OGRwkbGeometryTypePKS1_
   fun:_ZN11CSimulation19bWriteVectorGISFileEiPKNSt7__cxx1112basic_stringIcSt11char_traitsIcESaIcEEE
   fun:_ZN11CSimulation22bSaveAllVectorGISFilesEv
   fun:_ZN11CSimulation13nDoSimulationEiPPKc
   fun:main
}
{
   <insert_a_suppression_name_here>
   Memcheck:Leak
   match-leak-kinds: possible
   fun:_ZnwmRKSt9nothrow_t
   fun:_ZN10OGRFeature13CreateFeatureEP14OGRFeatureDefn
   fun:_ZN11CSimulation19bWriteVectorGISFileEiPKNSt7__cxx1112basic_stringIcSt11char_traitsIcESaIcEEE
   fun:_ZN11CSimulation22bSaveAllVectorGISFilesEv
   fun:_ZN11CSimulation13nDoSimulationEiPPKc
   fun:main
}
{
   <insert_a_suppression_name_here>
   Memcheck:Leak
   match-leak-kinds: indirect
   fun:_Znwm
   obj:/usr/lib/x86_64-linux-gnu/libgdal.so.36.3.10.2
   obj:/usr/lib/x86_64-linux-gnu/libgdal.so.36.3.10.2
   fun:_ZN11GDALDataset11CreateLayerEPKcPK16OGRGeomFieldDefnPKS1_
   fun:_ZN11GDALDataset11CreateLayerEPKcPK19OGRSpatialReference18OGRwkbGeometryTypePKS1_
   fun:_ZN11CSimulation19bWriteVectorGISFileEiPKNSt7__cxx1112basic_stringIcSt11char_traitsIcESaIcEEE
   fun:_ZN11CSimulation22bSaveAllVectorGISFilesEv
   fun:_ZN11CSimulation19nWriteEndRunDetailsEv
   fun:_ZN11CSimulation13nDoSimulationEiPPKc
   fun:main
}
{
   <insert_a_suppression_name_here>
   Memcheck:Leak
   match-leak-kinds: indirect
   fun:_Znwm
   fun:_ZN14OGRFeatureDefn12AddFieldDefnEPK12OGRFieldDefn
   obj:/usr/lib/x86_64-linux-gnu/libgdal.so.36.3.10.2
   fun:_ZN11CSimulation19bWriteVectorGISFileEiPKNSt7__cxx1112basic_stringIcSt11char_traitsIcESaIcEEE
   fun:_ZN11CSimulation22bSaveAllVectorGISFilesEv
   fun:_ZN11CSimulation13nDoSimulationEiPPKc
   fun:main
}
{
   <insert_a_suppression_name_here>
   Memcheck:Leak
   match-leak-kinds: indirect
   fun:malloc
   fun:CPLMalloc
   fun:CPLStrdup
   obj:/usr/lib/x86_64-linux-gnu/libgdal.so.36.3.10.2
   obj:/usr/lib/x86_64-linux-gnu/libgdal.so.36.3.10.2
   fun:_ZN11GDALDataset11CreateLayerEPKcPK16OGRGeomFieldDefnPKS1_
   fun:_ZN11GDALDataset11CreateLayerEPKcPK19OGRSpatialReference18OGRwkbGeometryTypePKS1_
   fun:_ZN11CSimulation19bWriteVectorGISFileEiPKNSt7__cxx1112basic_stringIcSt11char_traitsIcESaIcEEE
   fun:_ZN11CSimulation22bSaveAllVectorGISFilesEv
   fun:_ZN11CSimulation19nWriteEndRunDetailsEv
   fun:_ZN11CSimulation13nDoSimulationEiPPKc
   fun:main
}
{
   <insert_a_suppression_name_here>
   Memcheck:Leak
   match-leak-kinds: indirect
   fun:_Znwm
   obj:/usr/lib/x86_64-linux-gnu/libgdal.so.36.3.10.2
   obj:/usr/lib/x86_64-linux-gnu/libgdal.so.36.3.10.2
   obj:/usr/lib/x86_64-linux-gnu/libgdal.so.36.3.10.2
   fun:_ZN11GDALDataset11CreateLayerEPKcPK16OGRGeomFieldDefnPKS1_
   fun:_ZN11GDALDataset11CreateLayerEPKcPK19OGRSpatialReference18OGRwkbGeometryTypePKS1_
   fun:_ZN11CSimulation19bWriteVectorGISFileEiPKNSt7__cxx1112basic_stringIcSt11char_traitsIcESaIcEEE
   fun:_ZN11CSimulation22bSaveAllVectorGISFilesEv
   fun:_ZN11CSimulation19nWriteEndRunDetailsEv
   fun:_ZN11CSimulation13nDoSimulationEiPPKc
   fun:main
}
{
   <insert_a_suppression_name_here>
   Memcheck:Leak
   match-leak-kinds: possible
   fun:malloc
   fun:CPLMalloc
   fun:CPLStrdup
   obj:/usr/lib/x86_64-linux-gnu/libgdal.so.36.3.10.2
   obj:/usr/lib/x86_64-linux-gnu/libgdal.so.36.3.10.2
   fun:_ZN11GDALDataset11CreateLayerEPKcPK16OGRGeomFieldDefnPKS1_
   fun:_ZN11GDALDataset11CreateLayerEPKcPK19OGRSpatialReference18OGRwkbGeometryTypePKS1_
   fun:_ZN11CSimulation19bWriteVectorGISFileEiPKNSt7__cxx1112basic_stringIcSt11char_traitsIcESaIcEEE
   fun:_ZN11CSimulation22bSaveAllVectorGISFilesEv
   fun:_ZN11CSimulation13nDoSimulationEiPPKc
   fun:main
}
{
   <insert_a_suppression_name_here>
   Memcheck:Leak
   match-leak-kinds: possible
   fun:_Znwm
   obj:/usr/lib/x86_64-linux-gnu/libgdal.so.36.3.10.2
   obj:/usr/lib/x86_64-linux-gnu/libgdal.so.36.3.10.2
   obj:/usr/lib/x86_64-linux-gnu/libgdal.so.36.3.10.2
   fun:_ZN11GDALDataset11CreateLayerEPKcPK16OGRGeomFieldDefnPKS1_
   fun:_ZN11GDALDataset11CreateLayerEPKcPK19OGRSpatialReference18OGRwkbGeometryTypePKS1_
   fun:_ZN11CSimulation19bWriteVectorGISFileEiPKNSt7__cxx1112basic_stringIcSt11char_traitsIcESaIcEEE
   fun:_ZN11CSimulation22bSaveAllVectorGISFilesEv
   fun:_ZN11CSimulation13nDoSimulationEiPPKc
   fun:main
}
{
   <insert_a_suppression_name_here>
   Memcheck:Leak
   match-leak-kinds: reachable
   fun:calloc
   obj:/usr/lib/x86_64-linux-gnu/libgomp.so.1.0.0
   obj:/usr/lib/x86_64-linux-gnu/libgomp.so.1.0.0
   obj:/usr/lib/x86_64-linux-gnu/libgomp.so.1.0.0
   fun:call_init.part.0
   fun:call_init
   fun:_dl_init
   obj:/usr/lib/x86_64-linux-gnu/ld-linux-x86-64.so.2
}
{
   <insert_a_suppression_name_here>
   Memcheck:Leak
   match-leak-kinds: reachable
   fun:_Znwm
   fun:VSIInstallMemFileHandler
   fun:_ZN14VSIFileManager3GetEv
   fun:_ZN14VSIFileManager10GetHandlerEPKc
   fun:VSIGetDirectorySeparator
   fun:CPLFormFilename
   fun:CPLLoadConfigOptionsFromPredefinedFiles
   fun:_ZN17GDALDriverManagerC1Ev
   fun:GetGDALDriverManager
   fun:GDALAllRegister
   fun:_ZN11CSimulation27bCheckRasterGISOutputFormatEv
   fun:_ZN11CSimulation13nDoSimulationEiPPKc
}
{
   <insert_a_suppression_name_here>
   Memcheck:Leak
   match-leak-kinds: indirect
   fun:_Znwm
   fun:_ZN19OGRSpatialReference7PrivateC1EPS_
   fun:_ZN19OGRSpatialReferenceC1EPKc
   fun:_ZNK19OGRSpatialReference5CloneEv
   obj:/usr/lib/x86_64-linux-gnu/libgdal.so.36.3.10.2
   obj:/usr/lib/x86_64-linux-gnu/libgdal.so.36.3.10.2
   fun:_ZN11GDALDataset11CreateLayerEPKcPK16OGRGeomFieldDefnPKS1_
   fun:_ZN11GDALDataset11CreateLayerEPKcPK19OGRSpatialReference18OGRwkbGeometryTypePKS1_
   fun:_ZN11CSimulation19bWriteVectorGISFileEiPKNSt7__cxx1112basic_stringIcSt11char_traitsIcESaIcEEE
   fun:_ZN11CSimulation22bSaveAllVectorGISFilesEv
   fun:_ZN11CSimulation13nDoSimulationEiPPKc
   fun:main
}
{
   <insert_a_suppression_name_here>
   Memcheck:Leak
   match-leak-kinds: reachable
   fun:malloc
   fun:malloc
   fun:strdup
   fun:_dl_load_cache_lookup
   fun:_dl_map_object
   fun:openaux
   fun:_dl_catch_exception
   fun:_dl_map_object_deps
   fun:dl_open_worker_begin
   fun:_dl_catch_exception
   fun:dl_open_worker
   fun:_dl_catch_exception
   fun:_dl_open
}
{
   <insert_a_suppression_name_here>
   Memcheck:Leak
   match-leak-kinds: reachable
   fun:malloc
   fun:malloc
   fun:_dl_new_object
   fun:_dl_map_object_from_fd
   fun:_dl_map_object
   fun:openaux
   fun:_dl_catch_exception
   fun:_dl_map_object_deps
   fun:dl_open_worker_begin
   fun:_dl_catch_exception
   fun:dl_open_worker
   fun:_dl_catch_exception
   fun:_dl_open
}
{
   <insert_a_suppression_name_here>
   Memcheck:Leak
   match-leak-kinds: possible
   fun:_ZnwmRKSt9nothrow_t
   fun:_ZNK8OGRPoint5cloneEv
   fun:_ZN10OGRFeature12SetGeomFieldEiPK11OGRGeometry
   fun:_ZN11CSimulation19bWriteVectorGISFileEiPKNSt7__cxx1112basic_stringIcSt11char_traitsIcESaIcEEE
   fun:_ZN11CSimulation22bSaveAllVectorGISFilesEv
   fun:_ZN11CSimulation13nDoSimulationEiPPKc
   fun:main
}
{
   <insert_a_suppression_name_here>
   Memcheck:Leak
   match-leak-kinds: reachable
   fun:malloc
   fun:VSIMallocVerbose
   fun:_ZN19CPLWorkerThreadPool10GetNextJobEP15CPLWorkerThread
   fun:_ZN19CPLWorkerThreadPool20WorkerThreadFunctionEPv
   obj:/usr/lib/x86_64-linux-gnu/libgdal.so.36.3.10.2
   fun:start_thread
   fun:clone
}
{
   <insert_a_suppression_name_here>
   Memcheck:Leak
   match-leak-kinds: indirect
   fun:_Znwm
   fun:_ZNK19OGRSpatialReference5CloneEv
   obj:/usr/lib/x86_64-linux-gnu/libgdal.so.36.3.10.2
   obj:/usr/lib/x86_64-linux-gnu/libgdal.so.36.3.10.2
   fun:_ZN11GDALDataset11CreateLayerEPKcPK16OGRGeomFieldDefnPKS1_
   fun:_ZN11GDALDataset11CreateLayerEPKcPK19OGRSpatialReference18OGRwkbGeometryTypePKS1_
   fun:_ZN11CSimulation19bWriteVectorGISFileEiPKNSt7__cxx1112basic_stringIcSt11char_traitsIcESaIcEEE
   fun:_ZN11CSimulation22bSaveAllVectorGISFilesEv
   fun:_ZN11CSimulation13nDoSimulationEiPPKc
   fun:main
}
{
   <insert_a_suppression_name_here>
   Memcheck:Leak
   match-leak-kinds: indirect
   fun:malloc
   fun:CPLMalloc
   fun:CPLStrdup
   fun:_ZN14OGRFeatureDefnC1EPKc
   obj:/usr/lib/x86_64-linux-gnu/libgdal.so.36.3.10.2
   obj:/usr/lib/x86_64-linux-gnu/libgdal.so.36.3.10.2
   fun:_ZN11GDALDataset11CreateLayerEPKcPK16OGRGeomFieldDefnPKS1_
   fun:_ZN11GDALDataset11CreateLayerEPKcPK19OGRSpatialReference18OGRwkbGeometryTypePKS1_
   fun:_ZN11CSimulation19bWriteVectorGISFileEiPKNSt7__cxx1112basic_stringIcSt11char_traitsIcESaIcEEE
   fun:_ZN11CSimulation22bSaveAllVectorGISFilesEv
   fun:_ZN11CSimulation13nDoSimulationEiPPKc
   fun:main
}
{
   <insert_a_suppression_name_here>
   Memcheck:Leak
   match-leak-kinds: reachable
   fun:calloc
   fun:VSICallocVerbose
   fun:_ZN13CPLStringList16EnsureAllocationEi
   fun:_ZN13CPLStringList17AddStringDirectlyEPc
   fun:_ZN23GDALMultiDomainMetadata15SetMetadataItemEPKcS1_S1_
   fun:GDALRegister_VRT
   fun:GDALAllRegister
   fun:_ZN11CSimulation27bCheckRasterGISOutputFormatEv
   fun:_ZN11CSimulation13nDoSimulationEiPPKc
   fun:main
}
{
   <insert_a_suppression_name_here>
   Memcheck:Leak
   match-leak-kinds: reachable
   fun:calloc
   fun:VSICallocVerbose
   fun:_ZN13CPLStringList16EnsureAllocationEi
   fun:_ZN13CPLStringList17AddStringDirectlyEPc
   fun:_ZN23GDALMultiDomainMetadata15SetMetadataItemEPKcS1_S1_
   fun:GDALRegister_Derived
   fun:GDALAllRegister
   fun:_ZN11CSimulation27bCheckRasterGISOutputFormatEv
   fun:_ZN11CSimulation13nDoSimulationEiPPKc
   fun:main
}
{
   <insert_a_suppression_name_here>
   Memcheck:Leak
   match-leak-kinds: reachable
   fun:calloc
   fun:VSICallocVerbose
   fun:_ZN13CPLStringList16EnsureAllocationEi
   fun:_ZN13CPLStringList17AddStringDirectlyEPc
   fun:_ZN23GDALMultiDomainMetadata15SetMetadataItemEPKcS1_S1_
   fun:GDALRegister_GTI
   fun:GDALAllRegister
   fun:_ZN11CSimulation27bCheckRasterGISOutputFormatEv
   fun:_ZN11CSimulation13nDoSimulationEiPPKc
   fun:main
}
{
   <insert_a_suppression_name_here>
   Memcheck:Leak
   match-leak-kinds: reachable
   fun:calloc
   fun:VSICallocVerbose
   fun:_ZN13CPLStringList16EnsureAllocationEi
   fun:_ZN13CPLStringList17AddStringDirectlyEPc
   fun:_ZN23GDALMultiDomainMetadata15SetMetadataItemEPKcS1_S1_
   fun:GDALRegister_SNAP_TIFF
   fun:GDALAllRegister
   fun:_ZN11CSimulation27bCheckRasterGISOutputFormatEv
   fun:_ZN11CSimulation13nDoSimulationEiPPKc
   fun:main
}
{
   <insert_a_suppression_name_here>
   Memcheck:Leak
   match-leak-kinds: reachable
   fun:calloc
   fun:VSICallocVerbose
   fun:_ZN13CPLStringList16EnsureAllocationEi
   fun:_ZN13CPLStringList17AddStringDirectlyEPc
   fun:_ZN23GDALMultiDomainMetadata15SetMetadataItemEPKcS1_S1_
   fun:GDALRegister_GTiff
   fun:GDALAllRegister
   fun:_ZN11CSimulation27bCheckRasterGISOutputFormatEv
   fun:_ZN11CSimulation13nDoSimulationEiPPKc
   fun:main
}
{
   <insert_a_suppression_name_here>
   Memcheck:Leak
   match-leak-kinds: reachable
   fun:calloc
   fun:VSICallocVerbose
   fun:_ZN13CPLStringList16EnsureAllocationEi
   fun:_ZN13CPLStringList17AddStringDirectlyEPc
   fun:_ZN23GDALMultiDomainMetadata15SetMetadataItemEPKcS1_S1_
   fun:GDALRegister_COG
   fun:GDALAllRegister
   fun:_ZN11CSimulation27bCheckRasterGISOutputFormatEv
   fun:_ZN11CSimulation13nDoSimulationEiPPKc
   fun:main
}
{
   <insert_a_suppression_name_here>
   Memcheck:Leak
   match-leak-kinds: reachable
   fun:calloc
   fun:VSICallocVerbose
   fun:_ZN13CPLStringList16EnsureAllocationEi
   fun:_ZN13CPLStringList17AddStringDirectlyEPc
   fun:_ZN23GDALMultiDomainMetadata15SetMetadataItemEPKcS1_S1_
   fun:GDALRegister_NITF
   fun:GDALAllRegister
   fun:_ZN11CSimulation27bCheckRasterGISOutputFormatEv
   fun:_ZN11CSimulation13nDoSimulationEiPPKc
   fun:main
}
{
   <insert_a_suppression_name_here>
   Memcheck:Leak
   match-leak-kinds: reachable
   fun:calloc
   fun:VSICallocVerbose
   fun:_ZN13CPLStringList16EnsureAllocationEi
   fun:_ZN13CPLStringList17AddStringDirectlyEPc
   fun:_ZN23GDALMultiDomainMetadata15SetMetadataItemEPKcS1_S1_
   fun:GDALRegister_RPFTOC
   fun:GDALAllRegister
   fun:_ZN11CSimulation27bCheckRasterGISOutputFormatEv
   fun:_ZN11CSimulation13nDoSimulationEiPPKc
   fun:main
}
{
   <insert_a_suppression_name_here>
   Memcheck:Leak
   match-leak-kinds: reachable
   fun:calloc
   fun:VSICallocVerbose
   fun:_ZN13CPLStringList16EnsureAllocationEi
   fun:_ZN13CPLStringList17AddStringDirectlyEPc
   fun:_ZN23GDALMultiDomainMetadata15SetMetadataItemEPKcS1_S1_
   fun:GDALRegister_ECRGTOC
   fun:GDALAllRegister
   fun:_ZN11CSimulation27bCheckRasterGISOutputFormatEv
   fun:_ZN11CSimulation13nDoSimulationEiPPKc
   fun:main
}
{
   <insert_a_suppression_name_here>
   Memcheck:Leak
   match-leak-kinds: reachable
   fun:calloc
   fun:VSICallocVerbose
   fun:_ZN13CPLStringList16EnsureAllocationEi
   fun:_ZN13CPLStringList17AddStringDirectlyEPc
   fun:_ZN23GDALMultiDomainMetadata15SetMetadataItemEPKcS1_S1_
   fun:GDALRegister_HFA
   fun:GDALAllRegister
   fun:_ZN11CSimulation27bCheckRasterGISOutputFormatEv
   fun:_ZN11CSimulation13nDoSimulationEiPPKc
   fun:main
}
{
   <insert_a_suppression_name_here>
   Memcheck:Leak
   match-leak-kinds: reachable
   fun:calloc
   fun:VSICallocVerbose
   fun:_ZN13CPLStringList16EnsureAllocationEi
   fun:_ZN13CPLStringList17AddStringDirectlyEPc
   fun:_ZN23GDALMultiDomainMetadata15SetMetadataItemEPKcS1_S1_
   fun:GDALRegister_SAR_CEOS
   fun:GDALAllRegister
   fun:_ZN11CSimulation27bCheckRasterGISOutputFormatEv
   fun:_ZN11CSimulation13nDoSimulationEiPPKc
   fun:main
}
{
   <insert_a_suppression_name_here>
   Memcheck:Leak
   match-leak-kinds: reachable
   fun:calloc
   fun:VSICallocVerbose
   fun:_ZN13CPLStringList16EnsureAllocationEi
   fun:_ZN13CPLStringList17AddStringDirectlyEPc
   fun:_ZN23GDALMultiDomainMetadata15SetMetadataItemEPKcS1_S1_
   fun:GDALRegister_CEOS
   fun:GDALAllRegister
   fun:_ZN11CSimulation27bCheckRasterGISOutputFormatEv
   fun:_ZN11CSimulation13nDoSimulationEiPPKc
   fun:main
}
{
   <insert_a_suppression_name_here>
   Memcheck:Leak
   match-leak-kinds: reachable
   fun:calloc
   fun:VSICallocVerbose
   fun:_ZN13CPLStringList16EnsureAllocationEi
   fun:_ZN13CPLStringList17AddStringDirectlyEPc
   fun:_ZN23GDALMultiDomainMetadata15SetMetadataItemEPKcS1_S1_
   fun:GDALRegister_PALSARJaxa
   fun:GDALAllRegister
   fun:_ZN11CSimulation27bCheckRasterGISOutputFormatEv
   fun:_ZN11CSimulation13nDoSimulationEiPPKc
   fun:main
}
{
   <insert_a_suppression_name_here>
   Memcheck:Leak
   match-leak-kinds: reachable
   fun:calloc
   fun:VSICallocVerbose
   fun:_ZN13CPLStringList16EnsureAllocationEi
   fun:_ZN13CPLStringList17AddStringDirectlyEPc
   fun:_ZN23GDALMultiDomainMetadata15SetMetadataItemEPKcS1_S1_
   fun:GDALRegister_GFF
   fun:GDALAllRegister
   fun:_ZN11CSimulation27bCheckRasterGISOutputFormatEv
   fun:_ZN11CSimulation13nDoSimulationEiPPKc
   fun:main
}
{
   <insert_a_suppression_name_here>
   Memcheck:Leak
   match-leak-kinds: reachable
   fun:calloc
   fun:VSICallocVerbose
   fun:_ZN13CPLStringList16EnsureAllocationEi
   fun:_ZN13CPLStringList17AddStringDirectlyEPc
   fun:_ZN23GDALMultiDomainMetadata15SetMetadataItemEPKcS1_S1_
   fun:GDALRegister_ELAS
   fun:GDALAllRegister
   fun:_ZN11CSimulation27bCheckRasterGISOutputFormatEv
   fun:_ZN11CSimulation13nDoSimulationEiPPKc
   fun:main
}
{
   <insert_a_suppression_name_here>
   Memcheck:Leak
   match-leak-kinds: reachable
   fun:calloc
   fun:VSICallocVerbose
   fun:_ZN13CPLStringList16EnsureAllocationEi
   fun:_ZN13CPLStringList17AddStringDirectlyEPc
   fun:_ZN23GDALMultiDomainMetadata15SetMetadataItemEPKcS1_S1_
   fun:GDALRegister_ESRIC
   fun:GDALAllRegister
   fun:_ZN11CSimulation27bCheckRasterGISOutputFormatEv
   fun:_ZN11CSimulation13nDoSimulationEiPPKc
   fun:main
}
{
   <insert_a_suppression_name_here>
   Memcheck:Leak
   match-leak-kinds: reachable
   fun:calloc
   fun:VSICallocVerbose
   fun:_ZN13CPLStringList16EnsureAllocationEi
   fun:_ZN13CPLStringList17AddStringDirectlyEPc
   fun:_ZN23GDALMultiDomainMetadata15SetMetadataItemEPKcS1_S1_
   fun:GDALRegister_AIGrid
   fun:GDALAllRegister
   fun:_ZN11CSimulation27bCheckRasterGISOutputFormatEv
   fun:_ZN11CSimulation13nDoSimulationEiPPKc
   fun:main
}
{
   <insert_a_suppression_name_here>
   Memcheck:Leak
   match-leak-kinds: reachable
   fun:calloc
   fun:VSICallocVerbose
   fun:_ZN13CPLStringList16EnsureAllocationEi
   fun:_ZN13CPLStringList17AddStringDirectlyEPc
   fun:_ZN23GDALMultiDomainMetadata15SetMetadataItemEPKcS1_S1_
   fun:GDALRegister_AAIGrid
   fun:GDALAllRegister
   fun:_ZN11CSimulation27bCheckRasterGISOutputFormatEv
   fun:_ZN11CSimulation13nDoSimulationEiPPKc
   fun:main
}
{
   <insert_a_suppression_name_here>
   Memcheck:Leak
   match-leak-kinds: reachable
   fun:calloc
   fun:VSICallocVerbose
   fun:_ZN13CPLStringList16EnsureAllocationEi
   fun:_ZN13CPLStringList17AddStringDirectlyEPc
   fun:_ZN23GDALMultiDomainMetadata15SetMetadataItemEPKcS1_S1_
   fun:GDALRegister_GRASSASCIIGrid
   fun:GDALAllRegister
   fun:_ZN11CSimulation27bCheckRasterGISOutputFormatEv
   fun:_ZN11CSimulation13nDoSimulationEiPPKc
   fun:main
}
{
   <insert_a_suppression_name_here>
   Memcheck:Leak
   match-leak-kinds: reachable
   fun:calloc
   fun:VSICallocVerbose
   fun:_ZN13CPLStringList16EnsureAllocationEi
   fun:_ZN13CPLStringList17AddStringDirectlyEPc
   fun:_ZN23GDALMultiDomainMetadata15SetMetadataItemEPKcS1_S1_
   fun:GDALRegister_ISG
   fun:GDALAllRegister
   fun:_ZN11CSimulation27bCheckRasterGISOutputFormatEv
   fun:_ZN11CSimulation13nDoSimulationEiPPKc
   fun:main
}
{
   <insert_a_suppression_name_here>
   Memcheck:Leak
   match-leak-kinds: reachable
   fun:calloc
   fun:VSICallocVerbose
   fun:_ZN13CPLStringList16EnsureAllocationEi
   fun:_ZN13CPLStringList17AddStringDirectlyEPc
   fun:_ZN23GDALMultiDomainMetadata15SetMetadataItemEPKcS1_S1_
   fun:GDALRegister_SDTS
   fun:GDALAllRegister
   fun:_ZN11CSimulation27bCheckRasterGISOutputFormatEv
   fun:_ZN11CSimulation13nDoSimulationEiPPKc
   fun:main
}
{
   <insert_a_suppression_name_here>
   Memcheck:Leak
   match-leak-kinds: reachable
   fun:calloc
   fun:VSICallocVerbose
   fun:_ZN13CPLStringList16EnsureAllocationEi
   fun:_ZN13CPLStringList17AddStringDirectlyEPc
   fun:_ZN23GDALMultiDomainMetadata15SetMetadataItemEPKcS1_S1_
   fun:GDALRegister_DTED
   fun:GDALAllRegister
   fun:_ZN11CSimulation27bCheckRasterGISOutputFormatEv
   fun:_ZN11CSimulation13nDoSimulationEiPPKc
   fun:main
}
{
   <insert_a_suppression_name_here>
   Memcheck:Leak
   match-leak-kinds: reachable
   fun:calloc
   fun:VSICallocVerbose
   fun:_ZN13CPLStringList16EnsureAllocationEi
   fun:_ZN13CPLStringList17AddStringDirectlyEPc
   fun:_ZN23GDALMultiDomainMetadata15SetMetadataItemEPKcS1_S1_
   fun:GDALRegister_PNG
   fun:GDALAllRegister
   fun:_ZN11CSimulation27bCheckRasterGISOutputFormatEv
   fun:_ZN11CSimulation13nDoSimulationEiPPKc
   fun:main
}
{
   <insert_a_suppression_name_here>
   Memcheck:Leak
   match-leak-kinds: reachable
   fun:calloc
   fun:VSICallocVerbose
   fun:_ZN13CPLStringList16EnsureAllocationEi
   fun:_ZN13CPLStringList17AddStringDirectlyEPc
   fun:_ZN23GDALMultiDomainMetadata15SetMetadataItemEPKcS1_S1_
   fun:GDALRegister_JPEG
   fun:GDALAllRegister
   fun:_ZN11CSimulation27bCheckRasterGISOutputFormatEv
   fun:_ZN11CSimulation13nDoSimulationEiPPKc
   fun:main
}
{
   <insert_a_suppression_name_here>
   Memcheck:Leak
   match-leak-kinds: reachable
   fun:calloc
   fun:VSICallocVerbose
   fun:_ZN13CPLStringList16EnsureAllocationEi
   fun:_ZN13CPLStringList17AddStringDirectlyEPc
   fun:_ZN23GDALMultiDomainMetadata15SetMetadataItemEPKcS1_S1_
   fun:GDALRegister_MEM
   fun:GDALAllRegister
   fun:_ZN11CSimulation27bCheckRasterGISOutputFormatEv
   fun:_ZN11CSimulation13nDoSimulationEiPPKc
   fun:main
}
{
   <insert_a_suppression_name_here>
   Memcheck:Leak
   match-leak-kinds: reachable
   fun:calloc
   fun:VSICallocVerbose
   fun:_ZN13CPLStringList16EnsureAllocationEi
   fun:_ZN13CPLStringList17AddStringDirectlyEPc
   fun:_ZN23GDALMultiDomainMetadata15SetMetadataItemEPKcS1_S1_
   fun:GDALRegister_JDEM
   fun:GDALAllRegister
   fun:_ZN11CSimulation27bCheckRasterGISOutputFormatEv
   fun:_ZN11CSimulation13nDoSimulationEiPPKc
   fun:main
}
{
   <insert_a_suppression_name_here>
   Memcheck:Leak
   match-leak-kinds: reachable
   fun:calloc
   fun:VSICallocVerbose
   fun:_ZN13CPLStringList16EnsureAllocationEi
   fun:_ZN13CPLStringList17AddStringDirectlyEPc
   fun:_ZN23GDALMultiDomainMetadata15SetMetadataItemEPKcS1_S1_
   fun:GDALRegister_GIF
   fun:GDALAllRegister
   fun:_ZN11CSimulation27bCheckRasterGISOutputFormatEv
   fun:_ZN11CSimulation13nDoSimulationEiPPKc
   fun:main
}
{
   <insert_a_suppression_name_here>
   Memcheck:Leak
   match-leak-kinds: reachable
   fun:calloc
   fun:VSICallocVerbose
   fun:_ZN13CPLStringList16EnsureAllocationEi
   fun:_ZN13CPLStringList17AddStringDirectlyEPc
   fun:_ZN23GDALMultiDomainMetadata15SetMetadataItemEPKcS1_S1_
   fun:GDALRegister_BIGGIF
   fun:GDALAllRegister
   fun:_ZN11CSimulation27bCheckRasterGISOutputFormatEv
   fun:_ZN11CSimulation13nDoSimulationEiPPKc
   fun:main
}
{
   <insert_a_suppression_name_here>
   Memcheck:Leak
   match-leak-kinds: reachable
   fun:calloc
   fun:VSICallocVerbose
   fun:_ZN13CPLStringList16EnsureAllocationEi
   fun:_ZN13CPLStringList17AddStringDirectlyEPc
   fun:_ZN23GDALMultiDomainMetadata15SetMetadataItemEPKcS1_S1_
   fun:GDALRegister_Envisat
   fun:GDALAllRegister
   fun:_ZN11CSimulation27bCheckRasterGISOutputFormatEv
   fun:_ZN11CSimulation13nDoSimulationEiPPKc
   fun:main
}
{
   <insert_a_suppression_name_here>
   Memcheck:Leak
   match-leak-kinds: reachable
   fun:calloc
   fun:VSICallocVerbose
   fun:_ZN13CPLStringList16EnsureAllocationEi
   fun:_ZN13CPLStringList17AddStringDirectlyEPc
   fun:_ZN23GDALMultiDomainMetadata15SetMetadataItemEPKcS1_S1_
   fun:GDALRegister_FITS
   fun:GDALAllRegister
   fun:_ZN11CSimulation27bCheckRasterGISOutputFormatEv
   fun:_ZN11CSimulation13nDoSimulationEiPPKc
   fun:main
}
{
   <insert_a_suppression_name_here>
   Memcheck:Leak
   match-leak-kinds: reachable
   fun:calloc
   fun:VSICallocVerbose
   fun:_ZN13CPLStringList16EnsureAllocationEi
   fun:_ZN13CPLStringList17AddStringDirectlyEPc
   fun:_ZN23GDALMultiDomainMetadata15SetMetadataItemEPKcS1_S1_
   fun:GDALRegister_BSB
   fun:GDALAllRegister
   fun:_ZN11CSimulation27bCheckRasterGISOutputFormatEv
   fun:_ZN11CSimulation13nDoSimulationEiPPKc
   fun:main
}
{
   <insert_a_suppression_name_here>
   Memcheck:Leak
   match-leak-kinds: reachable
   fun:calloc
   fun:VSICallocVerbose
   fun:_ZN13CPLStringList16EnsureAllocationEi
   fun:_ZN13CPLStringList17AddStringDirectlyEPc
   fun:_ZN23GDALMultiDomainMetadata15SetMetadataItemEPKcS1_S1_
   fun:GDALRegister_XPM
   fun:GDALAllRegister
   fun:_ZN11CSimulation27bCheckRasterGISOutputFormatEv
   fun:_ZN11CSimulation13nDoSimulationEiPPKc
   fun:main
}
{
   <insert_a_suppression_name_here>
   Memcheck:Leak
   match-leak-kinds: reachable
   fun:calloc
   fun:VSICallocVerbose
   fun:_ZN13CPLStringList16EnsureAllocationEi
   fun:_ZN13CPLStringList17AddStringDirectlyEPc
   fun:_ZN23GDALMultiDomainMetadata15SetMetadataItemEPKcS1_S1_
   fun:GDALRegister_BMP
   fun:GDALAllRegister
   fun:_ZN11CSimulation27bCheckRasterGISOutputFormatEv
   fun:_ZN11CSimulation13nDoSimulationEiPPKc
   fun:main
}
{
   <insert_a_suppression_name_here>
   Memcheck:Leak
   match-leak-kinds: reachable
   fun:calloc
   fun:VSICallocVerbose
   fun:_ZN13CPLStringList16EnsureAllocationEi
   fun:_ZN13CPLStringList17AddStringDirectlyEPc
   fun:_ZN23GDALMultiDomainMetadata15SetMetadataItemEPKcS1_S1_
   fun:GDALRegister_DIMAP
   fun:GDALAllRegister
   fun:_ZN11CSimulation27bCheckRasterGISOutputFormatEv
   fun:_ZN11CSimulation13nDoSimulationEiPPKc
   fun:main
}
{
   <insert_a_suppression_name_here>
   Memcheck:Leak
   match-leak-kinds: reachable
   fun:calloc
   fun:VSICallocVerbose
   fun:_ZN13CPLStringList16EnsureAllocationEi
   fun:_ZN13CPLStringList17AddStringDirectlyEPc
   fun:_ZN23GDALMultiDomainMetadata15SetMetadataItemEPKcS1_S1_
   fun:GDALRegister_AirSAR
   fun:GDALAllRegister
   fun:_ZN11CSimulation27bCheckRasterGISOutputFormatEv
   fun:_ZN11CSimulation13nDoSimulationEiPPKc
   fun:main
}
{
   <insert_a_suppression_name_here>
   Memcheck:Leak
   match-leak-kinds: reachable
   fun:calloc
   fun:VSICallocVerbose
   fun:_ZN13CPLStringList16EnsureAllocationEi
   fun:_ZN13CPLStringList17AddStringDirectlyEPc
   fun:_ZN23GDALMultiDomainMetadata15SetMetadataItemEPKcS1_S1_
   fun:GDALRegister_RS2
   fun:GDALAllRegister
   fun:_ZN11CSimulation27bCheckRasterGISOutputFormatEv
   fun:_ZN11CSimulation13nDoSimulationEiPPKc
   fun:main
}
{
   <insert_a_suppression_name_here>
   Memcheck:Leak
   match-leak-kinds: reachable
   fun:calloc
   fun:VSICallocVerbose
   fun:_ZN13CPLStringList16EnsureAllocationEi
   fun:_ZN13CPLStringList17AddStringDirectlyEPc
   fun:_ZN23GDALMultiDomainMetadata15SetMetadataItemEPKcS1_S1_
   fun:GDALRegister_SAFE
   fun:GDALAllRegister
   fun:_ZN11CSimulation27bCheckRasterGISOutputFormatEv
   fun:_ZN11CSimulation13nDoSimulationEiPPKc
   fun:main
}
{
   <insert_a_suppression_name_here>
   Memcheck:Leak
   match-leak-kinds: reachable
   fun:calloc
   fun:VSICallocVerbose
   fun:_ZN13CPLStringList16EnsureAllocationEi
   fun:_ZN13CPLStringList17AddStringDirectlyEPc
   fun:_ZN23GDALMultiDomainMetadata15SetMetadataItemEPKcS1_S1_
   fun:GDALRegister_PCIDSK
   fun:GDALAllRegister
   fun:_ZN11CSimulation27bCheckRasterGISOutputFormatEv
   fun:_ZN11CSimulation13nDoSimulationEiPPKc
   fun:main
}
{
   <insert_a_suppression_name_here>
   Memcheck:Leak
   match-leak-kinds: reachable
   fun:calloc
   fun:VSICallocVerbose
   fun:_ZN13CPLStringList16EnsureAllocationEi
   fun:_ZN13CPLStringList17AddStringDirectlyEPc
   fun:_ZN23GDALMultiDomainMetadata15SetMetadataItemEPKcS1_S1_
   fun:GDALRegister_PCRaster
   fun:GDALAllRegister
   fun:_ZN11CSimulation27bCheckRasterGISOutputFormatEv
   fun:_ZN11CSimulation13nDoSimulationEiPPKc
   fun:main
}
{
   <insert_a_suppression_name_here>
   Memcheck:Leak
   match-leak-kinds: reachable
   fun:calloc
   fun:VSICallocVerbose
   fun:_ZN13CPLStringList16EnsureAllocationEi
   fun:_ZN13CPLStringList17AddStringDirectlyEPc
   fun:_ZN23GDALMultiDomainMetadata15SetMetadataItemEPKcS1_S1_
   fun:GDALRegister_ILWIS
   fun:GDALAllRegister
   fun:_ZN11CSimulation27bCheckRasterGISOutputFormatEv
   fun:_ZN11CSimulation13nDoSimulationEiPPKc
   fun:main
}
{
   <insert_a_suppression_name_here>
   Memcheck:Leak
   match-leak-kinds: reachable
   fun:calloc
   fun:VSICallocVerbose
   fun:_ZN13CPLStringList16EnsureAllocationEi
   fun:_ZN13CPLStringList17AddStringDirectlyEPc
   fun:_ZN23GDALMultiDomainMetadata15SetMetadataItemEPKcS1_S1_
   fun:GDALRegister_SGI
   fun:GDALAllRegister
   fun:_ZN11CSimulation27bCheckRasterGISOutputFormatEv
   fun:_ZN11CSimulation13nDoSimulationEiPPKc
   fun:main
}
{
   <insert_a_suppression_name_here>
   Memcheck:Leak
   match-leak-kinds: reachable
   fun:calloc
   fun:VSICallocVerbose
   fun:_ZN13CPLStringList16EnsureAllocationEi
   fun:_ZN13CPLStringList17AddStringDirectlyEPc
   fun:_ZN23GDALMultiDomainMetadata15SetMetadataItemEPKcS1_S1_
   fun:GDALRegister_SRTMHGT
   fun:GDALAllRegister
   fun:_ZN11CSimulation27bCheckRasterGISOutputFormatEv
   fun:_ZN11CSimulation13nDoSimulationEiPPKc
   fun:main
}
{
   <insert_a_suppression_name_here>
   Memcheck:Leak
   match-leak-kinds: reachable
   fun:calloc
   fun:VSICallocVerbose
   fun:_ZN13CPLStringList16EnsureAllocationEi
   fun:_ZN13CPLStringList17AddStringDirectlyEPc
   fun:_ZN23GDALMultiDomainMetadata15SetMetadataItemEPKcS1_S1_
   fun:GDALRegister_Leveller
   fun:GDALAllRegister
   fun:_ZN11CSimulation27bCheckRasterGISOutputFormatEv
   fun:_ZN11CSimulation13nDoSimulationEiPPKc
   fun:main
}
{
   <insert_a_suppression_name_here>
   Memcheck:Leak
   match-leak-kinds: reachable
   fun:calloc
   fun:VSICallocVerbose
   fun:_ZN13CPLStringList16EnsureAllocationEi
   fun:_ZN13CPLStringList17AddStringDirectlyEPc
   fun:_ZN23GDALMultiDomainMetadata15SetMetadataItemEPKcS1_S1_
   fun:GDALRegister_Terragen
   fun:GDALAllRegister
   fun:_ZN11CSimulation27bCheckRasterGISOutputFormatEv
   fun:_ZN11CSimulation13nDoSimulationEiPPKc
   fun:main
}
{
   <insert_a_suppression_name_here>
   Memcheck:Leak
   match-leak-kinds: reachable
   fun:calloc
   fun:VSICallocVerbose
   fun:_ZN13CPLStringList16EnsureAllocationEi
   fun:_ZN13CPLStringList17AddStringDirectlyEPc
   fun:_ZN23GDALMultiDomainMetadata15SetMetadataItemEPKcS1_S1_
   fun:GDALRegister_netCDF
   fun:GDALAllRegister
   fun:_ZN11CSimulation27bCheckRasterGISOutputFormatEv
   fun:_ZN11CSimulation13nDoSimulationEiPPKc
   fun:main
}
{
   <insert_a_suppression_name_here>
   Memcheck:Leak
   match-leak-kinds: reachable
   fun:calloc
   fun:VSICallocVerbose
   fun:_ZN13CPLStringList16EnsureAllocationEi
   fun:_ZN13CPLStringList17AddStringDirectlyEPc
   fun:_ZN23GDALMultiDomainMetadata15SetMetadataItemEPKcS1_S1_
   fun:GDALRegister_HDF4
   fun:GDALAllRegister
   fun:_ZN11CSimulation27bCheckRasterGISOutputFormatEv
   fun:_ZN11CSimulation13nDoSimulationEiPPKc
   fun:main
}
{
   <insert_a_suppression_name_here>
   Memcheck:Leak
   match-leak-kinds: reachable
   fun:calloc
   fun:VSICallocVerbose
   fun:_ZN13CPLStringList16EnsureAllocationEi
   fun:_ZN13CPLStringList17AddStringDirectlyEPc
   fun:_ZN23GDALMultiDomainMetadata15SetMetadataItemEPKcS1_S1_
   fun:GDALRegister_HDF4Image
   fun:GDALAllRegister
   fun:_ZN11CSimulation27bCheckRasterGISOutputFormatEv
   fun:_ZN11CSimulation13nDoSimulationEiPPKc
   fun:main
}
{
   <insert_a_suppression_name_here>
   Memcheck:Leak
   match-leak-kinds: reachable
   fun:calloc
   fun:VSICallocVerbose
   fun:_ZN13CPLStringList16EnsureAllocationEi
   fun:_ZN13CPLStringList17AddStringDirectlyEPc
   fun:_ZN23GDALMultiDomainMetadata15SetMetadataItemEPKcS1_S1_
   fun:GDALRegister_ISIS3
   fun:GDALAllRegister
   fun:_ZN11CSimulation27bCheckRasterGISOutputFormatEv
   fun:_ZN11CSimulation13nDoSimulationEiPPKc
   fun:main
}
{
   <insert_a_suppression_name_here>
   Memcheck:Leak
   match-leak-kinds: reachable
   fun:calloc
   fun:VSICallocVerbose
   fun:_ZN13CPLStringList16EnsureAllocationEi
   fun:_ZN13CPLStringList17AddStringDirectlyEPc
   fun:_ZN23GDALMultiDomainMetadata15SetMetadataItemEPKcS1_S1_
   fun:GDALRegister_ISIS2
   fun:GDALAllRegister
   fun:_ZN11CSimulation27bCheckRasterGISOutputFormatEv
   fun:_ZN11CSimulation13nDoSimulationEiPPKc
   fun:main
}
{
   <insert_a_suppression_name_here>
   Memcheck:Leak
   match-leak-kinds: reachable
   fun:calloc
   fun:VSICallocVerbose
   fun:_ZN13CPLStringList16EnsureAllocationEi
   fun:_ZN13CPLStringList17AddStringDirectlyEPc
   fun:_ZN23GDALMultiDomainMetadata15SetMetadataItemEPKcS1_S1_
   fun:GDALRegister_PDS
   fun:GDALAllRegister
   fun:_ZN11CSimulation27bCheckRasterGISOutputFormatEv
   fun:_ZN11CSimulation13nDoSimulationEiPPKc
   fun:main
}
{
   <insert_a_suppression_name_here>
   Memcheck:Leak
   match-leak-kinds: reachable
   fun:calloc
   fun:VSICallocVerbose
   fun:_ZN13CPLStringList16EnsureAllocationEi
   fun:_ZN13CPLStringList17AddStringDirectlyEPc
   fun:_ZN23GDALMultiDomainMetadata15SetMetadataItemEPKcS1_S1_
   fun:GDALRegister_PDS4
   fun:GDALAllRegister
   fun:_ZN11CSimulation27bCheckRasterGISOutputFormatEv
   fun:_ZN11CSimulation13nDoSimulationEiPPKc
   fun:main
}
{
   <insert_a_suppression_name_here>
   Memcheck:Leak
   match-leak-kinds: reachable
   fun:calloc
   fun:VSICallocVerbose
   fun:_ZN13CPLStringList16EnsureAllocationEi
   fun:_ZN13CPLStringList17AddStringDirectlyEPc
   fun:_ZN23GDALMultiDomainMetadata15SetMetadataItemEPKcS1_S1_
   fun:GDALRegister_VICAR
   fun:GDALAllRegister
   fun:_ZN11CSimulation27bCheckRasterGISOutputFormatEv
   fun:_ZN11CSimulation13nDoSimulationEiPPKc
   fun:main
}
{
   <insert_a_suppression_name_here>
   Memcheck:Leak
   match-leak-kinds: reachable
   fun:calloc
   fun:VSICallocVerbose
   fun:_ZN13CPLStringList16EnsureAllocationEi
   fun:_ZN13CPLStringList17AddStringDirectlyEPc
   fun:_ZN23GDALMultiDomainMetadata15SetMetadataItemEPKcS1_S1_
   fun:GDALRegister_TIL
   fun:GDALAllRegister
   fun:_ZN11CSimulation27bCheckRasterGISOutputFormatEv
   fun:_ZN11CSimulation13nDoSimulationEiPPKc
   fun:main
}
{
   <insert_a_suppression_name_here>
   Memcheck:Leak
   match-leak-kinds: reachable
   fun:calloc
   fun:VSICallocVerbose
   fun:_ZN13CPLStringList16EnsureAllocationEi
   fun:_ZN13CPLStringList17AddStringDirectlyEPc
   fun:_ZN23GDALMultiDomainMetadata15SetMetadataItemEPKcS1_S1_
   fun:GDALRegister_ERS
   fun:GDALAllRegister
   fun:_ZN11CSimulation27bCheckRasterGISOutputFormatEv
   fun:_ZN11CSimulation13nDoSimulationEiPPKc
   fun:main
}
{
   <insert_a_suppression_name_here>
   Memcheck:Leak
   match-leak-kinds: reachable
   fun:calloc
   fun:VSICallocVerbose
   fun:_ZN13CPLStringList16EnsureAllocationEi
   fun:_ZN13CPLStringList17AddStringDirectlyEPc
   fun:_ZN23GDALMultiDomainMetadata15SetMetadataItemEPKcS1_S1_
   fun:GDALRegister_JP2OpenJPEG
   fun:GDALAllRegister
   fun:_ZN11CSimulation27bCheckRasterGISOutputFormatEv
   fun:_ZN11CSimulation13nDoSimulationEiPPKc
   fun:main
}
{
   <insert_a_suppression_name_here>
   Memcheck:Leak
   match-leak-kinds: reachable
   fun:calloc
   fun:VSICallocVerbose
   fun:_ZN13CPLStringList16EnsureAllocationEi
   fun:_ZN13CPLStringList17AddStringDirectlyEPc
   fun:_ZN23GDALMultiDomainMetadata15SetMetadataItemEPKcS1_S1_
   fun:GDALRegister_L1B
   fun:GDALAllRegister
   fun:_ZN11CSimulation27bCheckRasterGISOutputFormatEv
   fun:_ZN11CSimulation13nDoSimulationEiPPKc
   fun:main
}
{
   <insert_a_suppression_name_here>
   Memcheck:Leak
   match-leak-kinds: reachable
   fun:calloc
   fun:VSICallocVerbose
   fun:_ZN13CPLStringList16EnsureAllocationEi
   fun:_ZN13CPLStringList17AddStringDirectlyEPc
   fun:_ZN23GDALMultiDomainMetadata15SetMetadataItemEPKcS1_S1_
   fun:GDALRegister_FIT
   fun:GDALAllRegister
   fun:_ZN11CSimulation27bCheckRasterGISOutputFormatEv
   fun:_ZN11CSimulation13nDoSimulationEiPPKc
   fun:main
}
{
   <insert_a_suppression_name_here>
   Memcheck:Leak
   match-leak-kinds: reachable
   fun:calloc
   fun:VSICallocVerbose
   fun:_ZN13CPLStringList16EnsureAllocationEi
   fun:_ZN13CPLStringList17AddStringDirectlyEPc
   fun:_ZN23GDALMultiDomainMetadata15SetMetadataItemEPKcS1_S1_
   fun:GDALRegister_GRIB
   fun:GDALAllRegister
   fun:_ZN11CSimulation27bCheckRasterGISOutputFormatEv
   fun:_ZN11CSimulation13nDoSimulationEiPPKc
   fun:main
}
{
   <insert_a_suppression_name_here>
   Memcheck:Leak
   match-leak-kinds: reachable
   fun:calloc
   fun:VSICallocVerbose
   fun:_ZN13CPLStringList16EnsureAllocationEi
   fun:_ZN13CPLStringList17AddStringDirectlyEPc
   fun:_ZN23GDALMultiDomainMetadata15SetMetadataItemEPKcS1_S1_
   fun:GDALRegister_RMF
   fun:GDALAllRegister
   fun:_ZN11CSimulation27bCheckRasterGISOutputFormatEv
   fun:_ZN11CSimulation13nDoSimulationEiPPKc
   fun:main
}
{
   <insert_a_suppression_name_here>
   Memcheck:Leak
   match-leak-kinds: reachable
   fun:calloc
   fun:VSICallocVerbose
   fun:_ZN13CPLStringList16EnsureAllocationEi
   fun:_ZN13CPLStringList17AddStringDirectlyEPc
   fun:_ZN23GDALMultiDomainMetadata15SetMetadataItemEPKcS1_S1_
   fun:GDALRegister_WCS
   fun:GDALAllRegister
   fun:_ZN11CSimulation27bCheckRasterGISOutputFormatEv
   fun:_ZN11CSimulation13nDoSimulationEiPPKc
   fun:main
}
{
   <insert_a_suppression_name_here>
   Memcheck:Leak
   match-leak-kinds: reachable
   fun:calloc
   fun:VSICallocVerbose
   fun:_ZN13CPLStringList16EnsureAllocationEi
   fun:_ZN13CPLStringList17AddStringDirectlyEPc
   fun:_ZN23GDALMultiDomainMetadata15SetMetadataItemEPKcS1_S1_
   fun:GDALRegister_WMS
   fun:GDALAllRegister
   fun:_ZN11CSimulation27bCheckRasterGISOutputFormatEv
   fun:_ZN11CSimulation13nDoSimulationEiPPKc
   fun:main
}
{
   <insert_a_suppression_name_here>
   Memcheck:Leak
   match-leak-kinds: reachable
   fun:calloc
   fun:VSICallocVerbose
   fun:_ZN13CPLStringList16EnsureAllocationEi
   fun:_ZN13CPLStringList17AddStringDirectlyEPc
   fun:_ZN23GDALMultiDomainMetadata15SetMetadataItemEPKcS1_S1_
   fun:GDALRegister_MSGN
   fun:GDALAllRegister
   fun:_ZN11CSimulation27bCheckRasterGISOutputFormatEv
   fun:_ZN11CSimulation13nDoSimulationEiPPKc
   fun:main
}
{
   <insert_a_suppression_name_here>
   Memcheck:Leak
   match-leak-kinds: reachable
   fun:calloc
   fun:VSICallocVerbose
   fun:_ZN13CPLStringList16EnsureAllocationEi
   fun:_ZN13CPLStringList17AddStringDirectlyEPc
   fun:_ZN23GDALMultiDomainMetadata15SetMetadataItemEPKcS1_S1_
   fun:GDALRegister_IDRISI
   fun:GDALAllRegister
   fun:_ZN11CSimulation27bCheckRasterGISOutputFormatEv
   fun:_ZN11CSimulation13nDoSimulationEiPPKc
   fun:main
}
{
   <insert_a_suppression_name_here>
   Memcheck:Leak
   match-leak-kinds: reachable
   fun:calloc
   fun:VSICallocVerbose
   fun:_ZN13CPLStringList16EnsureAllocationEi
   fun:_ZN13CPLStringList17AddStringDirectlyEPc
   fun:_ZN23GDALMultiDomainMetadata15SetMetadataItemEPKcS1_S1_
   fun:GDALRegister_GSAG
   fun:GDALAllRegister
   fun:_ZN11CSimulation27bCheckRasterGISOutputFormatEv
   fun:_ZN11CSimulation13nDoSimulationEiPPKc
   fun:main
}
{
   <insert_a_suppression_name_here>
   Memcheck:Leak
   match-leak-kinds: reachable
   fun:calloc
   fun:VSICallocVerbose
   fun:_ZN13CPLStringList16EnsureAllocationEi
   fun:_ZN13CPLStringList17AddStringDirectlyEPc
   fun:_ZN23GDALMultiDomainMetadata15SetMetadataItemEPKcS1_S1_
   fun:GDALRegister_GSBG
   fun:GDALAllRegister
   fun:_ZN11CSimulation27bCheckRasterGISOutputFormatEv
   fun:_ZN11CSimulation13nDoSimulationEiPPKc
   fun:main
}
{
   <insert_a_suppression_name_here>
   Memcheck:Leak
   match-leak-kinds: reachable
   fun:calloc
   fun:VSICallocVerbose
   fun:_ZN13CPLStringList16EnsureAllocationEi
   fun:_ZN13CPLStringList17AddStringDirectlyEPc
   fun:_ZN23GDALMultiDomainMetadata15SetMetadataItemEPKcS1_S1_
   fun:GDALRegister_GS7BG
   fun:GDALAllRegister
   fun:_ZN11CSimulation27bCheckRasterGISOutputFormatEv
   fun:_ZN11CSimulation13nDoSimulationEiPPKc
   fun:main
}
{
   <insert_a_suppression_name_here>
   Memcheck:Leak
   match-leak-kinds: reachable
   fun:calloc
   fun:VSICallocVerbose
   fun:_ZN13CPLStringList16EnsureAllocationEi
   fun:_ZN13CPLStringList17AddStringDirectlyEPc
   fun:_ZN23GDALMultiDomainMetadata15SetMetadataItemEPKcS1_S1_
   fun:GDALRegister_COSAR
   fun:GDALAllRegister
   fun:_ZN11CSimulation27bCheckRasterGISOutputFormatEv
   fun:_ZN11CSimulation13nDoSimulationEiPPKc
   fun:main
}
{
   <insert_a_suppression_name_here>
   Memcheck:Leak
   match-leak-kinds: reachable
   fun:calloc
   fun:VSICallocVerbose
   fun:_ZN13CPLStringList16EnsureAllocationEi
   fun:_ZN13CPLStringList17AddStringDirectlyEPc
   fun:_ZN23GDALMultiDomainMetadata15SetMetadataItemEPKcS1_S1_
   fun:GDALRegister_TSX
   fun:GDALAllRegister
   fun:_ZN11CSimulation27bCheckRasterGISOutputFormatEv
   fun:_ZN11CSimulation13nDoSimulationEiPPKc
   fun:main
}
{
   <insert_a_suppression_name_here>
   Memcheck:Leak
   match-leak-kinds: reachable
   fun:calloc
   fun:VSICallocVerbose
   fun:_ZN13CPLStringList16EnsureAllocationEi
   fun:_ZN13CPLStringList17AddStringDirectlyEPc
   fun:_ZN23GDALMultiDomainMetadata15SetMetadataItemEPKcS1_S1_
   fun:GDALRegister_COASP
   fun:GDALAllRegister
   fun:_ZN11CSimulation27bCheckRasterGISOutputFormatEv
   fun:_ZN11CSimulation13nDoSimulationEiPPKc
   fun:main
}
{
   <insert_a_suppression_name_here>
   Memcheck:Leak
   match-leak-kinds: reachable
   fun:calloc
   fun:VSICallocVerbose
   fun:_ZN13CPLStringList16EnsureAllocationEi
   fun:_ZN13CPLStringList17AddStringDirectlyEPc
   fun:_ZN23GDALMultiDomainMetadata15SetMetadataItemEPKcS1_S1_
   fun:GDALRegister_R
   fun:GDALAllRegister
   fun:_ZN11CSimulation27bCheckRasterGISOutputFormatEv
   fun:_ZN11CSimulation13nDoSimulationEiPPKc
   fun:main
}
{
   <insert_a_suppression_name_here>
   Memcheck:Leak
   match-leak-kinds: reachable
   fun:calloc
   fun:VSICallocVerbose
   fun:_ZN13CPLStringList16EnsureAllocationEi
   fun:_ZN13CPLStringList17AddStringDirectlyEPc
   fun:_ZN23GDALMultiDomainMetadata15SetMetadataItemEPKcS1_S1_
   fun:GDALRegister_MAP
   fun:GDALAllRegister
   fun:_ZN11CSimulation27bCheckRasterGISOutputFormatEv
   fun:_ZN11CSimulation13nDoSimulationEiPPKc
   fun:main
}
{
   <insert_a_suppression_name_here>
   Memcheck:Leak
   match-leak-kinds: reachable
   fun:calloc
   fun:VSICallocVerbose
   fun:_ZN13CPLStringList16EnsureAllocationEi
   fun:_ZN13CPLStringList17AddStringDirectlyEPc
   fun:_ZN23GDALMultiDomainMetadata15SetMetadataItemEPKcS1_S1_
   fun:GDALRegister_KMLSUPEROVERLAY
   fun:GDALAllRegister
   fun:_ZN11CSimulation27bCheckRasterGISOutputFormatEv
   fun:_ZN11CSimulation13nDoSimulationEiPPKc
   fun:main
}
{
   <insert_a_suppression_name_here>
   Memcheck:Leak
   match-leak-kinds: reachable
   fun:calloc
   fun:VSICallocVerbose
   fun:_ZN13CPLStringList16EnsureAllocationEi
   fun:_ZN13CPLStringList17AddStringDirectlyEPc
   fun:_ZN23GDALMultiDomainMetadata15SetMetadataItemEPKcS1_S1_
   fun:GDALRegister_WEBP
   fun:GDALAllRegister
   fun:_ZN11CSimulation27bCheckRasterGISOutputFormatEv
   fun:_ZN11CSimulation13nDoSimulationEiPPKc
   fun:main
}
{
   <insert_a_suppression_name_here>
   Memcheck:Leak
   match-leak-kinds: reachable
   fun:calloc
   fun:VSICallocVerbose
   fun:_ZN13CPLStringList16EnsureAllocationEi
   fun:_ZN13CPLStringList17AddStringDirectlyEPc
   fun:_ZN23GDALMultiDomainMetadata15SetMetadataItemEPKcS1_S1_
   fun:GDALRegister_PDF
   fun:GDALAllRegister
   fun:_ZN11CSimulation27bCheckRasterGISOutputFormatEv
   fun:_ZN11CSimulation13nDoSimulationEiPPKc
   fun:main
}
{
   <insert_a_suppression_name_here>
   Memcheck:Leak
   match-leak-kinds: reachable
   fun:calloc
   fun:VSICallocVerbose
   fun:_ZN13CPLStringList16EnsureAllocationEi
   fun:_ZN13CPLStringList17AddStringDirectlyEPc
   fun:_ZN23GDALMultiDomainMetadata15SetMetadataItemEPKcS1_S1_
   fun:GDALRegister_Rasterlite
   fun:GDALAllRegister
   fun:_ZN11CSimulation27bCheckRasterGISOutputFormatEv
   fun:_ZN11CSimulation13nDoSimulationEiPPKc
   fun:main
}
{
   <insert_a_suppression_name_here>
   Memcheck:Leak
   match-leak-kinds: reachable
   fun:calloc
   fun:VSICallocVerbose
   fun:_ZN13CPLStringList16EnsureAllocationEi
   fun:_ZN13CPLStringList17AddStringDirectlyEPc
   fun:_ZN23GDALMultiDomainMetadata15SetMetadataItemEPKcS1_S1_
   fun:GDALRegister_MBTiles
   fun:GDALAllRegister
   fun:_ZN11CSimulation27bCheckRasterGISOutputFormatEv
   fun:_ZN11CSimulation13nDoSimulationEiPPKc
   fun:main
}
{
   <insert_a_suppression_name_here>
   Memcheck:Leak
   match-leak-kinds: reachable
   fun:calloc
   fun:VSICallocVerbose
   fun:_ZN13CPLStringList16EnsureAllocationEi
   fun:_ZN13CPLStringList17AddStringDirectlyEPc
   fun:_ZN23GDALMultiDomainMetadata15SetMetadataItemEPKcS1_S1_
   fun:GDALRegister_PLMOSAIC
   fun:GDALAllRegister
   fun:_ZN11CSimulation27bCheckRasterGISOutputFormatEv
   fun:_ZN11CSimulation13nDoSimulationEiPPKc
   fun:main
}
{
   <insert_a_suppression_name_here>
   Memcheck:Leak
   match-leak-kinds: reachable
   fun:calloc
   fun:VSICallocVerbose
   fun:_ZN13CPLStringList16EnsureAllocationEi
   fun:_ZN13CPLStringList17AddStringDirectlyEPc
   fun:_ZN23GDALMultiDomainMetadata15SetMetadataItemEPKcS1_S1_
   fun:GDALRegister_CALS
   fun:GDALAllRegister
   fun:_ZN11CSimulation27bCheckRasterGISOutputFormatEv
   fun:_ZN11CSimulation13nDoSimulationEiPPKc
   fun:main
}
{
   <insert_a_suppression_name_here>
   Memcheck:Leak
   match-leak-kinds: reachable
   fun:calloc
   fun:VSICallocVerbose
   fun:_ZN13CPLStringList16EnsureAllocationEi
   fun:_ZN13CPLStringList17AddStringDirectlyEPc
   fun:_ZN23GDALMultiDomainMetadata15SetMetadataItemEPKcS1_S1_
   fun:GDALRegister_WMTS
   fun:GDALAllRegister
   fun:_ZN11CSimulation27bCheckRasterGISOutputFormatEv
   fun:_ZN11CSimulation13nDoSimulationEiPPKc
   fun:main
}
{
   <insert_a_suppression_name_here>
   Memcheck:Leak
   match-leak-kinds: reachable
   fun:calloc
   fun:VSICallocVerbose
   fun:_ZN13CPLStringList16EnsureAllocationEi
   fun:_ZN13CPLStringList17AddStringDirectlyEPc
   fun:_ZN23GDALMultiDomainMetadata15SetMetadataItemEPKcS1_S1_
   fun:GDALRegister_SENTINEL2
   fun:GDALAllRegister
   fun:_ZN11CSimulation27bCheckRasterGISOutputFormatEv
   fun:_ZN11CSimulation13nDoSimulationEiPPKc
   fun:main
}
{
   <insert_a_suppression_name_here>
   Memcheck:Leak
   match-leak-kinds: reachable
   fun:calloc
   fun:VSICallocVerbose
   fun:_ZN13CPLStringList16EnsureAllocationEi
   fun:_ZN13CPLStringList17AddStringDirectlyEPc
   fun:_ZN23GDALMultiDomainMetadata15SetMetadataItemEPKcS1_S1_
   fun:GDALRegister_mrf
   fun:GDALAllRegister
   fun:_ZN11CSimulation27bCheckRasterGISOutputFormatEv
   fun:_ZN11CSimulation13nDoSimulationEiPPKc
   fun:main
}
{
   <insert_a_suppression_name_here>
   Memcheck:Leak
   match-leak-kinds: reachable
   fun:calloc
   fun:VSICallocVerbose
   fun:_ZN13CPLStringList16EnsureAllocationEi
   fun:_ZN13CPLStringList17AddStringDirectlyEPc
   fun:_ZN23GDALMultiDomainMetadata15SetMetadataItemEPKcS1_S1_
   fun:GDALRegister_PNM
   fun:GDALRegister_raw_no_sidecar
   fun:GDALAllRegister
   fun:_ZN11CSimulation27bCheckRasterGISOutputFormatEv
   fun:_ZN11CSimulation13nDoSimulationEiPPKc
   fun:main
}
{
   <insert_a_suppression_name_here>
   Memcheck:Leak
   match-leak-kinds: reachable
   fun:calloc
   fun:VSICallocVerbose
   fun:_ZN13CPLStringList16EnsureAllocationEi
   fun:_ZN13CPLStringList17AddStringDirectlyEPc
   fun:_ZN23GDALMultiDomainMetadata15SetMetadataItemEPKcS1_S1_
   fun:GDALRegister_DOQ1
   fun:GDALRegister_raw_no_sidecar
   fun:GDALAllRegister
   fun:_ZN11CSimulation27bCheckRasterGISOutputFormatEv
   fun:_ZN11CSimulation13nDoSimulationEiPPKc
   fun:main
}
{
   <insert_a_suppression_name_here>
   Memcheck:Leak
   match-leak-kinds: reachable
   fun:calloc
   fun:VSICallocVerbose
   fun:_ZN13CPLStringList16EnsureAllocationEi
   fun:_ZN13CPLStringList17AddStringDirectlyEPc
   fun:_ZN23GDALMultiDomainMetadata15SetMetadataItemEPKcS1_S1_
   fun:GDALRegister_DOQ2
   fun:GDALRegister_raw_no_sidecar
   fun:GDALAllRegister
   fun:_ZN11CSimulation27bCheckRasterGISOutputFormatEv
   fun:_ZN11CSimulation13nDoSimulationEiPPKc
   fun:main
}
{
   <insert_a_suppression_name_here>
   Memcheck:Leak
   match-leak-kinds: reachable
   fun:calloc
   fun:VSICallocVerbose
   fun:_ZN13CPLStringList16EnsureAllocationEi
   fun:_ZN13CPLStringList17AddStringDirectlyEPc
   fun:_ZN23GDALMultiDomainMetadata15SetMetadataItemEPKcS1_S1_
   fun:GDALRegister_PAux
   fun:GDALRegister_raw_no_sidecar
   fun:GDALAllRegister
   fun:_ZN11CSimulation27bCheckRasterGISOutputFormatEv
   fun:_ZN11CSimulation13nDoSimulationEiPPKc
   fun:main
}
{
   <insert_a_suppression_name_here>
   Memcheck:Leak
   match-leak-kinds: reachable
   fun:calloc
   fun:VSICallocVerbose
   fun:_ZN13CPLStringList16EnsureAllocationEi
   fun:_ZN13CPLStringList17AddStringDirectlyEPc
   fun:_ZN23GDALMultiDomainMetadata15SetMetadataItemEPKcS1_S1_
   fun:GDALRegister_MFF
   fun:GDALRegister_raw_no_sidecar
   fun:GDALAllRegister
   fun:_ZN11CSimulation27bCheckRasterGISOutputFormatEv
   fun:_ZN11CSimulation13nDoSimulationEiPPKc
   fun:main
}
{
   <insert_a_suppression_name_here>
   Memcheck:Leak
   match-leak-kinds: reachable
   fun:calloc
   fun:VSICallocVerbose
   fun:_ZN13CPLStringList16EnsureAllocationEi
   fun:_ZN13CPLStringList17AddStringDirectlyEPc
   fun:_ZN23GDALMultiDomainMetadata15SetMetadataItemEPKcS1_S1_
   fun:GDALRegister_HKV
   fun:GDALRegister_raw_no_sidecar
   fun:GDALAllRegister
   fun:_ZN11CSimulation27bCheckRasterGISOutputFormatEv
   fun:_ZN11CSimulation13nDoSimulationEiPPKc
   fun:main
}
{
   <insert_a_suppression_name_here>
   Memcheck:Leak
   match-leak-kinds: reachable
   fun:calloc
   fun:VSICallocVerbose
   fun:_ZN13CPLStringList16EnsureAllocationEi
   fun:_ZN13CPLStringList17AddStringDirectlyEPc
   fun:_ZN23GDALMultiDomainMetadata15SetMetadataItemEPKcS1_S1_
   fun:GDALRegister_GSC
   fun:GDALRegister_raw_no_sidecar
   fun:GDALAllRegister
   fun:_ZN11CSimulation27bCheckRasterGISOutputFormatEv
   fun:_ZN11CSimulation13nDoSimulationEiPPKc
   fun:main
}
{
   <insert_a_suppression_name_here>
   Memcheck:Leak
   match-leak-kinds: reachable
   fun:calloc
   fun:VSICallocVerbose
   fun:_ZN13CPLStringList16EnsureAllocationEi
   fun:_ZN13CPLStringList17AddStringDirectlyEPc
   fun:_ZN23GDALMultiDomainMetadata15SetMetadataItemEPKcS1_S1_
   fun:GDALRegister_FAST
   fun:GDALRegister_raw_no_sidecar
   fun:GDALAllRegister
   fun:_ZN11CSimulation27bCheckRasterGISOutputFormatEv
   fun:_ZN11CSimulation13nDoSimulationEiPPKc
   fun:main
}
{
   <insert_a_suppression_name_here>
   Memcheck:Leak
   match-leak-kinds: reachable
   fun:calloc
   fun:VSICallocVerbose
   fun:_ZN13CPLStringList16EnsureAllocationEi
   fun:_ZN13CPLStringList17AddStringDirectlyEPc
   fun:_ZN23GDALMultiDomainMetadata15SetMetadataItemEPKcS1_S1_
   fun:GDALRegister_BT
   fun:GDALRegister_raw_no_sidecar
   fun:GDALAllRegister
   fun:_ZN11CSimulation27bCheckRasterGISOutputFormatEv
   fun:_ZN11CSimulation13nDoSimulationEiPPKc
   fun:main
}
{
   <insert_a_suppression_name_here>
   Memcheck:Leak
   match-leak-kinds: reachable
   fun:calloc
   fun:VSICallocVerbose
   fun:_ZN13CPLStringList16EnsureAllocationEi
   fun:_ZN13CPLStringList17AddStringDirectlyEPc
   fun:_ZN23GDALMultiDomainMetadata15SetMetadataItemEPKcS1_S1_
   fun:GDALRegister_LAN
   fun:GDALRegister_raw_no_sidecar
   fun:GDALAllRegister
   fun:_ZN11CSimulation27bCheckRasterGISOutputFormatEv
   fun:_ZN11CSimulation13nDoSimulationEiPPKc
   fun:main
}
{
   <insert_a_suppression_name_here>
   Memcheck:Leak
   match-leak-kinds: reachable
   fun:calloc
   fun:VSICallocVerbose
   fun:_ZN13CPLStringList16EnsureAllocationEi
   fun:_ZN13CPLStringList17AddStringDirectlyEPc
   fun:_ZN23GDALMultiDomainMetadata15SetMetadataItemEPKcS1_S1_
   fun:GDALRegister_CPG
   fun:GDALRegister_raw_no_sidecar
   fun:GDALAllRegister
   fun:_ZN11CSimulation27bCheckRasterGISOutputFormatEv
   fun:_ZN11CSimulation13nDoSimulationEiPPKc
   fun:main
}
{
   <insert_a_suppression_name_here>
   Memcheck:Leak
   match-leak-kinds: reachable
   fun:calloc
   fun:VSICallocVerbose
   fun:_ZN13CPLStringList16EnsureAllocationEi
   fun:_ZN13CPLStringList17AddStringDirectlyEPc
   fun:_ZN23GDALMultiDomainMetadata15SetMetadataItemEPKcS1_S1_
   fun:GDALRegister_NDF
   fun:GDALRegister_raw_no_sidecar
   fun:GDALAllRegister
   fun:_ZN11CSimulation27bCheckRasterGISOutputFormatEv
   fun:_ZN11CSimulation13nDoSimulationEiPPKc
   fun:main
}
{
   <insert_a_suppression_name_here>
   Memcheck:Leak
   match-leak-kinds: reachable
   fun:calloc
   fun:VSICallocVerbose
   fun:_ZN13CPLStringList16EnsureAllocationEi
   fun:_ZN13CPLStringList17AddStringDirectlyEPc
   fun:_ZN23GDALMultiDomainMetadata15SetMetadataItemEPKcS1_S1_
   fun:GDALRegister_EIR
   fun:GDALRegister_raw_no_sidecar
   fun:GDALAllRegister
   fun:_ZN11CSimulation27bCheckRasterGISOutputFormatEv
   fun:_ZN11CSimulation13nDoSimulationEiPPKc
   fun:main
}
{
   <insert_a_suppression_name_here>
   Memcheck:Leak
   match-leak-kinds: reachable
   fun:calloc
   fun:VSICallocVerbose
   fun:_ZN13CPLStringList16EnsureAllocationEi
   fun:_ZN13CPLStringList17AddStringDirectlyEPc
   fun:_ZN23GDALMultiDomainMetadata15SetMetadataItemEPKcS1_S1_
   fun:GDALRegister_DIPEx
   fun:GDALRegister_raw_no_sidecar
   fun:GDALAllRegister
   fun:_ZN11CSimulation27bCheckRasterGISOutputFormatEv
   fun:_ZN11CSimulation13nDoSimulationEiPPKc
   fun:main
}
{
   <insert_a_suppression_name_here>
   Memcheck:Leak
   match-leak-kinds: reachable
   fun:calloc
   fun:VSICallocVerbose
   fun:_ZN13CPLStringList16EnsureAllocationEi
   fun:_ZN13CPLStringList17AddStringDirectlyEPc
   fun:_ZN23GDALMultiDomainMetadata15SetMetadataItemEPKcS1_S1_
   fun:GDALRegister_LCP
   fun:GDALRegister_raw_no_sidecar
   fun:GDALAllRegister
   fun:_ZN11CSimulation27bCheckRasterGISOutputFormatEv
   fun:_ZN11CSimulation13nDoSimulationEiPPKc
   fun:main
}
{
   <insert_a_suppression_name_here>
   Memcheck:Leak
   match-leak-kinds: reachable
   fun:calloc
   fun:VSICallocVerbose
   fun:_ZN13CPLStringList16EnsureAllocationEi
   fun:_ZN13CPLStringList17AddStringDirectlyEPc
   fun:_ZN23GDALMultiDomainMetadata15SetMetadataItemEPKcS1_S1_
   fun:GDALRegister_GTX
   fun:GDALRegister_raw_no_sidecar
   fun:GDALAllRegister
   fun:_ZN11CSimulation27bCheckRasterGISOutputFormatEv
   fun:_ZN11CSimulation13nDoSimulationEiPPKc
   fun:main
}
{
   <insert_a_suppression_name_here>
   Memcheck:Leak
   match-leak-kinds: reachable
   fun:calloc
   fun:VSICallocVerbose
   fun:_ZN13CPLStringList16EnsureAllocationEi
   fun:_ZN13CPLStringList17AddStringDirectlyEPc
   fun:_ZN23GDALMultiDomainMetadata15SetMetadataItemEPKcS1_S1_
   fun:GDALRegister_LOSLAS
   fun:GDALRegister_raw_no_sidecar
   fun:GDALAllRegister
   fun:_ZN11CSimulation27bCheckRasterGISOutputFormatEv
   fun:_ZN11CSimulation13nDoSimulationEiPPKc
   fun:main
}
{
   <insert_a_suppression_name_here>
   Memcheck:Leak
   match-leak-kinds: reachable
   fun:calloc
   fun:VSICallocVerbose
   fun:_ZN13CPLStringList16EnsureAllocationEi
   fun:_ZN13CPLStringList17AddStringDirectlyEPc
   fun:_ZN23GDALMultiDomainMetadata15SetMetadataItemEPKcS1_S1_
   fun:GDALRegister_NTv2
   fun:GDALRegister_raw_no_sidecar
   fun:GDALAllRegister
   fun:_ZN11CSimulation27bCheckRasterGISOutputFormatEv
   fun:_ZN11CSimulation13nDoSimulationEiPPKc
   fun:main
}
{
   <insert_a_suppression_name_here>
   Memcheck:Leak
   match-leak-kinds: reachable
   fun:calloc
   fun:VSICallocVerbose
   fun:_ZN13CPLStringList16EnsureAllocationEi
   fun:_ZN13CPLStringList17AddStringDirectlyEPc
   fun:_ZN23GDALMultiDomainMetadata15SetMetadataItemEPKcS1_S1_
   fun:GDALRegister_CTable2
   fun:GDALRegister_raw_no_sidecar
   fun:GDALAllRegister
   fun:_ZN11CSimulation27bCheckRasterGISOutputFormatEv
   fun:_ZN11CSimulation13nDoSimulationEiPPKc
   fun:main
}
{
   <insert_a_suppression_name_here>
   Memcheck:Leak
   match-leak-kinds: reachable
   fun:calloc
   fun:VSICallocVerbose
   fun:_ZN13CPLStringList16EnsureAllocationEi
   fun:_ZN13CPLStringList17AddStringDirectlyEPc
   fun:_ZN23GDALMultiDomainMetadata15SetMetadataItemEPKcS1_S1_
   fun:GDALRegister_ACE2
   fun:GDALRegister_raw_no_sidecar
   fun:GDALAllRegister
   fun:_ZN11CSimulation27bCheckRasterGISOutputFormatEv
   fun:_ZN11CSimulation13nDoSimulationEiPPKc
   fun:main
}
{
   <insert_a_suppression_name_here>
   Memcheck:Leak
   match-leak-kinds: reachable
   fun:calloc
   fun:VSICallocVerbose
   fun:_ZN13CPLStringList16EnsureAllocationEi
   fun:_ZN13CPLStringList17AddStringDirectlyEPc
   fun:_ZN23GDALMultiDomainMetadata15SetMetadataItemEPKcS1_S1_
   fun:GDALRegister_SNODAS
   fun:GDALRegister_raw_no_sidecar
   fun:GDALAllRegister
   fun:_ZN11CSimulation27bCheckRasterGISOutputFormatEv
   fun:_ZN11CSimulation13nDoSimulationEiPPKc
   fun:main
}
{
   <insert_a_suppression_name_here>
   Memcheck:Leak
   match-leak-kinds: reachable
   fun:calloc
   fun:VSICallocVerbose
   fun:_ZN13CPLStringList16EnsureAllocationEi
   fun:_ZN13CPLStringList17AddStringDirectlyEPc
   fun:_ZN23GDALMultiDomainMetadata15SetMetadataItemEPKcS1_S1_
   fun:GDALRegister_KRO
   fun:GDALRegister_raw_no_sidecar
   fun:GDALAllRegister
   fun:_ZN11CSimulation27bCheckRasterGISOutputFormatEv
   fun:_ZN11CSimulation13nDoSimulationEiPPKc
   fun:main
}
{
   <insert_a_suppression_name_here>
   Memcheck:Leak
   match-leak-kinds: reachable
   fun:calloc
   fun:VSICallocVerbose
   fun:_ZN13CPLStringList16EnsureAllocationEi
   fun:_ZN13CPLStringList17AddStringDirectlyEPc
   fun:_ZN23GDALMultiDomainMetadata15SetMetadataItemEPKcS1_S1_
   fun:GDALRegister_ROIPAC
   fun:GDALRegister_raw_no_sidecar
   fun:GDALAllRegister
   fun:_ZN11CSimulation27bCheckRasterGISOutputFormatEv
   fun:_ZN11CSimulation13nDoSimulationEiPPKc
   fun:main
}
{
   <insert_a_suppression_name_here>
   Memcheck:Leak
   match-leak-kinds: reachable
   fun:calloc
   fun:VSICallocVerbose
   fun:_ZN13CPLStringList16EnsureAllocationEi
   fun:_ZN13CPLStringList17AddStringDirectlyEPc
   fun:_ZN23GDALMultiDomainMetadata15SetMetadataItemEPKcS1_S1_
   fun:GDALRegister_RRASTER
   fun:GDALRegister_raw_no_sidecar
   fun:GDALAllRegister
   fun:_ZN11CSimulation27bCheckRasterGISOutputFormatEv
   fun:_ZN11CSimulation13nDoSimulationEiPPKc
   fun:main
}
{
   <insert_a_suppression_name_here>
   Memcheck:Leak
   match-leak-kinds: reachable
   fun:calloc
   fun:VSICallocVerbose
   fun:_ZN13CPLStringList16EnsureAllocationEi
   fun:_ZN13CPLStringList17AddStringDirectlyEPc
   fun:_ZN23GDALMultiDomainMetadata15SetMetadataItemEPKcS1_S1_
   fun:GDALRegister_BYN
   fun:GDALRegister_raw_no_sidecar
   fun:GDALAllRegister
   fun:_ZN11CSimulation27bCheckRasterGISOutputFormatEv
   fun:_ZN11CSimulation13nDoSimulationEiPPKc
   fun:main
}
{
   <insert_a_suppression_name_here>
   Memcheck:Leak
   match-leak-kinds: reachable
   fun:calloc
   fun:VSICallocVerbose
   fun:_ZN13CPLStringList16EnsureAllocationEi
   fun:_ZN13CPLStringList17AddStringDirectlyEPc
   fun:_ZN23GDALMultiDomainMetadata15SetMetadataItemEPKcS1_S1_
   fun:GDALRegister_NOAA_B
   fun:GDALRegister_raw_no_sidecar
   fun:GDALAllRegister
   fun:_ZN11CSimulation27bCheckRasterGISOutputFormatEv
   fun:_ZN11CSimulation13nDoSimulationEiPPKc
   fun:main
}
{
   <insert_a_suppression_name_here>
   Memcheck:Leak
   match-leak-kinds: reachable
   fun:calloc
   fun:VSICallocVerbose
   fun:_ZN13CPLStringList16EnsureAllocationEi
   fun:_ZN13CPLStringList17AddStringDirectlyEPc
   fun:_ZN23GDALMultiDomainMetadata15SetMetadataItemEPKcS1_S1_
   fun:GDALRegister_NSIDCbin
   fun:GDALAllRegister
   fun:_ZN11CSimulation27bCheckRasterGISOutputFormatEv
   fun:_ZN11CSimulation13nDoSimulationEiPPKc
   fun:main
}
{
   <insert_a_suppression_name_here>
   Memcheck:Leak
   match-leak-kinds: reachable
   fun:calloc
   fun:VSICallocVerbose
   fun:_ZN13CPLStringList16EnsureAllocationEi
   fun:_ZN13CPLStringList17AddStringDirectlyEPc
   fun:_ZN23GDALMultiDomainMetadata15SetMetadataItemEPKcS1_S1_
   fun:GDALRegister_RIK
   fun:GDALAllRegister
   fun:_ZN11CSimulation27bCheckRasterGISOutputFormatEv
   fun:_ZN11CSimulation13nDoSimulationEiPPKc
   fun:main
}
{
   <insert_a_suppression_name_here>
   Memcheck:Leak
   match-leak-kinds: reachable
   fun:calloc
   fun:VSICallocVerbose
   fun:_ZN13CPLStringList16EnsureAllocationEi
   fun:_ZN13CPLStringList17AddStringDirectlyEPc
   fun:_ZN23GDALMultiDomainMetadata15SetMetadataItemEPKcS1_S1_
   fun:GDALRegister_USGSDEM
   fun:GDALAllRegister
   fun:_ZN11CSimulation27bCheckRasterGISOutputFormatEv
   fun:_ZN11CSimulation13nDoSimulationEiPPKc
   fun:main
}
{
   <insert_a_suppression_name_here>
   Memcheck:Leak
   match-leak-kinds: reachable
   fun:calloc
   fun:VSICallocVerbose
   fun:_ZN13CPLStringList16EnsureAllocationEi
   fun:_ZN13CPLStringList17AddStringDirectlyEPc
   fun:_ZN23GDALMultiDomainMetadata15SetMetadataItemEPKcS1_S1_
   fun:GDALRegister_GXF
   fun:GDALAllRegister
   fun:_ZN11CSimulation27bCheckRasterGISOutputFormatEv
   fun:_ZN11CSimulation13nDoSimulationEiPPKc
   fun:main
}
{
   <insert_a_suppression_name_here>
   Memcheck:Leak
   match-leak-kinds: reachable
   fun:calloc
   fun:VSICallocVerbose
   fun:_ZN13CPLStringList16EnsureAllocationEi
   fun:_ZN13CPLStringList17AddStringDirectlyEPc
   fun:_ZN23GDALMultiDomainMetadata15SetMetadataItemEPKcS1_S1_
   fun:GDALRegister_BAG
   fun:GDALAllRegister
   fun:_ZN11CSimulation27bCheckRasterGISOutputFormatEv
   fun:_ZN11CSimulation13nDoSimulationEiPPKc
   fun:main
}
{
   <insert_a_suppression_name_here>
   Memcheck:Leak
   match-leak-kinds: reachable
   fun:calloc
   fun:VSICallocVerbose
   fun:_ZN13CPLStringList16EnsureAllocationEi
   fun:_ZN13CPLStringList17AddStringDirectlyEPc
   fun:_ZN23GDALMultiDomainMetadata15SetMetadataItemEPKcS1_S1_
   fun:GDALRegister_S102
   fun:GDALAllRegister
   fun:_ZN11CSimulation27bCheckRasterGISOutputFormatEv
   fun:_ZN11CSimulation13nDoSimulationEiPPKc
   fun:main
}
{
   <insert_a_suppression_name_here>
   Memcheck:Leak
   match-leak-kinds: reachable
   fun:calloc
   fun:VSICallocVerbose
   fun:_ZN13CPLStringList16EnsureAllocationEi
   fun:_ZN13CPLStringList17AddStringDirectlyEPc
   fun:_ZN23GDALMultiDomainMetadata15SetMetadataItemEPKcS1_S1_
   fun:GDALRegister_S104
   fun:GDALAllRegister
   fun:_ZN11CSimulation27bCheckRasterGISOutputFormatEv
   fun:_ZN11CSimulation13nDoSimulationEiPPKc
   fun:main
}
{
   <insert_a_suppression_name_here>
   Memcheck:Leak
   match-leak-kinds: reachable
   fun:calloc
   fun:VSICallocVerbose
   fun:_ZN13CPLStringList16EnsureAllocationEi
   fun:_ZN13CPLStringList17AddStringDirectlyEPc
   fun:_ZN23GDALMultiDomainMetadata15SetMetadataItemEPKcS1_S1_
   fun:GDALRegister_S111
   fun:GDALAllRegister
   fun:_ZN11CSimulation27bCheckRasterGISOutputFormatEv
   fun:_ZN11CSimulation13nDoSimulationEiPPKc
   fun:main
}
{
   <insert_a_suppression_name_here>
   Memcheck:Leak
   match-leak-kinds: reachable
   fun:calloc
   fun:VSICallocVerbose
   fun:_ZN13CPLStringList16EnsureAllocationEi
   fun:_ZN13CPLStringList17AddStringDirectlyEPc
   fun:_ZN23GDALMultiDomainMetadata15SetMetadataItemEPKcS1_S1_
   fun:GDALRegister_HDF5
   fun:GDALAllRegister
   fun:_ZN11CSimulation27bCheckRasterGISOutputFormatEv
   fun:_ZN11CSimulation13nDoSimulationEiPPKc
   fun:main
}
{
   <insert_a_suppression_name_here>
   Memcheck:Leak
   match-leak-kinds: reachable
   fun:calloc
   fun:VSICallocVerbose
   fun:_ZN13CPLStringList16EnsureAllocationEi
   fun:_ZN13CPLStringList17AddStringDirectlyEPc
   fun:_ZN23GDALMultiDomainMetadata15SetMetadataItemEPKcS1_S1_
   fun:GDALRegister_HDF5Image
   fun:GDALAllRegister
   fun:_ZN11CSimulation27bCheckRasterGISOutputFormatEv
   fun:_ZN11CSimulation13nDoSimulationEiPPKc
   fun:main
}
{
   <insert_a_suppression_name_here>
   Memcheck:Leak
   match-leak-kinds: reachable
   fun:calloc
   fun:VSICallocVerbose
   fun:_ZN13CPLStringList16EnsureAllocationEi
   fun:_ZN13CPLStringList17AddStringDirectlyEPc
   fun:_ZN23GDALMultiDomainMetadata15SetMetadataItemEPKcS1_S1_
   fun:GDALRegister_NWT_GRD
   fun:GDALAllRegister
   fun:_ZN11CSimulation27bCheckRasterGISOutputFormatEv
   fun:_ZN11CSimulation13nDoSimulationEiPPKc
   fun:main
}
{
   <insert_a_suppression_name_here>
   Memcheck:Leak
   match-leak-kinds: reachable
   fun:calloc
   fun:VSICallocVerbose
   fun:_ZN13CPLStringList16EnsureAllocationEi
   fun:_ZN13CPLStringList17AddStringDirectlyEPc
   fun:_ZN23GDALMultiDomainMetadata15SetMetadataItemEPKcS1_S1_
   fun:GDALRegister_NWT_GRC
   fun:GDALAllRegister
   fun:_ZN11CSimulation27bCheckRasterGISOutputFormatEv
   fun:_ZN11CSimulation13nDoSimulationEiPPKc
   fun:main
}
{
   <insert_a_suppression_name_here>
   Memcheck:Leak
   match-leak-kinds: reachable
   fun:calloc
   fun:VSICallocVerbose
   fun:_ZN13CPLStringList16EnsureAllocationEi
   fun:_ZN13CPLStringList17AddStringDirectlyEPc
   fun:_ZN23GDALMultiDomainMetadata15SetMetadataItemEPKcS1_S1_
   fun:GDALRegister_ADRG
   fun:GDALAllRegister
   fun:_ZN11CSimulation27bCheckRasterGISOutputFormatEv
   fun:_ZN11CSimulation13nDoSimulationEiPPKc
   fun:main
}
{
   <insert_a_suppression_name_here>
   Memcheck:Leak
   match-leak-kinds: reachable
   fun:calloc
   fun:VSICallocVerbose
   fun:_ZN13CPLStringList16EnsureAllocationEi
   fun:_ZN13CPLStringList17AddStringDirectlyEPc
   fun:_ZN23GDALMultiDomainMetadata15SetMetadataItemEPKcS1_S1_
   fun:GDALRegister_SRP
   fun:GDALAllRegister
   fun:_ZN11CSimulation27bCheckRasterGISOutputFormatEv
   fun:_ZN11CSimulation13nDoSimulationEiPPKc
   fun:main
}
{
   <insert_a_suppression_name_here>
   Memcheck:Leak
   match-leak-kinds: reachable
   fun:calloc
   fun:VSICallocVerbose
   fun:_ZN13CPLStringList16EnsureAllocationEi
   fun:_ZN13CPLStringList17AddStringDirectlyEPc
   fun:_ZN23GDALMultiDomainMetadata15SetMetadataItemEPKcS1_S1_
   fun:GDALRegister_BLX
   fun:GDALAllRegister
   fun:_ZN11CSimulation27bCheckRasterGISOutputFormatEv
   fun:_ZN11CSimulation13nDoSimulationEiPPKc
   fun:main
}
{
   <insert_a_suppression_name_here>
   Memcheck:Leak
   match-leak-kinds: reachable
   fun:calloc
   fun:VSICallocVerbose
   fun:_ZN13CPLStringList16EnsureAllocationEi
   fun:_ZN13CPLStringList17AddStringDirectlyEPc
   fun:_ZN23GDALMultiDomainMetadata15SetMetadataItemEPKcS1_S1_
   fun:GDALRegister_PostGISRaster
   fun:GDALAllRegister
   fun:_ZN11CSimulation27bCheckRasterGISOutputFormatEv
   fun:_ZN11CSimulation13nDoSimulationEiPPKc
   fun:main
}
{
   <insert_a_suppression_name_here>
   Memcheck:Leak
   match-leak-kinds: reachable
   fun:calloc
   fun:VSICallocVerbose
   fun:_ZN13CPLStringList16EnsureAllocationEi
   fun:_ZN13CPLStringList17AddStringDirectlyEPc
   fun:_ZN23GDALMultiDomainMetadata15SetMetadataItemEPKcS1_S1_
   fun:GDALRegister_SAGA
   fun:GDALAllRegister
   fun:_ZN11CSimulation27bCheckRasterGISOutputFormatEv
   fun:_ZN11CSimulation13nDoSimulationEiPPKc
   fun:main
}
{
   <insert_a_suppression_name_here>
   Memcheck:Leak
   match-leak-kinds: reachable
   fun:calloc
   fun:VSICallocVerbose
   fun:_ZN13CPLStringList16EnsureAllocationEi
   fun:_ZN13CPLStringList17AddStringDirectlyEPc
   fun:_ZN23GDALMultiDomainMetadata15SetMetadataItemEPKcS1_S1_
   fun:GDALRegister_XYZ
   fun:GDALAllRegister
   fun:_ZN11CSimulation27bCheckRasterGISOutputFormatEv
   fun:_ZN11CSimulation13nDoSimulationEiPPKc
   fun:main
}
{
   <insert_a_suppression_name_here>
   Memcheck:Leak
   match-leak-kinds: reachable
   fun:calloc
   fun:VSICallocVerbose
   fun:_ZN13CPLStringList16EnsureAllocationEi
   fun:_ZN13CPLStringList17AddStringDirectlyEPc
   fun:_ZN23GDALMultiDomainMetadata15SetMetadataItemEPKcS1_S1_
   fun:GDALRegister_HF2
   fun:GDALAllRegister
   fun:_ZN11CSimulation27bCheckRasterGISOutputFormatEv
   fun:_ZN11CSimulation13nDoSimulationEiPPKc
   fun:main
}
{
   <insert_a_suppression_name_here>
   Memcheck:Leak
   match-leak-kinds: reachable
   fun:calloc
   fun:VSICallocVerbose
   fun:_ZN13CPLStringList16EnsureAllocationEi
   fun:_ZN13CPLStringList17AddStringDirectlyEPc
   fun:_ZN23GDALMultiDomainMetadata15SetMetadataItemEPKcS1_S1_
   fun:GDALRegister_OZI
   fun:GDALAllRegister
   fun:_ZN11CSimulation27bCheckRasterGISOutputFormatEv
   fun:_ZN11CSimulation13nDoSimulationEiPPKc
   fun:main
}
{
   <insert_a_suppression_name_here>
   Memcheck:Leak
   match-leak-kinds: reachable
   fun:calloc
   fun:VSICallocVerbose
   fun:_ZN13CPLStringList16EnsureAllocationEi
   fun:_ZN13CPLStringList17AddStringDirectlyEPc
   fun:_ZN23GDALMultiDomainMetadata15SetMetadataItemEPKcS1_S1_
   fun:GDALRegister_CTG
   fun:GDALAllRegister
   fun:_ZN11CSimulation27bCheckRasterGISOutputFormatEv
   fun:_ZN11CSimulation13nDoSimulationEiPPKc
   fun:main
}
{
   <insert_a_suppression_name_here>
   Memcheck:Leak
   match-leak-kinds: reachable
   fun:calloc
   fun:VSICallocVerbose
   fun:_ZN13CPLStringList16EnsureAllocationEi
   fun:_ZN13CPLStringList17AddStringDirectlyEPc
   fun:_ZN23GDALMultiDomainMetadata15SetMetadataItemEPKcS1_S1_
   fun:GDALRegister_ZMap
   fun:GDALAllRegister
   fun:_ZN11CSimulation27bCheckRasterGISOutputFormatEv
   fun:_ZN11CSimulation13nDoSimulationEiPPKc
   fun:main
}
{
   <insert_a_suppression_name_here>
   Memcheck:Leak
   match-leak-kinds: reachable
   fun:calloc
   fun:VSICallocVerbose
   fun:_ZN13CPLStringList16EnsureAllocationEi
   fun:_ZN13CPLStringList17AddStringDirectlyEPc
   fun:_ZN23GDALMultiDomainMetadata15SetMetadataItemEPKcS1_S1_
   fun:GDALRegister_NGSGEOID
   fun:GDALAllRegister
   fun:_ZN11CSimulation27bCheckRasterGISOutputFormatEv
   fun:_ZN11CSimulation13nDoSimulationEiPPKc
   fun:main
}
{
   <insert_a_suppression_name_here>
   Memcheck:Leak
   match-leak-kinds: reachable
   fun:calloc
   fun:VSICallocVerbose
   fun:_ZN13CPLStringList16EnsureAllocationEi
   fun:_ZN13CPLStringList17AddStringDirectlyEPc
   fun:_ZN23GDALMultiDomainMetadata15SetMetadataItemEPKcS1_S1_
   fun:GDALRegister_IRIS
   fun:GDALAllRegister
   fun:_ZN11CSimulation27bCheckRasterGISOutputFormatEv
   fun:_ZN11CSimulation13nDoSimulationEiPPKc
   fun:main
}
{
   <insert_a_suppression_name_here>
   Memcheck:Leak
   match-leak-kinds: reachable
   fun:calloc
   fun:VSICallocVerbose
   fun:_ZN13CPLStringList16EnsureAllocationEi
   fun:_ZN13CPLStringList17AddStringDirectlyEPc
   fun:_ZN23GDALMultiDomainMetadata15SetMetadataItemEPKcS1_S1_
   fun:GDALRegister_PRF
   fun:GDALAllRegister
   fun:_ZN11CSimulation27bCheckRasterGISOutputFormatEv
   fun:_ZN11CSimulation13nDoSimulationEiPPKc
   fun:main
}
{
   <insert_a_suppression_name_here>
   Memcheck:Leak
   match-leak-kinds: reachable
   fun:calloc
   fun:VSICallocVerbose
   fun:_ZN13CPLStringList16EnsureAllocationEi
   fun:_ZN13CPLStringList17AddStringDirectlyEPc
   fun:_ZN23GDALMultiDomainMetadata15SetMetadataItemEPKcS1_S1_
   fun:GDALRegister_EEDAI
   fun:GDALAllRegister
   fun:_ZN11CSimulation27bCheckRasterGISOutputFormatEv
   fun:_ZN11CSimulation13nDoSimulationEiPPKc
   fun:main
}
{
   <insert_a_suppression_name_here>
   Memcheck:Leak
   match-leak-kinds: reachable
   fun:calloc
   fun:VSICallocVerbose
   fun:_ZN13CPLStringList16EnsureAllocationEi
   fun:_ZN13CPLStringList17AddStringDirectlyEPc
   fun:_ZN23GDALMultiDomainMetadata15SetMetadataItemEPKcS1_S1_
   fun:GDALRegister_EEDA
   fun:GDALAllRegister
   fun:_ZN11CSimulation27bCheckRasterGISOutputFormatEv
   fun:_ZN11CSimulation13nDoSimulationEiPPKc
   fun:main
}
{
   <insert_a_suppression_name_here>
   Memcheck:Leak
   match-leak-kinds: reachable
   fun:calloc
   fun:VSICallocVerbose
   fun:_ZN13CPLStringList16EnsureAllocationEi
   fun:_ZN13CPLStringList17AddStringDirectlyEPc
   fun:_ZN23GDALMultiDomainMetadata15SetMetadataItemEPKcS1_S1_
   fun:GDALRegister_DAAS
   fun:GDALAllRegister
   fun:_ZN11CSimulation27bCheckRasterGISOutputFormatEv
   fun:_ZN11CSimulation13nDoSimulationEiPPKc
   fun:main
}
{
   <insert_a_suppression_name_here>
   Memcheck:Leak
   match-leak-kinds: reachable
   fun:calloc
   fun:VSICallocVerbose
   fun:_ZN13CPLStringList16EnsureAllocationEi
   fun:_ZN13CPLStringList17AddStringDirectlyEPc
   fun:_ZN23GDALMultiDomainMetadata15SetMetadataItemEPKcS1_S1_
   fun:GDALRegister_SIGDEM
   fun:GDALAllRegister
   fun:_ZN11CSimulation27bCheckRasterGISOutputFormatEv
   fun:_ZN11CSimulation13nDoSimulationEiPPKc
   fun:main
}
{
   <insert_a_suppression_name_here>
   Memcheck:Leak
   match-leak-kinds: reachable
   fun:calloc
   fun:VSICallocVerbose
   fun:_ZN13CPLStringList16EnsureAllocationEi
   fun:_ZN13CPLStringList17AddStringDirectlyEPc
   fun:_ZN23GDALMultiDomainMetadata15SetMetadataItemEPKcS1_S1_
   obj:/usr/lib/x86_64-linux-gnu/libgdal.so.36.3.10.2
   fun:GDALRegister_AVIF
   fun:GDALAllRegister
   fun:_ZN11CSimulation27bCheckRasterGISOutputFormatEv
   fun:_ZN11CSimulation13nDoSimulationEiPPKc
   fun:main
}
{
   <insert_a_suppression_name_here>
   Memcheck:Leak
   match-leak-kinds: reachable
   fun:calloc
   fun:VSICallocVerbose
   fun:_ZN13CPLStringList16EnsureAllocationEi
   fun:_ZN13CPLStringList17AddStringDirectlyEPc
   fun:_ZN23GDALMultiDomainMetadata15SetMetadataItemEPKcS1_S1_
   fun:GDALRegister_HEIF
   fun:GDALAllRegister
   fun:_ZN11CSimulation27bCheckRasterGISOutputFormatEv
   fun:_ZN11CSimulation13nDoSimulationEiPPKc
   fun:main
}
{
   <insert_a_suppression_name_here>
   Memcheck:Leak
   match-leak-kinds: reachable
   fun:calloc
   fun:VSICallocVerbose
   fun:_ZN13CPLStringList16EnsureAllocationEi
   fun:_ZN13CPLStringList17AddStringDirectlyEPc
   fun:_ZN23GDALMultiDomainMetadata15SetMetadataItemEPKcS1_S1_
   fun:GDALRegister_TGA
   fun:GDALAllRegister
   fun:_ZN11CSimulation27bCheckRasterGISOutputFormatEv
   fun:_ZN11CSimulation13nDoSimulationEiPPKc
   fun:main
}
{
   <insert_a_suppression_name_here>
   Memcheck:Leak
   match-leak-kinds: reachable
   fun:calloc
   fun:VSICallocVerbose
   fun:_ZN13CPLStringList16EnsureAllocationEi
   fun:_ZN13CPLStringList17AddStringDirectlyEPc
   fun:_ZN23GDALMultiDomainMetadata15SetMetadataItemEPKcS1_S1_
   fun:GDALRegister_OGCAPI
   fun:GDALAllRegister
   fun:_ZN11CSimulation27bCheckRasterGISOutputFormatEv
   fun:_ZN11CSimulation13nDoSimulationEiPPKc
   fun:main
}
{
   <insert_a_suppression_name_here>
   Memcheck:Leak
   match-leak-kinds: reachable
   fun:calloc
   fun:VSICallocVerbose
   fun:_ZN13CPLStringList16EnsureAllocationEi
   fun:_ZN13CPLStringList17AddStringDirectlyEPc
   fun:_ZN23GDALMultiDomainMetadata15SetMetadataItemEPKcS1_S1_
   fun:GDALRegister_STACTA
   fun:GDALAllRegister
   fun:_ZN11CSimulation27bCheckRasterGISOutputFormatEv
   fun:_ZN11CSimulation13nDoSimulationEiPPKc
   fun:main
}
{
   <insert_a_suppression_name_here>
   Memcheck:Leak
   match-leak-kinds: reachable
   fun:calloc
   fun:VSICallocVerbose
   fun:_ZN13CPLStringList16EnsureAllocationEi
   fun:_ZN13CPLStringList17AddStringDirectlyEPc
   fun:_ZN23GDALMultiDomainMetadata15SetMetadataItemEPKcS1_S1_
   fun:GDALRegister_STACIT
   fun:GDALAllRegister
   fun:_ZN11CSimulation27bCheckRasterGISOutputFormatEv
   fun:_ZN11CSimulation13nDoSimulationEiPPKc
   fun:main
}
{
   <insert_a_suppression_name_here>
   Memcheck:Leak
   match-leak-kinds: reachable
   fun:calloc
   fun:VSICallocVerbose
   fun:_ZN13CPLStringList16EnsureAllocationEi
   fun:_ZN13CPLStringList17AddStringDirectlyEPc
   fun:_ZN23GDALMultiDomainMetadata15SetMetadataItemEPKcS1_S1_
   fun:RegisterGNMFile
   fun:GDALAllRegister
   fun:_ZN11CSimulation27bCheckRasterGISOutputFormatEv
   fun:_ZN11CSimulation13nDoSimulationEiPPKc
   fun:main
}
{
   <insert_a_suppression_name_here>
   Memcheck:Leak
   match-leak-kinds: reachable
   fun:calloc
   fun:VSICallocVerbose
   fun:_ZN13CPLStringList16EnsureAllocationEi
   fun:_ZN13CPLStringList17AddStringDirectlyEPc
   fun:_ZN23GDALMultiDomainMetadata15SetMetadataItemEPKcS1_S1_
   fun:RegisterGNMDatabase
   fun:GDALAllRegister
   fun:_ZN11CSimulation27bCheckRasterGISOutputFormatEv
   fun:_ZN11CSimulation13nDoSimulationEiPPKc
   fun:main
}
{
   <insert_a_suppression_name_here>
   Memcheck:Leak
   match-leak-kinds: reachable
   fun:calloc
   fun:VSICallocVerbose
   fun:_ZN13CPLStringList16EnsureAllocationEi
   fun:_ZN13CPLStringList17AddStringDirectlyEPc
   fun:_ZN23GDALMultiDomainMetadata15SetMetadataItemEPKcS1_S1_
   fun:RegisterOGRShape
   fun:GDALAllRegister
   fun:_ZN11CSimulation27bCheckRasterGISOutputFormatEv
   fun:_ZN11CSimulation13nDoSimulationEiPPKc
   fun:main
}
{
   <insert_a_suppression_name_here>
   Memcheck:Leak
   match-leak-kinds: reachable
   fun:calloc
   fun:VSICallocVerbose
   fun:_ZN13CPLStringList16EnsureAllocationEi
   fun:_ZN13CPLStringList17AddStringDirectlyEPc
   fun:_ZN23GDALMultiDomainMetadata15SetMetadataItemEPKcS1_S1_
   fun:RegisterOGRTAB
   fun:GDALAllRegister
   fun:_ZN11CSimulation27bCheckRasterGISOutputFormatEv
   fun:_ZN11CSimulation13nDoSimulationEiPPKc
   fun:main
}
{
   <insert_a_suppression_name_here>
   Memcheck:Leak
   match-leak-kinds: reachable
   fun:calloc
   fun:VSICallocVerbose
   fun:_ZN13CPLStringList16EnsureAllocationEi
   fun:_ZN13CPLStringList17AddStringDirectlyEPc
   fun:_ZN23GDALMultiDomainMetadata15SetMetadataItemEPKcS1_S1_
   fun:RegisterOGRNTF
   fun:GDALAllRegister
   fun:_ZN11CSimulation27bCheckRasterGISOutputFormatEv
   fun:_ZN11CSimulation13nDoSimulationEiPPKc
   fun:main
}
{
   <insert_a_suppression_name_here>
   Memcheck:Leak
   match-leak-kinds: reachable
   fun:calloc
   fun:VSICallocVerbose
   fun:_ZN13CPLStringList16EnsureAllocationEi
   fun:_ZN13CPLStringList17AddStringDirectlyEPc
   fun:_ZN23GDALMultiDomainMetadata15SetMetadataItemEPKcS1_S1_
   fun:RegisterOGRLVBAG
   fun:GDALAllRegister
   fun:_ZN11CSimulation27bCheckRasterGISOutputFormatEv
   fun:_ZN11CSimulation13nDoSimulationEiPPKc
   fun:main
}
{
   <insert_a_suppression_name_here>
   Memcheck:Leak
   match-leak-kinds: reachable
   fun:calloc
   fun:VSICallocVerbose
   fun:_ZN13CPLStringList16EnsureAllocationEi
   fun:_ZN13CPLStringList17AddStringDirectlyEPc
   fun:_ZN23GDALMultiDomainMetadata15SetMetadataItemEPKcS1_S1_
   fun:RegisterOGRSDTS
   fun:GDALAllRegister
   fun:_ZN11CSimulation27bCheckRasterGISOutputFormatEv
   fun:_ZN11CSimulation13nDoSimulationEiPPKc
   fun:main
}
{
   <insert_a_suppression_name_here>
   Memcheck:Leak
   match-leak-kinds: reachable
   fun:calloc
   fun:VSICallocVerbose
   fun:_ZN13CPLStringList16EnsureAllocationEi
   fun:_ZN13CPLStringList17AddStringDirectlyEPc
   fun:_ZN23GDALMultiDomainMetadata15SetMetadataItemEPKcS1_S1_
   fun:RegisterOGRS57
   fun:GDALAllRegister
   fun:_ZN11CSimulation27bCheckRasterGISOutputFormatEv
   fun:_ZN11CSimulation13nDoSimulationEiPPKc
   fun:main
}
{
   <insert_a_suppression_name_here>
   Memcheck:Leak
   match-leak-kinds: reachable
   fun:calloc
   fun:VSICallocVerbose
   fun:_ZN13CPLStringList16EnsureAllocationEi
   fun:_ZN13CPLStringList17AddStringDirectlyEPc
   fun:_ZN23GDALMultiDomainMetadata15SetMetadataItemEPKcS1_S1_
   fun:RegisterOGRDGN
   fun:GDALAllRegister
   fun:_ZN11CSimulation27bCheckRasterGISOutputFormatEv
   fun:_ZN11CSimulation13nDoSimulationEiPPKc
   fun:main
}
{
   <insert_a_suppression_name_here>
   Memcheck:Leak
   match-leak-kinds: reachable
   fun:calloc
   fun:VSICallocVerbose
   fun:_ZN13CPLStringList16EnsureAllocationEi
   fun:_ZN13CPLStringList17AddStringDirectlyEPc
   fun:_ZN23GDALMultiDomainMetadata15SetMetadataItemEPKcS1_S1_
   fun:RegisterOGRVRT
   fun:GDALAllRegister
   fun:_ZN11CSimulation27bCheckRasterGISOutputFormatEv
   fun:_ZN11CSimulation13nDoSimulationEiPPKc
   fun:main
}
{
   <insert_a_suppression_name_here>
   Memcheck:Leak
   match-leak-kinds: reachable
   fun:calloc
   fun:VSICallocVerbose
   fun:_ZN13CPLStringList16EnsureAllocationEi
   fun:_ZN13CPLStringList17AddStringDirectlyEPc
   fun:_ZN23GDALMultiDomainMetadata15SetMetadataItemEPKcS1_S1_
   fun:RegisterOGRMEM
   fun:GDALAllRegister
   fun:_ZN11CSimulation27bCheckRasterGISOutputFormatEv
   fun:_ZN11CSimulation13nDoSimulationEiPPKc
   fun:main
}
{
   <insert_a_suppression_name_here>
   Memcheck:Leak
   match-leak-kinds: reachable
   fun:calloc
   fun:VSICallocVerbose
   fun:_ZN13CPLStringList16EnsureAllocationEi
   fun:_ZN13CPLStringList17AddStringDirectlyEPc
   fun:_ZN23GDALMultiDomainMetadata15SetMetadataItemEPKcS1_S1_
   fun:RegisterOGRCSV
   fun:GDALAllRegister
   fun:_ZN11CSimulation27bCheckRasterGISOutputFormatEv
   fun:_ZN11CSimulation13nDoSimulationEiPPKc
   fun:main
}
{
   <insert_a_suppression_name_here>
   Memcheck:Leak
   match-leak-kinds: reachable
   fun:calloc
   fun:VSICallocVerbose
   fun:_ZN13CPLStringList16EnsureAllocationEi
   fun:_ZN13CPLStringList17AddStringDirectlyEPc
   fun:_ZN23GDALMultiDomainMetadata15SetMetadataItemEPKcS1_S1_
   fun:RegisterOGRNAS
   fun:GDALAllRegister
   fun:_ZN11CSimulation27bCheckRasterGISOutputFormatEv
   fun:_ZN11CSimulation13nDoSimulationEiPPKc
   fun:main
}
{
   <insert_a_suppression_name_here>
   Memcheck:Leak
   match-leak-kinds: reachable
   fun:calloc
   fun:VSICallocVerbose
   fun:_ZN13CPLStringList16EnsureAllocationEi
   fun:_ZN13CPLStringList17AddStringDirectlyEPc
   fun:_ZN23GDALMultiDomainMetadata15SetMetadataItemEPKcS1_S1_
   fun:RegisterOGRGML
   fun:GDALAllRegister
   fun:_ZN11CSimulation27bCheckRasterGISOutputFormatEv
   fun:_ZN11CSimulation13nDoSimulationEiPPKc
   fun:main
}
{
   <insert_a_suppression_name_here>
   Memcheck:Leak
   match-leak-kinds: reachable
   fun:calloc
   fun:VSICallocVerbose
   fun:_ZN13CPLStringList16EnsureAllocationEi
   fun:_ZN13CPLStringList17AddStringDirectlyEPc
   fun:_ZN23GDALMultiDomainMetadata15SetMetadataItemEPKcS1_S1_
   fun:RegisterOGRGPX
   fun:GDALAllRegister
   fun:_ZN11CSimulation27bCheckRasterGISOutputFormatEv
   fun:_ZN11CSimulation13nDoSimulationEiPPKc
   fun:main
}
{
   <insert_a_suppression_name_here>
   Memcheck:Leak
   match-leak-kinds: reachable
   fun:calloc
   fun:VSICallocVerbose
   fun:_ZN13CPLStringList16EnsureAllocationEi
   fun:_ZN13CPLStringList17AddStringDirectlyEPc
   fun:_ZN23GDALMultiDomainMetadata15SetMetadataItemEPKcS1_S1_
   fun:RegisterOGRLIBKML
   fun:GDALAllRegister
   fun:_ZN11CSimulation27bCheckRasterGISOutputFormatEv
   fun:_ZN11CSimulation13nDoSimulationEiPPKc
   fun:main
}
{
   <insert_a_suppression_name_here>
   Memcheck:Leak
   match-leak-kinds: reachable
   fun:calloc
   fun:VSICallocVerbose
   fun:_ZN13CPLStringList16EnsureAllocationEi
   fun:_ZN13CPLStringList17AddStringDirectlyEPc
   fun:_ZN23GDALMultiDomainMetadata15SetMetadataItemEPKcS1_S1_
   fun:RegisterOGRKML
   fun:GDALAllRegister
   fun:_ZN11CSimulation27bCheckRasterGISOutputFormatEv
   fun:_ZN11CSimulation13nDoSimulationEiPPKc
   fun:main
}
{
   <insert_a_suppression_name_here>
   Memcheck:Leak
   match-leak-kinds: reachable
   fun:calloc
   fun:VSICallocVerbose
   fun:_ZN13CPLStringList16EnsureAllocationEi
   fun:_ZN13CPLStringList17AddStringDirectlyEPc
   fun:_ZN23GDALMultiDomainMetadata15SetMetadataItemEPKcS1_S1_
   fun:RegisterOGRGeoJSON
   fun:GDALAllRegister
   fun:_ZN11CSimulation27bCheckRasterGISOutputFormatEv
   fun:_ZN11CSimulation13nDoSimulationEiPPKc
   fun:main
}
{
   <insert_a_suppression_name_here>
   Memcheck:Leak
   match-leak-kinds: reachable
   fun:calloc
   fun:VSICallocVerbose
   fun:_ZN13CPLStringList16EnsureAllocationEi
   fun:_ZN13CPLStringList17AddStringDirectlyEPc
   fun:_ZN23GDALMultiDomainMetadata15SetMetadataItemEPKcS1_S1_
   fun:RegisterOGRGeoJSONSeq
   fun:GDALAllRegister
   fun:_ZN11CSimulation27bCheckRasterGISOutputFormatEv
   fun:_ZN11CSimulation13nDoSimulationEiPPKc
   fun:main
}
{
   <insert_a_suppression_name_here>
   Memcheck:Leak
   match-leak-kinds: reachable
   fun:calloc
   fun:VSICallocVerbose
   fun:_ZN13CPLStringList16EnsureAllocationEi
   fun:_ZN13CPLStringList17AddStringDirectlyEPc
   fun:_ZN23GDALMultiDomainMetadata15SetMetadataItemEPKcS1_S1_
   fun:RegisterOGRESRIJSON
   fun:GDALAllRegister
   fun:_ZN11CSimulation27bCheckRasterGISOutputFormatEv
   fun:_ZN11CSimulation13nDoSimulationEiPPKc
   fun:main
}
{
   <insert_a_suppression_name_here>
   Memcheck:Leak
   match-leak-kinds: reachable
   fun:calloc
   fun:VSICallocVerbose
   fun:_ZN13CPLStringList16EnsureAllocationEi
   fun:_ZN13CPLStringList17AddStringDirectlyEPc
   fun:_ZN23GDALMultiDomainMetadata15SetMetadataItemEPKcS1_S1_
   fun:RegisterOGRTopoJSON
   fun:GDALAllRegister
   fun:_ZN11CSimulation27bCheckRasterGISOutputFormatEv
   fun:_ZN11CSimulation13nDoSimulationEiPPKc
   fun:main
}
{
   <insert_a_suppression_name_here>
   Memcheck:Leak
   match-leak-kinds: reachable
   fun:calloc
   fun:VSICallocVerbose
   fun:_ZN13CPLStringList16EnsureAllocationEi
   fun:_ZN13CPLStringList17AddStringDirectlyEPc
   fun:_ZN23GDALMultiDomainMetadata15SetMetadataItemEPKcS1_S1_
   fun:RegisterOGRILI1
   fun:GDALAllRegister
   fun:_ZN11CSimulation27bCheckRasterGISOutputFormatEv
   fun:_ZN11CSimulation13nDoSimulationEiPPKc
   fun:main
}
{
   <insert_a_suppression_name_here>
   Memcheck:Leak
   match-leak-kinds: reachable
   fun:calloc
   fun:VSICallocVerbose
   fun:_ZN13CPLStringList16EnsureAllocationEi
   fun:_ZN13CPLStringList17AddStringDirectlyEPc
   fun:_ZN23GDALMultiDomainMetadata15SetMetadataItemEPKcS1_S1_
   fun:RegisterOGRILI2
   fun:GDALAllRegister
   fun:_ZN11CSimulation27bCheckRasterGISOutputFormatEv
   fun:_ZN11CSimulation13nDoSimulationEiPPKc
   fun:main
}
{
   <insert_a_suppression_name_here>
   Memcheck:Leak
   match-leak-kinds: reachable
   fun:calloc
   fun:VSICallocVerbose
   fun:_ZN13CPLStringList16EnsureAllocationEi
   fun:_ZN13CPLStringList17AddStringDirectlyEPc
   fun:_ZN23GDALMultiDomainMetadata15SetMetadataItemEPKcS1_S1_
   fun:RegisterOGRGMT
   fun:GDALAllRegister
   fun:_ZN11CSimulation27bCheckRasterGISOutputFormatEv
   fun:_ZN11CSimulation13nDoSimulationEiPPKc
   fun:main
}
{
   <insert_a_suppression_name_here>
   Memcheck:Leak
   match-leak-kinds: reachable
   fun:calloc
   fun:VSICallocVerbose
   fun:_ZN13CPLStringList16EnsureAllocationEi
   fun:_ZN13CPLStringList17AddStringDirectlyEPc
   fun:_ZN23GDALMultiDomainMetadata15SetMetadataItemEPKcS1_S1_
   fun:RegisterOGRGeoPackage
   fun:GDALAllRegister
   fun:_ZN11CSimulation27bCheckRasterGISOutputFormatEv
   fun:_ZN11CSimulation13nDoSimulationEiPPKc
   fun:main
}
{
   <insert_a_suppression_name_here>
   Memcheck:Leak
   match-leak-kinds: reachable
   fun:calloc
   fun:VSICallocVerbose
   fun:_ZN13CPLStringList16EnsureAllocationEi
   fun:_ZN13CPLStringList17AddStringDirectlyEPc
   fun:_ZN23GDALMultiDomainMetadata15SetMetadataItemEPKcS1_S1_
   fun:RegisterOGRSQLite
   fun:GDALAllRegister
   fun:_ZN11CSimulation27bCheckRasterGISOutputFormatEv
   fun:_ZN11CSimulation13nDoSimulationEiPPKc
   fun:main
}
{
   <insert_a_suppression_name_here>
   Memcheck:Leak
   match-leak-kinds: reachable
   fun:calloc
   fun:VSICallocVerbose
   fun:_ZN13CPLStringList16EnsureAllocationEi
   fun:_ZN13CPLStringList17AddStringDirectlyEPc
   fun:_ZN23GDALMultiDomainMetadata15SetMetadataItemEPKcS1_S1_
   fun:RegisterOGRODBC
   fun:GDALAllRegister
   fun:_ZN11CSimulation27bCheckRasterGISOutputFormatEv
   fun:_ZN11CSimulation13nDoSimulationEiPPKc
   fun:main
}
{
   <insert_a_suppression_name_here>
   Memcheck:Leak
   match-leak-kinds: reachable
   fun:calloc
   fun:VSICallocVerbose
   fun:_ZN13CPLStringList16EnsureAllocationEi
   fun:_ZN13CPLStringList17AddStringDirectlyEPc
   fun:_ZN23GDALMultiDomainMetadata15SetMetadataItemEPKcS1_S1_
   fun:RegisterOGRWAsP
   fun:GDALAllRegister
   fun:_ZN11CSimulation27bCheckRasterGISOutputFormatEv
   fun:_ZN11CSimulation13nDoSimulationEiPPKc
   fun:main
}
{
   <insert_a_suppression_name_here>
   Memcheck:Leak
   match-leak-kinds: reachable
   fun:calloc
   fun:VSICallocVerbose
   fun:_ZN13CPLStringList16EnsureAllocationEi
   fun:_ZN13CPLStringList17AddStringDirectlyEPc
   fun:_ZN23GDALMultiDomainMetadata15SetMetadataItemEPKcS1_S1_
   fun:RegisterOGRPGeo
   fun:GDALAllRegister
   fun:_ZN11CSimulation27bCheckRasterGISOutputFormatEv
   fun:_ZN11CSimulation13nDoSimulationEiPPKc
   fun:main
}
{
   <insert_a_suppression_name_here>
   Memcheck:Leak
   match-leak-kinds: reachable
   fun:calloc
   fun:VSICallocVerbose
   fun:_ZN13CPLStringList16EnsureAllocationEi
   fun:_ZN13CPLStringList17AddStringDirectlyEPc
   fun:_ZN23GDALMultiDomainMetadata15SetMetadataItemEPKcS1_S1_
   fun:RegisterOGRMSSQLSpatial
   fun:GDALAllRegister
   fun:_ZN11CSimulation27bCheckRasterGISOutputFormatEv
   fun:_ZN11CSimulation13nDoSimulationEiPPKc
   fun:main
}
{
   <insert_a_suppression_name_here>
   Memcheck:Leak
   match-leak-kinds: reachable
   fun:calloc
   fun:VSICallocVerbose
   fun:_ZN13CPLStringList16EnsureAllocationEi
   fun:_ZN13CPLStringList17AddStringDirectlyEPc
   fun:_ZN23GDALMultiDomainMetadata15SetMetadataItemEPKcS1_S1_
   fun:RegisterOGROGDI
   fun:GDALAllRegister
   fun:_ZN11CSimulation27bCheckRasterGISOutputFormatEv
   fun:_ZN11CSimulation13nDoSimulationEiPPKc
   fun:main
}
{
   <insert_a_suppression_name_here>
   Memcheck:Leak
   match-leak-kinds: reachable
   fun:calloc
   fun:VSICallocVerbose
   fun:_ZN13CPLStringList16EnsureAllocationEi
   fun:_ZN13CPLStringList17AddStringDirectlyEPc
   fun:_ZN23GDALMultiDomainMetadata15SetMetadataItemEPKcS1_S1_
   fun:RegisterOGRPG
   fun:GDALAllRegister
   fun:_ZN11CSimulation27bCheckRasterGISOutputFormatEv
   fun:_ZN11CSimulation13nDoSimulationEiPPKc
   fun:main
}
{
   <insert_a_suppression_name_here>
   Memcheck:Leak
   match-leak-kinds: reachable
   fun:calloc
   fun:VSICallocVerbose
   fun:_ZN13CPLStringList16EnsureAllocationEi
   fun:_ZN13CPLStringList17AddStringDirectlyEPc
   fun:_ZN23GDALMultiDomainMetadata15SetMetadataItemEPKcS1_S1_
   fun:RegisterOGRMySQL
   fun:GDALAllRegister
   fun:_ZN11CSimulation27bCheckRasterGISOutputFormatEv
   fun:_ZN11CSimulation13nDoSimulationEiPPKc
   fun:main
}
{
   <insert_a_suppression_name_here>
   Memcheck:Leak
   match-leak-kinds: reachable
   fun:calloc
   fun:VSICallocVerbose
   fun:_ZN13CPLStringList16EnsureAllocationEi
   fun:_ZN13CPLStringList17AddStringDirectlyEPc
   fun:_ZN23GDALMultiDomainMetadata15SetMetadataItemEPKcS1_S1_
   fun:RegisterOGROpenFileGDB
   fun:GDALAllRegister
   fun:_ZN11CSimulation27bCheckRasterGISOutputFormatEv
   fun:_ZN11CSimulation13nDoSimulationEiPPKc
   fun:main
}
{
   <insert_a_suppression_name_here>
   Memcheck:Leak
   match-leak-kinds: reachable
   fun:calloc
   fun:VSICallocVerbose
   fun:_ZN13CPLStringList16EnsureAllocationEi
   fun:_ZN13CPLStringList17AddStringDirectlyEPc
   fun:_ZN23GDALMultiDomainMetadata15SetMetadataItemEPKcS1_S1_
   fun:RegisterOGRDXF
   fun:GDALAllRegister
   fun:_ZN11CSimulation27bCheckRasterGISOutputFormatEv
   fun:_ZN11CSimulation13nDoSimulationEiPPKc
   fun:main
}
{
   <insert_a_suppression_name_here>
   Memcheck:Leak
   match-leak-kinds: reachable
   fun:calloc
   fun:VSICallocVerbose
   fun:_ZN13CPLStringList16EnsureAllocationEi
   fun:_ZN13CPLStringList17AddStringDirectlyEPc
   fun:_ZN23GDALMultiDomainMetadata15SetMetadataItemEPKcS1_S1_
   fun:RegisterOGRCAD
   fun:GDALAllRegister
   fun:_ZN11CSimulation27bCheckRasterGISOutputFormatEv
   fun:_ZN11CSimulation13nDoSimulationEiPPKc
   fun:main
}
{
   <insert_a_suppression_name_here>
   Memcheck:Leak
   match-leak-kinds: reachable
   fun:calloc
   fun:VSICallocVerbose
   fun:_ZN13CPLStringList16EnsureAllocationEi
   fun:_ZN13CPLStringList17AddStringDirectlyEPc
   fun:_ZN23GDALMultiDomainMetadata15SetMetadataItemEPKcS1_S1_
   fun:RegisterOGRFlatGeobuf
   fun:GDALAllRegister
   fun:_ZN11CSimulation27bCheckRasterGISOutputFormatEv
   fun:_ZN11CSimulation13nDoSimulationEiPPKc
   fun:main
}
{
   <insert_a_suppression_name_here>
   Memcheck:Leak
   match-leak-kinds: reachable
   fun:calloc
   fun:VSICallocVerbose
   fun:_ZN13CPLStringList16EnsureAllocationEi
   fun:_ZN13CPLStringList17AddStringDirectlyEPc
   fun:_ZN23GDALMultiDomainMetadata15SetMetadataItemEPKcS1_S1_
   fun:RegisterOGRGeoconcept
   fun:GDALAllRegister
   fun:_ZN11CSimulation27bCheckRasterGISOutputFormatEv
   fun:_ZN11CSimulation13nDoSimulationEiPPKc
   fun:main
}
{
   <insert_a_suppression_name_here>
   Memcheck:Leak
   match-leak-kinds: reachable
   fun:calloc
   fun:VSICallocVerbose
   fun:_ZN13CPLStringList16EnsureAllocationEi
   fun:_ZN13CPLStringList17AddStringDirectlyEPc
   fun:_ZN23GDALMultiDomainMetadata15SetMetadataItemEPKcS1_S1_
   fun:RegisterOGRGeoRSS
   fun:GDALAllRegister
   fun:_ZN11CSimulation27bCheckRasterGISOutputFormatEv
   fun:_ZN11CSimulation13nDoSimulationEiPPKc
   fun:main
}
{
   <insert_a_suppression_name_here>
   Memcheck:Leak
   match-leak-kinds: reachable
   fun:calloc
   fun:VSICallocVerbose
   fun:_ZN13CPLStringList16EnsureAllocationEi
   fun:_ZN13CPLStringList17AddStringDirectlyEPc
   fun:_ZN23GDALMultiDomainMetadata15SetMetadataItemEPKcS1_S1_
   fun:RegisterOGRVFK
   fun:GDALAllRegister
   fun:_ZN11CSimulation27bCheckRasterGISOutputFormatEv
   fun:_ZN11CSimulation13nDoSimulationEiPPKc
   fun:main
}
{
   <insert_a_suppression_name_here>
   Memcheck:Leak
   match-leak-kinds: reachable
   fun:calloc
   fun:VSICallocVerbose
   fun:_ZN13CPLStringList16EnsureAllocationEi
   fun:_ZN13CPLStringList17AddStringDirectlyEPc
   fun:_ZN23GDALMultiDomainMetadata15SetMetadataItemEPKcS1_S1_
   fun:RegisterOGRPGDump
   fun:GDALAllRegister
   fun:_ZN11CSimulation27bCheckRasterGISOutputFormatEv
   fun:_ZN11CSimulation13nDoSimulationEiPPKc
   fun:main
}
{
   <insert_a_suppression_name_here>
   Memcheck:Leak
   match-leak-kinds: reachable
   fun:calloc
   fun:VSICallocVerbose
   fun:_ZN13CPLStringList16EnsureAllocationEi
   fun:_ZN13CPLStringList17AddStringDirectlyEPc
   fun:_ZN23GDALMultiDomainMetadata15SetMetadataItemEPKcS1_S1_
   fun:RegisterOGROSM
   fun:GDALAllRegister
   fun:_ZN11CSimulation27bCheckRasterGISOutputFormatEv
   fun:_ZN11CSimulation13nDoSimulationEiPPKc
   fun:main
}
{
   <insert_a_suppression_name_here>
   Memcheck:Leak
   match-leak-kinds: reachable
   fun:calloc
   fun:VSICallocVerbose
   fun:_ZN13CPLStringList16EnsureAllocationEi
   fun:_ZN13CPLStringList17AddStringDirectlyEPc
   fun:_ZN23GDALMultiDomainMetadata15SetMetadataItemEPKcS1_S1_
   fun:RegisterOGRGPSBabel
   fun:GDALAllRegister
   fun:_ZN11CSimulation27bCheckRasterGISOutputFormatEv
   fun:_ZN11CSimulation13nDoSimulationEiPPKc
   fun:main
}
{
   <insert_a_suppression_name_here>
   Memcheck:Leak
   match-leak-kinds: reachable
   fun:calloc
   fun:VSICallocVerbose
   fun:_ZN13CPLStringList16EnsureAllocationEi
   fun:_ZN13CPLStringList17AddStringDirectlyEPc
   fun:_ZN23GDALMultiDomainMetadata15SetMetadataItemEPKcS1_S1_
   fun:RegisterOGRPDS
   fun:GDALAllRegister
   fun:_ZN11CSimulation27bCheckRasterGISOutputFormatEv
   fun:_ZN11CSimulation13nDoSimulationEiPPKc
   fun:main
}
{
   <insert_a_suppression_name_here>
   Memcheck:Leak
   match-leak-kinds: reachable
   fun:calloc
   fun:VSICallocVerbose
   fun:_ZN13CPLStringList16EnsureAllocationEi
   fun:_ZN13CPLStringList17AddStringDirectlyEPc
   fun:_ZN23GDALMultiDomainMetadata15SetMetadataItemEPKcS1_S1_
   fun:RegisterOGRWFS
   fun:GDALAllRegister
   fun:_ZN11CSimulation27bCheckRasterGISOutputFormatEv
   fun:_ZN11CSimulation13nDoSimulationEiPPKc
   fun:main
}
{
   <insert_a_suppression_name_here>
   Memcheck:Leak
   match-leak-kinds: reachable
   fun:calloc
   fun:VSICallocVerbose
   fun:_ZN13CPLStringList16EnsureAllocationEi
   fun:_ZN13CPLStringList17AddStringDirectlyEPc
   fun:_ZN23GDALMultiDomainMetadata15SetMetadataItemEPKcS1_S1_
   fun:RegisterOGROAPIF
   fun:GDALAllRegister
   fun:_ZN11CSimulation27bCheckRasterGISOutputFormatEv
   fun:_ZN11CSimulation13nDoSimulationEiPPKc
   fun:main
}
{
   <insert_a_suppression_name_here>
   Memcheck:Leak
   match-leak-kinds: reachable
   fun:calloc
   fun:VSICallocVerbose
   fun:_ZN13CPLStringList16EnsureAllocationEi
   fun:_ZN13CPLStringList17AddStringDirectlyEPc
   fun:_ZN23GDALMultiDomainMetadata15SetMetadataItemEPKcS1_S1_
   fun:RegisterOGRSOSI
   fun:GDALAllRegister
   fun:_ZN11CSimulation27bCheckRasterGISOutputFormatEv
   fun:_ZN11CSimulation13nDoSimulationEiPPKc
   fun:main
}
{
   <insert_a_suppression_name_here>
   Memcheck:Leak
   match-leak-kinds: reachable
   fun:calloc
   fun:VSICallocVerbose
   fun:_ZN13CPLStringList16EnsureAllocationEi
   fun:_ZN13CPLStringList17AddStringDirectlyEPc
   fun:_ZN23GDALMultiDomainMetadata15SetMetadataItemEPKcS1_S1_
   fun:RegisterOGREDIGEO
   fun:GDALAllRegister
   fun:_ZN11CSimulation27bCheckRasterGISOutputFormatEv
   fun:_ZN11CSimulation13nDoSimulationEiPPKc
   fun:main
}
{
   <insert_a_suppression_name_here>
   Memcheck:Leak
   match-leak-kinds: reachable
   fun:calloc
   fun:VSICallocVerbose
   fun:_ZN13CPLStringList16EnsureAllocationEi
   fun:_ZN13CPLStringList17AddStringDirectlyEPc
   fun:_ZN23GDALMultiDomainMetadata15SetMetadataItemEPKcS1_S1_
   fun:RegisterOGRSVG
   fun:GDALAllRegister
   fun:_ZN11CSimulation27bCheckRasterGISOutputFormatEv
   fun:_ZN11CSimulation13nDoSimulationEiPPKc
   fun:main
}
{
   <insert_a_suppression_name_here>
   Memcheck:Leak
   match-leak-kinds: reachable
   fun:calloc
   fun:VSICallocVerbose
   fun:_ZN13CPLStringList16EnsureAllocationEi
   fun:_ZN13CPLStringList17AddStringDirectlyEPc
   fun:_ZN23GDALMultiDomainMetadata15SetMetadataItemEPKcS1_S1_
   fun:RegisterOGRIdrisi
   fun:GDALAllRegister
   fun:_ZN11CSimulation27bCheckRasterGISOutputFormatEv
   fun:_ZN11CSimulation13nDoSimulationEiPPKc
   fun:main
}
{
   <insert_a_suppression_name_here>
   Memcheck:Leak
   match-leak-kinds: reachable
   fun:calloc
   fun:VSICallocVerbose
   fun:_ZN13CPLStringList16EnsureAllocationEi
   fun:_ZN13CPLStringList17AddStringDirectlyEPc
   fun:_ZN23GDALMultiDomainMetadata15SetMetadataItemEPKcS1_S1_
   fun:RegisterOGRXLS
   fun:GDALAllRegister
   fun:_ZN11CSimulation27bCheckRasterGISOutputFormatEv
   fun:_ZN11CSimulation13nDoSimulationEiPPKc
   fun:main
}
{
   <insert_a_suppression_name_here>
   Memcheck:Leak
   match-leak-kinds: reachable
   fun:calloc
   fun:VSICallocVerbose
   fun:_ZN13CPLStringList16EnsureAllocationEi
   fun:_ZN13CPLStringList17AddStringDirectlyEPc
   fun:_ZN23GDALMultiDomainMetadata15SetMetadataItemEPKcS1_S1_
   fun:RegisterOGRODS
   fun:GDALAllRegister
   fun:_ZN11CSimulation27bCheckRasterGISOutputFormatEv
   fun:_ZN11CSimulation13nDoSimulationEiPPKc
   fun:main
}
{
   <insert_a_suppression_name_here>
   Memcheck:Leak
   match-leak-kinds: reachable
   fun:calloc
   fun:VSICallocVerbose
   fun:_ZN13CPLStringList16EnsureAllocationEi
   fun:_ZN13CPLStringList17AddStringDirectlyEPc
   fun:_ZN23GDALMultiDomainMetadata15SetMetadataItemEPKcS1_S1_
   fun:RegisterOGRXLSX
   fun:GDALAllRegister
   fun:_ZN11CSimulation27bCheckRasterGISOutputFormatEv
   fun:_ZN11CSimulation13nDoSimulationEiPPKc
   fun:main
}
{
   <insert_a_suppression_name_here>
   Memcheck:Leak
   match-leak-kinds: reachable
   fun:calloc
   fun:VSICallocVerbose
   fun:_ZN13CPLStringList16EnsureAllocationEi
   fun:_ZN13CPLStringList17AddStringDirectlyEPc
   fun:_ZN23GDALMultiDomainMetadata15SetMetadataItemEPKcS1_S1_
   fun:RegisterOGRElastic
   fun:GDALAllRegister
   fun:_ZN11CSimulation27bCheckRasterGISOutputFormatEv
   fun:_ZN11CSimulation13nDoSimulationEiPPKc
   fun:main
}
{
   <insert_a_suppression_name_here>
   Memcheck:Leak
   match-leak-kinds: reachable
   fun:calloc
   fun:VSICallocVerbose
   fun:_ZN13CPLStringList16EnsureAllocationEi
   fun:_ZN13CPLStringList17AddStringDirectlyEPc
   fun:_ZN23GDALMultiDomainMetadata15SetMetadataItemEPKcS1_S1_
   fun:RegisterOGRCarto
   fun:GDALAllRegister
   fun:_ZN11CSimulation27bCheckRasterGISOutputFormatEv
   fun:_ZN11CSimulation13nDoSimulationEiPPKc
   fun:main
}
{
   <insert_a_suppression_name_here>
   Memcheck:Leak
   match-leak-kinds: reachable
   fun:calloc
   fun:VSICallocVerbose
   fun:_ZN13CPLStringList16EnsureAllocationEi
   fun:_ZN13CPLStringList17AddStringDirectlyEPc
   fun:_ZN23GDALMultiDomainMetadata15SetMetadataItemEPKcS1_S1_
   fun:RegisterOGRAmigoCloud
   fun:GDALAllRegister
   fun:_ZN11CSimulation27bCheckRasterGISOutputFormatEv
   fun:_ZN11CSimulation13nDoSimulationEiPPKc
   fun:main
}
{
   <insert_a_suppression_name_here>
   Memcheck:Leak
   match-leak-kinds: reachable
   fun:calloc
   fun:VSICallocVerbose
   fun:_ZN13CPLStringList16EnsureAllocationEi
   fun:_ZN13CPLStringList17AddStringDirectlyEPc
   fun:_ZN23GDALMultiDomainMetadata15SetMetadataItemEPKcS1_S1_
   fun:RegisterOGRSXF
   fun:GDALAllRegister
   fun:_ZN11CSimulation27bCheckRasterGISOutputFormatEv
   fun:_ZN11CSimulation13nDoSimulationEiPPKc
   fun:main
}
{
   <insert_a_suppression_name_here>
   Memcheck:Leak
   match-leak-kinds: reachable
   fun:calloc
   fun:VSICallocVerbose
   fun:_ZN13CPLStringList16EnsureAllocationEi
   fun:_ZN13CPLStringList17AddStringDirectlyEPc
   fun:_ZN23GDALMultiDomainMetadata15SetMetadataItemEPKcS1_S1_
   fun:RegisterOGRSelafin
   fun:GDALAllRegister
   fun:_ZN11CSimulation27bCheckRasterGISOutputFormatEv
   fun:_ZN11CSimulation13nDoSimulationEiPPKc
   fun:main
}
{
   <insert_a_suppression_name_here>
   Memcheck:Leak
   match-leak-kinds: reachable
   fun:calloc
   fun:VSICallocVerbose
   fun:_ZN13CPLStringList16EnsureAllocationEi
   fun:_ZN13CPLStringList17AddStringDirectlyEPc
   fun:_ZN23GDALMultiDomainMetadata15SetMetadataItemEPKcS1_S1_
   fun:RegisterOGRJML
   fun:GDALAllRegister
   fun:_ZN11CSimulation27bCheckRasterGISOutputFormatEv
   fun:_ZN11CSimulation13nDoSimulationEiPPKc
   fun:main
}
{
   <insert_a_suppression_name_here>
   Memcheck:Leak
   match-leak-kinds: reachable
   fun:calloc
   fun:VSICallocVerbose
   fun:_ZN13CPLStringList16EnsureAllocationEi
   fun:_ZN13CPLStringList17AddStringDirectlyEPc
   fun:_ZN23GDALMultiDomainMetadata15SetMetadataItemEPKcS1_S1_
   fun:RegisterOGRPLSCENES
   fun:GDALAllRegister
   fun:_ZN11CSimulation27bCheckRasterGISOutputFormatEv
   fun:_ZN11CSimulation13nDoSimulationEiPPKc
   fun:main
}
{
   <insert_a_suppression_name_here>
   Memcheck:Leak
   match-leak-kinds: reachable
   fun:calloc
   fun:VSICallocVerbose
   fun:_ZN13CPLStringList16EnsureAllocationEi
   fun:_ZN13CPLStringList17AddStringDirectlyEPc
   fun:_ZN23GDALMultiDomainMetadata15SetMetadataItemEPKcS1_S1_
   fun:RegisterOGRCSW
   fun:GDALAllRegister
   fun:_ZN11CSimulation27bCheckRasterGISOutputFormatEv
   fun:_ZN11CSimulation13nDoSimulationEiPPKc
   fun:main
}
{
   <insert_a_suppression_name_here>
   Memcheck:Leak
   match-leak-kinds: reachable
   fun:calloc
   fun:VSICallocVerbose
   fun:_ZN13CPLStringList16EnsureAllocationEi
   fun:_ZN13CPLStringList17AddStringDirectlyEPc
   fun:_ZN23GDALMultiDomainMetadata15SetMetadataItemEPKcS1_S1_
   fun:RegisterOGRVDV
   fun:GDALAllRegister
   fun:_ZN11CSimulation27bCheckRasterGISOutputFormatEv
   fun:_ZN11CSimulation13nDoSimulationEiPPKc
   fun:main
}
{
   <insert_a_suppression_name_here>
   Memcheck:Leak
   match-leak-kinds: reachable
   fun:calloc
   fun:VSICallocVerbose
   fun:_ZN13CPLStringList16EnsureAllocationEi
   fun:_ZN13CPLStringList17AddStringDirectlyEPc
   fun:_ZN23GDALMultiDomainMetadata15SetMetadataItemEPKcS1_S1_
   obj:/usr/lib/x86_64-linux-gnu/libgdal.so.36.3.10.2
   fun:RegisterOGRGMLAS
   fun:GDALAllRegister
   fun:_ZN11CSimulation27bCheckRasterGISOutputFormatEv
   fun:_ZN11CSimulation13nDoSimulationEiPPKc
   fun:main
}
{
   <insert_a_suppression_name_here>
   Memcheck:Leak
   match-leak-kinds: reachable
   fun:calloc
   fun:VSICallocVerbose
   fun:_ZN13CPLStringList16EnsureAllocationEi
   fun:_ZN13CPLStringList17AddStringDirectlyEPc
   fun:_ZN23GDALMultiDomainMetadata15SetMetadataItemEPKcS1_S1_
   fun:RegisterOGRMVT
   fun:GDALAllRegister
   fun:_ZN11CSimulation27bCheckRasterGISOutputFormatEv
   fun:_ZN11CSimulation13nDoSimulationEiPPKc
   fun:main
}
{
   <insert_a_suppression_name_here>
   Memcheck:Leak
   match-leak-kinds: reachable
   fun:calloc
   fun:VSICallocVerbose
   fun:_ZN13CPLStringList16EnsureAllocationEi
   fun:_ZN13CPLStringList17AddStringDirectlyEPc
   fun:_ZN23GDALMultiDomainMetadata15SetMetadataItemEPKcS1_S1_
   fun:RegisterOGRNGW
   fun:GDALAllRegister
   fun:_ZN11CSimulation27bCheckRasterGISOutputFormatEv
   fun:_ZN11CSimulation13nDoSimulationEiPPKc
   fun:main
}
{
   <insert_a_suppression_name_here>
   Memcheck:Leak
   match-leak-kinds: reachable
   fun:calloc
   fun:VSICallocVerbose
   fun:_ZN13CPLStringList16EnsureAllocationEi
   fun:_ZN13CPLStringList17AddStringDirectlyEPc
   fun:_ZN23GDALMultiDomainMetadata15SetMetadataItemEPKcS1_S1_
   fun:RegisterOGRMapML
   fun:GDALAllRegister
   fun:_ZN11CSimulation27bCheckRasterGISOutputFormatEv
   fun:_ZN11CSimulation13nDoSimulationEiPPKc
   fun:main
}
{
   <insert_a_suppression_name_here>
   Memcheck:Leak
   match-leak-kinds: reachable
   fun:calloc
   fun:VSICallocVerbose
   fun:_ZN13CPLStringList16EnsureAllocationEi
   fun:_ZN13CPLStringList17AddStringDirectlyEPc
   fun:_ZN23GDALMultiDomainMetadata15SetMetadataItemEPKcS1_S1_
   fun:RegisterOGRGTFS
   fun:GDALAllRegister
   fun:_ZN11CSimulation27bCheckRasterGISOutputFormatEv
   fun:_ZN11CSimulation13nDoSimulationEiPPKc
   fun:main
}
{
   <insert_a_suppression_name_here>
   Memcheck:Leak
   match-leak-kinds: reachable
   fun:calloc
   fun:VSICallocVerbose
   fun:_ZN13CPLStringList16EnsureAllocationEi
   fun:_ZN13CPLStringList17AddStringDirectlyEPc
   fun:_ZN23GDALMultiDomainMetadata15SetMetadataItemEPKcS1_S1_
   fun:RegisterOGRPMTiles
   fun:GDALAllRegister
   fun:_ZN11CSimulation27bCheckRasterGISOutputFormatEv
   fun:_ZN11CSimulation13nDoSimulationEiPPKc
   fun:main
}
{
   <insert_a_suppression_name_here>
   Memcheck:Leak
   match-leak-kinds: reachable
   fun:calloc
   fun:VSICallocVerbose
   fun:_ZN13CPLStringList16EnsureAllocationEi
   fun:_ZN13CPLStringList17AddStringDirectlyEPc
   fun:_ZN23GDALMultiDomainMetadata15SetMetadataItemEPKcS1_S1_
   fun:RegisterOGRJSONFG
   fun:GDALAllRegister
   fun:_ZN11CSimulation27bCheckRasterGISOutputFormatEv
   fun:_ZN11CSimulation13nDoSimulationEiPPKc
   fun:main
}
{
   <insert_a_suppression_name_here>
   Memcheck:Leak
   match-leak-kinds: reachable
   fun:calloc
   fun:VSICallocVerbose
   fun:_ZN13CPLStringList16EnsureAllocationEi
   fun:_ZN13CPLStringList17AddStringDirectlyEPc
   fun:_ZN23GDALMultiDomainMetadata15SetMetadataItemEPKcS1_S1_
   fun:RegisterOGRMiraMon
   fun:GDALAllRegister
   fun:_ZN11CSimulation27bCheckRasterGISOutputFormatEv
   fun:_ZN11CSimulation13nDoSimulationEiPPKc
   fun:main
}
{
   <insert_a_suppression_name_here>
   Memcheck:Leak
   match-leak-kinds: reachable
   fun:calloc
   fun:VSICallocVerbose
   fun:_ZN13CPLStringList16EnsureAllocationEi
   fun:_ZN13CPLStringList17AddStringDirectlyEPc
   fun:_ZN23GDALMultiDomainMetadata15SetMetadataItemEPKcS1_S1_
   fun:RegisterOGRTiger
   fun:GDALAllRegister
   fun:_ZN11CSimulation27bCheckRasterGISOutputFormatEv
   fun:_ZN11CSimulation13nDoSimulationEiPPKc
   fun:main
}
{
   <insert_a_suppression_name_here>
   Memcheck:Leak
   match-leak-kinds: reachable
   fun:calloc
   fun:VSICallocVerbose
   fun:_ZN13CPLStringList16EnsureAllocationEi
   fun:_ZN13CPLStringList17AddStringDirectlyEPc
   fun:_ZN23GDALMultiDomainMetadata15SetMetadataItemEPKcS1_S1_
   fun:RegisterOGRAVCBin
   fun:GDALAllRegister
   fun:_ZN11CSimulation27bCheckRasterGISOutputFormatEv
   fun:_ZN11CSimulation13nDoSimulationEiPPKc
   fun:main
}
{
   <insert_a_suppression_name_here>
   Memcheck:Leak
   match-leak-kinds: reachable
   fun:calloc
   fun:VSICallocVerbose
   fun:_ZN13CPLStringList16EnsureAllocationEi
   fun:_ZN13CPLStringList17AddStringDirectlyEPc
   fun:_ZN23GDALMultiDomainMetadata15SetMetadataItemEPKcS1_S1_
   fun:RegisterOGRAVCE00
   fun:GDALAllRegister
   fun:_ZN11CSimulation27bCheckRasterGISOutputFormatEv
   fun:_ZN11CSimulation13nDoSimulationEiPPKc
   fun:main
}
{
   <insert_a_suppression_name_here>
   Memcheck:Leak
   match-leak-kinds: reachable
   fun:calloc
   fun:VSICallocVerbose
   fun:_ZN13CPLStringList16EnsureAllocationEi
   fun:_ZN13CPLStringList17AddStringDirectlyEPc
   fun:_ZN23GDALMultiDomainMetadata15SetMetadataItemEPKcS1_S1_
   fun:GDALRegister_GenBin
   fun:GDALRegister_raw_with_sidecar
   fun:GDALAllRegister
   fun:_ZN11CSimulation27bCheckRasterGISOutputFormatEv
   fun:_ZN11CSimulation13nDoSimulationEiPPKc
   fun:main
}
{
   <insert_a_suppression_name_here>
   Memcheck:Leak
   match-leak-kinds: reachable
   fun:calloc
   fun:VSICallocVerbose
   fun:_ZN13CPLStringList16EnsureAllocationEi
   fun:_ZN13CPLStringList17AddStringDirectlyEPc
   fun:_ZN23GDALMultiDomainMetadata15SetMetadataItemEPKcS1_S1_
   fun:GDALRegister_ENVI
   fun:GDALRegister_raw_with_sidecar
   fun:GDALAllRegister
   fun:_ZN11CSimulation27bCheckRasterGISOutputFormatEv
   fun:_ZN11CSimulation13nDoSimulationEiPPKc
   fun:main
}
{
   <insert_a_suppression_name_here>
   Memcheck:Leak
   match-leak-kinds: reachable
   fun:calloc
   fun:VSICallocVerbose
   fun:_ZN13CPLStringList16EnsureAllocationEi
   fun:_ZN13CPLStringList17AddStringDirectlyEPc
   fun:_ZN23GDALMultiDomainMetadata15SetMetadataItemEPKcS1_S1_
   fun:GDALRegister_EHdr
   fun:GDALRegister_raw_with_sidecar
   fun:GDALAllRegister
   fun:_ZN11CSimulation27bCheckRasterGISOutputFormatEv
   fun:_ZN11CSimulation13nDoSimulationEiPPKc
   fun:main
}
{
   <insert_a_suppression_name_here>
   Memcheck:Leak
   match-leak-kinds: reachable
   fun:calloc
   fun:VSICallocVerbose
   fun:_ZN13CPLStringList16EnsureAllocationEi
   fun:_ZN13CPLStringList17AddStringDirectlyEPc
   fun:_ZN23GDALMultiDomainMetadata15SetMetadataItemEPKcS1_S1_
   fun:GDALRegister_ISCE
   fun:GDALAllRegister
   fun:_ZN11CSimulation27bCheckRasterGISOutputFormatEv
   fun:_ZN11CSimulation13nDoSimulationEiPPKc
   fun:main
}
{
   <insert_a_suppression_name_here>
   Memcheck:Leak
   match-leak-kinds: reachable
   fun:calloc
   fun:VSICallocVerbose
   fun:_ZN13CPLStringList16EnsureAllocationEi
   fun:_ZN13CPLStringList17AddStringDirectlyEPc
   fun:_ZN23GDALMultiDomainMetadata15SetMetadataItemEPKcS1_S1_
   fun:GDALRegister_Zarr
   fun:GDALAllRegister
   fun:_ZN11CSimulation27bCheckRasterGISOutputFormatEv
   fun:_ZN11CSimulation13nDoSimulationEiPPKc
   fun:main
}
{
   <insert_a_suppression_name_here>
   Memcheck:Leak
   match-leak-kinds: reachable
   fun:calloc
   fun:VSICallocVerbose
   fun:_ZN13CPLStringList16EnsureAllocationEi
   fun:_ZN13CPLStringList17AddStringDirectlyEPc
   fun:_ZN23GDALMultiDomainMetadata15SetMetadataItemEPKcS1_S1_
   fun:GDALRegister_HTTP
   fun:GDALAllRegister
   fun:_ZN11CSimulation27bCheckRasterGISOutputFormatEv
   fun:_ZN11CSimulation13nDoSimulationEiPPKc
   fun:main
}
{
   <insert_a_suppression_name_here>
   Memcheck:Leak
   match-leak-kinds: reachable
   fun:malloc
   obj:/usr/lib/x86_64-linux-gnu/libgomp.so.1.0.0
   obj:/usr/lib/x86_64-linux-gnu/libgomp.so.1.0.0
   fun:GOMP_parallel
   fun:_ZN11CSimulation31nInitGridAndCalcStillWaterLevelEv
   fun:_ZN11CSimulation13nDoSimulationEiPPKc
   fun:main
}
{
   <insert_a_suppression_name_here>
   Memcheck:Leak
   match-leak-kinds: reachable
   fun:_Znwm
   fun:_Z23GDALGetGlobalThreadPooli
   obj:/usr/lib/x86_64-linux-gnu/libgdal.so.36.3.10.2
   obj:/usr/lib/x86_64-linux-gnu/libgdal.so.36.3.10.2
   fun:_ZN10GDALDriver4OpenEP12GDALOpenInfob
   fun:GDALOpenEx
   fun:_ZN11CSimulation18nReadRasterGISFileEii
   fun:_ZN11CSimulation13nDoSimulationEiPPKc
   fun:main
}
{
   <insert_a_suppression_name_here>
   Memcheck:Leak
   match-leak-kinds: reachable
   fun:calloc
   fun:VSICallocVerbose
   fun:CPLCreateJoinableThread
   fun:_ZN19CPLWorkerThreadPool9SubmitJobESt8functionIFvvEE
   fun:_ZN11CPLJobQueue9SubmitJobESt8functionIFvvEE
   fun:_ZN11CPLJobQueue9SubmitJobEPFvPvES0_
   obj:/usr/lib/x86_64-linux-gnu/libgdal.so.36.3.10.2
   obj:/usr/lib/x86_64-linux-gnu/libgdal.so.36.3.10.2
   fun:_ZN15GDALRasterBlock5WriteEv
   obj:/usr/lib/x86_64-linux-gnu/libgdal.so.36.3.10.2
   obj:/usr/lib/x86_64-linux-gnu/libgdal.so.36.3.10.2
   fun:_ZN11GDALDataset10FlushCacheEb
}
{
   <insert_a_suppression_name_here>
   Memcheck:Leak
   match-leak-kinds: reachable
   fun:_Znwm
   fun:GDALRegister_Derived
   fun:GDALAllRegister
   fun:_ZN11CSimulation27bCheckRasterGISOutputFormatEv
   fun:_ZN11CSimulation13nDoSimulationEiPPKc
   fun:main
}
{
   <insert_a_suppression_name_here>
   Memcheck:Leak
   match-leak-kinds: reachable
   fun:_Znwm
   fun:GDALRegister_GTI
   fun:GDALAllRegister
   fun:_ZN11CSimulation27bCheckRasterGISOutputFormatEv
   fun:_ZN11CSimulation13nDoSimulationEiPPKc
   fun:main
}
{
   <insert_a_suppression_name_here>
   Memcheck:Leak
   match-leak-kinds: reachable
   fun:_Znwm
   fun:GDALRegister_SNAP_TIFF
   fun:GDALAllRegister
   fun:_ZN11CSimulation27bCheckRasterGISOutputFormatEv
   fun:_ZN11CSimulation13nDoSimulationEiPPKc
   fun:main
}
{
   <insert_a_suppression_name_here>
   Memcheck:Leak
   match-leak-kinds: reachable
   fun:_Znwm
   fun:GDALRegister_GTiff
   fun:GDALAllRegister
   fun:_ZN11CSimulation27bCheckRasterGISOutputFormatEv
   fun:_ZN11CSimulation13nDoSimulationEiPPKc
   fun:main
}
{
   <insert_a_suppression_name_here>
   Memcheck:Leak
   match-leak-kinds: reachable
   fun:_Znwm
   fun:GDALRegister_RPFTOC
   fun:GDALAllRegister
   fun:_ZN11CSimulation27bCheckRasterGISOutputFormatEv
   fun:_ZN11CSimulation13nDoSimulationEiPPKc
   fun:main
}
{
   <insert_a_suppression_name_here>
   Memcheck:Leak
   match-leak-kinds: reachable
   fun:_Znwm
   fun:GDALRegister_ECRGTOC
   fun:GDALAllRegister
   fun:_ZN11CSimulation27bCheckRasterGISOutputFormatEv
   fun:_ZN11CSimulation13nDoSimulationEiPPKc
   fun:main
}
{
   <insert_a_suppression_name_here>
   Memcheck:Leak
   match-leak-kinds: reachable
   fun:_Znwm
   fun:GDALRegister_HFA
   fun:GDALAllRegister
   fun:_ZN11CSimulation27bCheckRasterGISOutputFormatEv
   fun:_ZN11CSimulation13nDoSimulationEiPPKc
   fun:main
}
{
   <insert_a_suppression_name_here>
   Memcheck:Leak
   match-leak-kinds: reachable
   fun:_Znwm
   fun:GDALRegister_SAR_CEOS
   fun:GDALAllRegister
   fun:_ZN11CSimulation27bCheckRasterGISOutputFormatEv
   fun:_ZN11CSimulation13nDoSimulationEiPPKc
   fun:main
}
{
   <insert_a_suppression_name_here>
   Memcheck:Leak
   match-leak-kinds: reachable
   fun:_Znwm
   fun:GDALRegister_CEOS
   fun:GDALAllRegister
   fun:_ZN11CSimulation27bCheckRasterGISOutputFormatEv
   fun:_ZN11CSimulation13nDoSimulationEiPPKc
   fun:main
}
{
   <insert_a_suppression_name_here>
   Memcheck:Leak
   match-leak-kinds: reachable
   fun:_Znwm
   fun:GDALRegister_PALSARJaxa
   fun:GDALAllRegister
   fun:_ZN11CSimulation27bCheckRasterGISOutputFormatEv
   fun:_ZN11CSimulation13nDoSimulationEiPPKc
   fun:main
}
{
   <insert_a_suppression_name_here>
   Memcheck:Leak
   match-leak-kinds: reachable
   fun:_Znwm
   fun:GDALRegister_GFF
   fun:GDALAllRegister
   fun:_ZN11CSimulation27bCheckRasterGISOutputFormatEv
   fun:_ZN11CSimulation13nDoSimulationEiPPKc
   fun:main
}
{
   <insert_a_suppression_name_here>
   Memcheck:Leak
   match-leak-kinds: reachable
   fun:_Znwm
   fun:GDALRegister_ELAS
   fun:GDALAllRegister
   fun:_ZN11CSimulation27bCheckRasterGISOutputFormatEv
   fun:_ZN11CSimulation13nDoSimulationEiPPKc
   fun:main
}
{
   <insert_a_suppression_name_here>
   Memcheck:Leak
   match-leak-kinds: reachable
   fun:_Znwm
   fun:GDALRegister_ESRIC
   fun:GDALAllRegister
   fun:_ZN11CSimulation27bCheckRasterGISOutputFormatEv
   fun:_ZN11CSimulation13nDoSimulationEiPPKc
   fun:main
}
{
   <insert_a_suppression_name_here>
   Memcheck:Leak
   match-leak-kinds: reachable
   fun:_Znwm
   fun:GDALRegister_AIGrid
   fun:GDALAllRegister
   fun:_ZN11CSimulation27bCheckRasterGISOutputFormatEv
   fun:_ZN11CSimulation13nDoSimulationEiPPKc
   fun:main
}
{
   <insert_a_suppression_name_here>
   Memcheck:Leak
   match-leak-kinds: reachable
   fun:_Znwm
   fun:GDALRegister_AAIGrid
   fun:GDALAllRegister
   fun:_ZN11CSimulation27bCheckRasterGISOutputFormatEv
   fun:_ZN11CSimulation13nDoSimulationEiPPKc
   fun:main
}
{
   <insert_a_suppression_name_here>
   Memcheck:Leak
   match-leak-kinds: reachable
   fun:_Znwm
   fun:GDALRegister_GRASSASCIIGrid
   fun:GDALAllRegister
   fun:_ZN11CSimulation27bCheckRasterGISOutputFormatEv
   fun:_ZN11CSimulation13nDoSimulationEiPPKc
   fun:main
}
{
   <insert_a_suppression_name_here>
   Memcheck:Leak
   match-leak-kinds: reachable
   fun:_Znwm
   fun:GDALRegister_ISG
   fun:GDALAllRegister
   fun:_ZN11CSimulation27bCheckRasterGISOutputFormatEv
   fun:_ZN11CSimulation13nDoSimulationEiPPKc
   fun:main
}
{
   <insert_a_suppression_name_here>
   Memcheck:Leak
   match-leak-kinds: reachable
   fun:_Znwm
   fun:GDALRegister_SDTS
   fun:GDALAllRegister
   fun:_ZN11CSimulation27bCheckRasterGISOutputFormatEv
   fun:_ZN11CSimulation13nDoSimulationEiPPKc
   fun:main
}
{
   <insert_a_suppression_name_here>
   Memcheck:Leak
   match-leak-kinds: reachable
   fun:_Znwm
   fun:GDALRegister_DTED
   fun:GDALAllRegister
   fun:_ZN11CSimulation27bCheckRasterGISOutputFormatEv
   fun:_ZN11CSimulation13nDoSimulationEiPPKc
   fun:main
}
{
   <insert_a_suppression_name_here>
   Memcheck:Leak
   match-leak-kinds: reachable
   fun:_Znwm
   fun:GDALRegister_PNG
   fun:GDALAllRegister
   fun:_ZN11CSimulation27bCheckRasterGISOutputFormatEv
   fun:_ZN11CSimulation13nDoSimulationEiPPKc
   fun:main
}
{
   <insert_a_suppression_name_here>
   Memcheck:Leak
   match-leak-kinds: reachable
   fun:_Znwm
   fun:GDALRegister_JPEG
   fun:GDALAllRegister
   fun:_ZN11CSimulation27bCheckRasterGISOutputFormatEv
   fun:_ZN11CSimulation13nDoSimulationEiPPKc
   fun:main
}
{
   <insert_a_suppression_name_here>
   Memcheck:Leak
   match-leak-kinds: reachable
   fun:_Znwm
   fun:GDALRegister_MEM
   fun:GDALAllRegister
   fun:_ZN11CSimulation27bCheckRasterGISOutputFormatEv
   fun:_ZN11CSimulation13nDoSimulationEiPPKc
   fun:main
}
{
   <insert_a_suppression_name_here>
   Memcheck:Leak
   match-leak-kinds: reachable
   fun:_Znwm
   fun:GDALRegister_JDEM
   fun:GDALAllRegister
   fun:_ZN11CSimulation27bCheckRasterGISOutputFormatEv
   fun:_ZN11CSimulation13nDoSimulationEiPPKc
   fun:main
}
{
   <insert_a_suppression_name_here>
   Memcheck:Leak
   match-leak-kinds: reachable
   fun:_Znwm
   fun:GDALRegister_GIF
   fun:GDALAllRegister
   fun:_ZN11CSimulation27bCheckRasterGISOutputFormatEv
   fun:_ZN11CSimulation13nDoSimulationEiPPKc
   fun:main
}
{
   <insert_a_suppression_name_here>
   Memcheck:Leak
   match-leak-kinds: reachable
   fun:_Znwm
   fun:GDALRegister_BIGGIF
   fun:GDALAllRegister
   fun:_ZN11CSimulation27bCheckRasterGISOutputFormatEv
   fun:_ZN11CSimulation13nDoSimulationEiPPKc
   fun:main
}
{
   <insert_a_suppression_name_here>
   Memcheck:Leak
   match-leak-kinds: reachable
   fun:_Znwm
   fun:GDALRegister_Envisat
   fun:GDALAllRegister
   fun:_ZN11CSimulation27bCheckRasterGISOutputFormatEv
   fun:_ZN11CSimulation13nDoSimulationEiPPKc
   fun:main
}
{
   <insert_a_suppression_name_here>
   Memcheck:Leak
   match-leak-kinds: reachable
   fun:_Znwm
   fun:GDALRegister_FITS
   fun:GDALAllRegister
   fun:_ZN11CSimulation27bCheckRasterGISOutputFormatEv
   fun:_ZN11CSimulation13nDoSimulationEiPPKc
   fun:main
}
{
   <insert_a_suppression_name_here>
   Memcheck:Leak
   match-leak-kinds: reachable
   fun:_Znwm
   fun:GDALRegister_BSB
   fun:GDALAllRegister
   fun:_ZN11CSimulation27bCheckRasterGISOutputFormatEv
   fun:_ZN11CSimulation13nDoSimulationEiPPKc
   fun:main
}
{
   <insert_a_suppression_name_here>
   Memcheck:Leak
   match-leak-kinds: reachable
   fun:_Znwm
   fun:GDALRegister_XPM
   fun:GDALAllRegister
   fun:_ZN11CSimulation27bCheckRasterGISOutputFormatEv
   fun:_ZN11CSimulation13nDoSimulationEiPPKc
   fun:main
}
{
   <insert_a_suppression_name_here>
   Memcheck:Leak
   match-leak-kinds: reachable
   fun:_Znwm
   fun:GDALRegister_BMP
   fun:GDALAllRegister
   fun:_ZN11CSimulation27bCheckRasterGISOutputFormatEv
   fun:_ZN11CSimulation13nDoSimulationEiPPKc
   fun:main
}
{
   <insert_a_suppression_name_here>
   Memcheck:Leak
   match-leak-kinds: reachable
   fun:_Znwm
   fun:GDALRegister_DIMAP
   fun:GDALAllRegister
   fun:_ZN11CSimulation27bCheckRasterGISOutputFormatEv
   fun:_ZN11CSimulation13nDoSimulationEiPPKc
   fun:main
}
{
   <insert_a_suppression_name_here>
   Memcheck:Leak
   match-leak-kinds: reachable
   fun:_Znwm
   fun:GDALRegister_AirSAR
   fun:GDALAllRegister
   fun:_ZN11CSimulation27bCheckRasterGISOutputFormatEv
   fun:_ZN11CSimulation13nDoSimulationEiPPKc
   fun:main
}
{
   <insert_a_suppression_name_here>
   Memcheck:Leak
   match-leak-kinds: reachable
   fun:_Znwm
   fun:GDALRegister_RS2
   fun:GDALAllRegister
   fun:_ZN11CSimulation27bCheckRasterGISOutputFormatEv
   fun:_ZN11CSimulation13nDoSimulationEiPPKc
   fun:main
}
{
   <insert_a_suppression_name_here>
   Memcheck:Leak
   match-leak-kinds: reachable
   fun:_Znwm
   fun:GDALRegister_SAFE
   fun:GDALAllRegister
   fun:_ZN11CSimulation27bCheckRasterGISOutputFormatEv
   fun:_ZN11CSimulation13nDoSimulationEiPPKc
   fun:main
}
{
   <insert_a_suppression_name_here>
   Memcheck:Leak
   match-leak-kinds: reachable
   fun:_Znwm
   fun:GDALRegister_PCIDSK
   fun:GDALAllRegister
   fun:_ZN11CSimulation27bCheckRasterGISOutputFormatEv
   fun:_ZN11CSimulation13nDoSimulationEiPPKc
   fun:main
}
{
   <insert_a_suppression_name_here>
   Memcheck:Leak
   match-leak-kinds: reachable
   fun:_Znwm
   fun:GDALRegister_PCRaster
   fun:GDALAllRegister
   fun:_ZN11CSimulation27bCheckRasterGISOutputFormatEv
   fun:_ZN11CSimulation13nDoSimulationEiPPKc
   fun:main
}
{
   <insert_a_suppression_name_here>
   Memcheck:Leak
   match-leak-kinds: reachable
   fun:_Znwm
   fun:GDALRegister_ILWIS
   fun:GDALAllRegister
   fun:_ZN11CSimulation27bCheckRasterGISOutputFormatEv
   fun:_ZN11CSimulation13nDoSimulationEiPPKc
   fun:main
}
{
   <insert_a_suppression_name_here>
   Memcheck:Leak
   match-leak-kinds: reachable
   fun:_Znwm
   fun:GDALRegister_SGI
   fun:GDALAllRegister
   fun:_ZN11CSimulation27bCheckRasterGISOutputFormatEv
   fun:_ZN11CSimulation13nDoSimulationEiPPKc
   fun:main
}
{
   <insert_a_suppression_name_here>
   Memcheck:Leak
   match-leak-kinds: reachable
   fun:_Znwm
   fun:GDALRegister_SRTMHGT
   fun:GDALAllRegister
   fun:_ZN11CSimulation27bCheckRasterGISOutputFormatEv
   fun:_ZN11CSimulation13nDoSimulationEiPPKc
   fun:main
}
{
   <insert_a_suppression_name_here>
   Memcheck:Leak
   match-leak-kinds: reachable
   fun:_Znwm
   fun:GDALRegister_Leveller
   fun:GDALAllRegister
   fun:_ZN11CSimulation27bCheckRasterGISOutputFormatEv
   fun:_ZN11CSimulation13nDoSimulationEiPPKc
   fun:main
}
{
   <insert_a_suppression_name_here>
   Memcheck:Leak
   match-leak-kinds: reachable
   fun:_Znwm
   fun:GDALRegister_Terragen
   fun:GDALAllRegister
   fun:_ZN11CSimulation27bCheckRasterGISOutputFormatEv
   fun:_ZN11CSimulation13nDoSimulationEiPPKc
   fun:main
}
{
   <insert_a_suppression_name_here>
   Memcheck:Leak
   match-leak-kinds: reachable
   fun:_Znwm
   fun:GDALRegister_HDF4
   fun:GDALAllRegister
   fun:_ZN11CSimulation27bCheckRasterGISOutputFormatEv
   fun:_ZN11CSimulation13nDoSimulationEiPPKc
   fun:main
}
{
   <insert_a_suppression_name_here>
   Memcheck:Leak
   match-leak-kinds: reachable
   fun:_Znwm
   fun:GDALRegister_HDF4Image
   fun:GDALAllRegister
   fun:_ZN11CSimulation27bCheckRasterGISOutputFormatEv
   fun:_ZN11CSimulation13nDoSimulationEiPPKc
   fun:main
}
{
   <insert_a_suppression_name_here>
   Memcheck:Leak
   match-leak-kinds: reachable
   fun:_Znwm
   fun:GDALRegister_ISIS3
   fun:GDALAllRegister
   fun:_ZN11CSimulation27bCheckRasterGISOutputFormatEv
   fun:_ZN11CSimulation13nDoSimulationEiPPKc
   fun:main
}
{
   <insert_a_suppression_name_here>
   Memcheck:Leak
   match-leak-kinds: reachable
   fun:_Znwm
   fun:GDALRegister_ISIS2
   fun:GDALAllRegister
   fun:_ZN11CSimulation27bCheckRasterGISOutputFormatEv
   fun:_ZN11CSimulation13nDoSimulationEiPPKc
   fun:main
}
{
   <insert_a_suppression_name_here>
   Memcheck:Leak
   match-leak-kinds: reachable
   fun:_Znwm
   fun:GDALRegister_PDS
   fun:GDALAllRegister
   fun:_ZN11CSimulation27bCheckRasterGISOutputFormatEv
   fun:_ZN11CSimulation13nDoSimulationEiPPKc
   fun:main
}
{
   <insert_a_suppression_name_here>
   Memcheck:Leak
   match-leak-kinds: reachable
   fun:_Znwm
   fun:GDALRegister_PDS4
   fun:GDALAllRegister
   fun:_ZN11CSimulation27bCheckRasterGISOutputFormatEv
   fun:_ZN11CSimulation13nDoSimulationEiPPKc
   fun:main
}
{
   <insert_a_suppression_name_here>
   Memcheck:Leak
   match-leak-kinds: reachable
   fun:_Znwm
   fun:GDALRegister_VICAR
   fun:GDALAllRegister
   fun:_ZN11CSimulation27bCheckRasterGISOutputFormatEv
   fun:_ZN11CSimulation13nDoSimulationEiPPKc
   fun:main
}
{
   <insert_a_suppression_name_here>
   Memcheck:Leak
   match-leak-kinds: reachable
   fun:_Znwm
   fun:GDALRegister_TIL
   fun:GDALAllRegister
   fun:_ZN11CSimulation27bCheckRasterGISOutputFormatEv
   fun:_ZN11CSimulation13nDoSimulationEiPPKc
   fun:main
}
{
   <insert_a_suppression_name_here>
   Memcheck:Leak
   match-leak-kinds: reachable
   fun:_Znwm
   fun:GDALRegister_ERS
   fun:GDALAllRegister
   fun:_ZN11CSimulation27bCheckRasterGISOutputFormatEv
   fun:_ZN11CSimulation13nDoSimulationEiPPKc
   fun:main
}
{
   <insert_a_suppression_name_here>
   Memcheck:Leak
   match-leak-kinds: reachable
   fun:_Znwm
   fun:GDALRegister_JP2OpenJPEG
   fun:GDALAllRegister
   fun:_ZN11CSimulation27bCheckRasterGISOutputFormatEv
   fun:_ZN11CSimulation13nDoSimulationEiPPKc
   fun:main
}
{
   <insert_a_suppression_name_here>
   Memcheck:Leak
   match-leak-kinds: reachable
   fun:_Znwm
   fun:GDALRegister_L1B
   fun:GDALAllRegister
   fun:_ZN11CSimulation27bCheckRasterGISOutputFormatEv
   fun:_ZN11CSimulation13nDoSimulationEiPPKc
   fun:main
}
{
   <insert_a_suppression_name_here>
   Memcheck:Leak
   match-leak-kinds: reachable
   fun:_Znwm
   fun:GDALRegister_FIT
   fun:GDALAllRegister
   fun:_ZN11CSimulation27bCheckRasterGISOutputFormatEv
   fun:_ZN11CSimulation13nDoSimulationEiPPKc
   fun:main
}
{
   <insert_a_suppression_name_here>
   Memcheck:Leak
   match-leak-kinds: reachable
   fun:_Znwm
   fun:GDALRegister_RMF
   fun:GDALAllRegister
   fun:_ZN11CSimulation27bCheckRasterGISOutputFormatEv
   fun:_ZN11CSimulation13nDoSimulationEiPPKc
   fun:main
}
{
   <insert_a_suppression_name_here>
   Memcheck:Leak
   match-leak-kinds: reachable
   fun:_Znwm
   fun:GDALRegister_WCS
   fun:GDALAllRegister
   fun:_ZN11CSimulation27bCheckRasterGISOutputFormatEv
   fun:_ZN11CSimulation13nDoSimulationEiPPKc
   fun:main
}
{
   <insert_a_suppression_name_here>
   Memcheck:Leak
   match-leak-kinds: reachable
   fun:_Znwm
   fun:GDALRegister_WMS
   fun:GDALAllRegister
   fun:_ZN11CSimulation27bCheckRasterGISOutputFormatEv
   fun:_ZN11CSimulation13nDoSimulationEiPPKc
   fun:main
}
{
   <insert_a_suppression_name_here>
   Memcheck:Leak
   match-leak-kinds: reachable
   fun:_Znwm
   fun:GDALRegister_MSGN
   fun:GDALAllRegister
   fun:_ZN11CSimulation27bCheckRasterGISOutputFormatEv
   fun:_ZN11CSimulation13nDoSimulationEiPPKc
   fun:main
}
{
   <insert_a_suppression_name_here>
   Memcheck:Leak
   match-leak-kinds: reachable
   fun:_Znwm
   fun:GDALRegister_IDRISI
   fun:GDALAllRegister
   fun:_ZN11CSimulation27bCheckRasterGISOutputFormatEv
   fun:_ZN11CSimulation13nDoSimulationEiPPKc
   fun:main
}
{
   <insert_a_suppression_name_here>
   Memcheck:Leak
   match-leak-kinds: reachable
   fun:_Znwm
   fun:GDALRegister_GSAG
   fun:GDALAllRegister
   fun:_ZN11CSimulation27bCheckRasterGISOutputFormatEv
   fun:_ZN11CSimulation13nDoSimulationEiPPKc
   fun:main
}
{
   <insert_a_suppression_name_here>
   Memcheck:Leak
   match-leak-kinds: reachable
   fun:_Znwm
   fun:GDALRegister_GSBG
   fun:GDALAllRegister
   fun:_ZN11CSimulation27bCheckRasterGISOutputFormatEv
   fun:_ZN11CSimulation13nDoSimulationEiPPKc
   fun:main
}
{
   <insert_a_suppression_name_here>
   Memcheck:Leak
   match-leak-kinds: reachable
   fun:_Znwm
   fun:GDALRegister_GS7BG
   fun:GDALAllRegister
   fun:_ZN11CSimulation27bCheckRasterGISOutputFormatEv
   fun:_ZN11CSimulation13nDoSimulationEiPPKc
   fun:main
}
{
   <insert_a_suppression_name_here>
   Memcheck:Leak
   match-leak-kinds: reachable
   fun:_Znwm
   fun:GDALRegister_COSAR
   fun:GDALAllRegister
   fun:_ZN11CSimulation27bCheckRasterGISOutputFormatEv
   fun:_ZN11CSimulation13nDoSimulationEiPPKc
   fun:main
}
{
   <insert_a_suppression_name_here>
   Memcheck:Leak
   match-leak-kinds: reachable
   fun:_Znwm
   fun:GDALRegister_TSX
   fun:GDALAllRegister
   fun:_ZN11CSimulation27bCheckRasterGISOutputFormatEv
   fun:_ZN11CSimulation13nDoSimulationEiPPKc
   fun:main
}
{
   <insert_a_suppression_name_here>
   Memcheck:Leak
   match-leak-kinds: reachable
   fun:_Znwm
   fun:GDALRegister_COASP
   fun:GDALAllRegister
   fun:_ZN11CSimulation27bCheckRasterGISOutputFormatEv
   fun:_ZN11CSimulation13nDoSimulationEiPPKc
   fun:main
}
{
   <insert_a_suppression_name_here>
   Memcheck:Leak
   match-leak-kinds: reachable
   fun:_Znwm
   fun:GDALRegister_R
   fun:GDALAllRegister
   fun:_ZN11CSimulation27bCheckRasterGISOutputFormatEv
   fun:_ZN11CSimulation13nDoSimulationEiPPKc
   fun:main
}
{
   <insert_a_suppression_name_here>
   Memcheck:Leak
   match-leak-kinds: reachable
   fun:_Znwm
   fun:GDALRegister_MAP
   fun:GDALAllRegister
   fun:_ZN11CSimulation27bCheckRasterGISOutputFormatEv
   fun:_ZN11CSimulation13nDoSimulationEiPPKc
   fun:main
}
{
   <insert_a_suppression_name_here>
   Memcheck:Leak
   match-leak-kinds: reachable
   fun:_Znwm
   fun:GDALRegister_KMLSUPEROVERLAY
   fun:GDALAllRegister
   fun:_ZN11CSimulation27bCheckRasterGISOutputFormatEv
   fun:_ZN11CSimulation13nDoSimulationEiPPKc
   fun:main
}
{
   <insert_a_suppression_name_here>
   Memcheck:Leak
   match-leak-kinds: reachable
   fun:_Znwm
   fun:GDALRegister_WEBP
   fun:GDALAllRegister
   fun:_ZN11CSimulation27bCheckRasterGISOutputFormatEv
   fun:_ZN11CSimulation13nDoSimulationEiPPKc
   fun:main
}
{
   <insert_a_suppression_name_here>
   Memcheck:Leak
   match-leak-kinds: reachable
   fun:_Znwm
   fun:GDALRegister_PDF
   fun:GDALAllRegister
   fun:_ZN11CSimulation27bCheckRasterGISOutputFormatEv
   fun:_ZN11CSimulation13nDoSimulationEiPPKc
   fun:main
}
{
   <insert_a_suppression_name_here>
   Memcheck:Leak
   match-leak-kinds: reachable
   fun:_Znwm
   fun:GDALRegister_Rasterlite
   fun:GDALAllRegister
   fun:_ZN11CSimulation27bCheckRasterGISOutputFormatEv
   fun:_ZN11CSimulation13nDoSimulationEiPPKc
   fun:main
}
{
   <insert_a_suppression_name_here>
   Memcheck:Leak
   match-leak-kinds: reachable
   fun:_Znwm
   fun:GDALRegister_MBTiles
   fun:GDALAllRegister
   fun:_ZN11CSimulation27bCheckRasterGISOutputFormatEv
   fun:_ZN11CSimulation13nDoSimulationEiPPKc
   fun:main
}
{
   <insert_a_suppression_name_here>
   Memcheck:Leak
   match-leak-kinds: reachable
   fun:_Znwm
   fun:GDALRegister_PLMOSAIC
   fun:GDALAllRegister
   fun:_ZN11CSimulation27bCheckRasterGISOutputFormatEv
   fun:_ZN11CSimulation13nDoSimulationEiPPKc
   fun:main
}
{
   <insert_a_suppression_name_here>
   Memcheck:Leak
   match-leak-kinds: reachable
   fun:_Znwm
   fun:GDALRegister_CALS
   fun:GDALAllRegister
   fun:_ZN11CSimulation27bCheckRasterGISOutputFormatEv
   fun:_ZN11CSimulation13nDoSimulationEiPPKc
   fun:main
}
{
   <insert_a_suppression_name_here>
   Memcheck:Leak
   match-leak-kinds: reachable
   fun:_Znwm
   fun:GDALRegister_WMTS
   fun:GDALAllRegister
   fun:_ZN11CSimulation27bCheckRasterGISOutputFormatEv
   fun:_ZN11CSimulation13nDoSimulationEiPPKc
   fun:main
}
{
   <insert_a_suppression_name_here>
   Memcheck:Leak
   match-leak-kinds: reachable
   fun:_Znwm
   fun:GDALRegister_SENTINEL2
   fun:GDALAllRegister
   fun:_ZN11CSimulation27bCheckRasterGISOutputFormatEv
   fun:_ZN11CSimulation13nDoSimulationEiPPKc
   fun:main
}
{
   <insert_a_suppression_name_here>
   Memcheck:Leak
   match-leak-kinds: reachable
   fun:_Znwm
   fun:GDALRegister_mrf
   fun:GDALAllRegister
   fun:_ZN11CSimulation27bCheckRasterGISOutputFormatEv
   fun:_ZN11CSimulation13nDoSimulationEiPPKc
   fun:main
}
{
   <insert_a_suppression_name_here>
   Memcheck:Leak
   match-leak-kinds: reachable
   fun:_Znwm
   fun:GDALRegister_PNM
   fun:GDALRegister_raw_no_sidecar
   fun:GDALAllRegister
   fun:_ZN11CSimulation27bCheckRasterGISOutputFormatEv
   fun:_ZN11CSimulation13nDoSimulationEiPPKc
   fun:main
}
{
   <insert_a_suppression_name_here>
   Memcheck:Leak
   match-leak-kinds: reachable
   fun:_Znwm
   fun:GDALRegister_DOQ1
   fun:GDALRegister_raw_no_sidecar
   fun:GDALAllRegister
   fun:_ZN11CSimulation27bCheckRasterGISOutputFormatEv
   fun:_ZN11CSimulation13nDoSimulationEiPPKc
   fun:main
}
{
   <insert_a_suppression_name_here>
   Memcheck:Leak
   match-leak-kinds: reachable
   fun:_Znwm
   fun:GDALRegister_DOQ2
   fun:GDALRegister_raw_no_sidecar
   fun:GDALAllRegister
   fun:_ZN11CSimulation27bCheckRasterGISOutputFormatEv
   fun:_ZN11CSimulation13nDoSimulationEiPPKc
   fun:main
}
{
   <insert_a_suppression_name_here>
   Memcheck:Leak
   match-leak-kinds: reachable
   fun:_Znwm
   fun:GDALRegister_PAux
   fun:GDALRegister_raw_no_sidecar
   fun:GDALAllRegister
   fun:_ZN11CSimulation27bCheckRasterGISOutputFormatEv
   fun:_ZN11CSimulation13nDoSimulationEiPPKc
   fun:main
}
{
   <insert_a_suppression_name_here>
   Memcheck:Leak
   match-leak-kinds: reachable
   fun:_Znwm
   fun:GDALRegister_MFF
   fun:GDALRegister_raw_no_sidecar
   fun:GDALAllRegister
   fun:_ZN11CSimulation27bCheckRasterGISOutputFormatEv
   fun:_ZN11CSimulation13nDoSimulationEiPPKc
   fun:main
}
{
   <insert_a_suppression_name_here>
   Memcheck:Leak
   match-leak-kinds: reachable
   fun:_Znwm
   fun:GDALRegister_HKV
   fun:GDALRegister_raw_no_sidecar
   fun:GDALAllRegister
   fun:_ZN11CSimulation27bCheckRasterGISOutputFormatEv
   fun:_ZN11CSimulation13nDoSimulationEiPPKc
   fun:main
}
{
   <insert_a_suppression_name_here>
   Memcheck:Leak
   match-leak-kinds: reachable
   fun:_Znwm
   fun:GDALRegister_GSC
   fun:GDALRegister_raw_no_sidecar
   fun:GDALAllRegister
   fun:_ZN11CSimulation27bCheckRasterGISOutputFormatEv
   fun:_ZN11CSimulation13nDoSimulationEiPPKc
   fun:main
}
{
   <insert_a_suppression_name_here>
   Memcheck:Leak
   match-leak-kinds: reachable
   fun:_Znwm
   fun:GDALRegister_FAST
   fun:GDALRegister_raw_no_sidecar
   fun:GDALAllRegister
   fun:_ZN11CSimulation27bCheckRasterGISOutputFormatEv
   fun:_ZN11CSimulation13nDoSimulationEiPPKc
   fun:main
}
{
   <insert_a_suppression_name_here>
   Memcheck:Leak
   match-leak-kinds: reachable
   fun:_Znwm
   fun:GDALRegister_BT
   fun:GDALRegister_raw_no_sidecar
   fun:GDALAllRegister
   fun:_ZN11CSimulation27bCheckRasterGISOutputFormatEv
   fun:_ZN11CSimulation13nDoSimulationEiPPKc
   fun:main
}
{
   <insert_a_suppression_name_here>
   Memcheck:Leak
   match-leak-kinds: reachable
   fun:_Znwm
   fun:GDALRegister_LAN
   fun:GDALRegister_raw_no_sidecar
   fun:GDALAllRegister
   fun:_ZN11CSimulation27bCheckRasterGISOutputFormatEv
   fun:_ZN11CSimulation13nDoSimulationEiPPKc
   fun:main
}
{
   <insert_a_suppression_name_here>
   Memcheck:Leak
   match-leak-kinds: reachable
   fun:_Znwm
   fun:GDALRegister_CPG
   fun:GDALRegister_raw_no_sidecar
   fun:GDALAllRegister
   fun:_ZN11CSimulation27bCheckRasterGISOutputFormatEv
   fun:_ZN11CSimulation13nDoSimulationEiPPKc
   fun:main
}
{
   <insert_a_suppression_name_here>
   Memcheck:Leak
   match-leak-kinds: reachable
   fun:_Znwm
   fun:GDALRegister_NDF
   fun:GDALRegister_raw_no_sidecar
   fun:GDALAllRegister
   fun:_ZN11CSimulation27bCheckRasterGISOutputFormatEv
   fun:_ZN11CSimulation13nDoSimulationEiPPKc
   fun:main
}
{
   <insert_a_suppression_name_here>
   Memcheck:Leak
   match-leak-kinds: reachable
   fun:_Znwm
   fun:GDALRegister_EIR
   fun:GDALRegister_raw_no_sidecar
   fun:GDALAllRegister
   fun:_ZN11CSimulation27bCheckRasterGISOutputFormatEv
   fun:_ZN11CSimulation13nDoSimulationEiPPKc
   fun:main
}
{
   <insert_a_suppression_name_here>
   Memcheck:Leak
   match-leak-kinds: reachable
   fun:_Znwm
   fun:GDALRegister_DIPEx
   fun:GDALRegister_raw_no_sidecar
   fun:GDALAllRegister
   fun:_ZN11CSimulation27bCheckRasterGISOutputFormatEv
   fun:_ZN11CSimulation13nDoSimulationEiPPKc
   fun:main
}
{
   <insert_a_suppression_name_here>
   Memcheck:Leak
   match-leak-kinds: reachable
   fun:_Znwm
   fun:GDALRegister_LCP
   fun:GDALRegister_raw_no_sidecar
   fun:GDALAllRegister
   fun:_ZN11CSimulation27bCheckRasterGISOutputFormatEv
   fun:_ZN11CSimulation13nDoSimulationEiPPKc
   fun:main
}
{
   <insert_a_suppression_name_here>
   Memcheck:Leak
   match-leak-kinds: reachable
   fun:_Znwm
   fun:GDALRegister_GTX
   fun:GDALRegister_raw_no_sidecar
   fun:GDALAllRegister
   fun:_ZN11CSimulation27bCheckRasterGISOutputFormatEv
   fun:_ZN11CSimulation13nDoSimulationEiPPKc
   fun:main
}
{
   <insert_a_suppression_name_here>
   Memcheck:Leak
   match-leak-kinds: reachable
   fun:_Znwm
   fun:GDALRegister_LOSLAS
   fun:GDALRegister_raw_no_sidecar
   fun:GDALAllRegister
   fun:_ZN11CSimulation27bCheckRasterGISOutputFormatEv
   fun:_ZN11CSimulation13nDoSimulationEiPPKc
   fun:main
}
{
   <insert_a_suppression_name_here>
   Memcheck:Leak
   match-leak-kinds: reachable
   fun:_Znwm
   fun:GDALRegister_NTv2
   fun:GDALRegister_raw_no_sidecar
   fun:GDALAllRegister
   fun:_ZN11CSimulation27bCheckRasterGISOutputFormatEv
   fun:_ZN11CSimulation13nDoSimulationEiPPKc
   fun:main
}
{
   <insert_a_suppression_name_here>
   Memcheck:Leak
   match-leak-kinds: reachable
   fun:_Znwm
   fun:GDALRegister_CTable2
   fun:GDALRegister_raw_no_sidecar
   fun:GDALAllRegister
   fun:_ZN11CSimulation27bCheckRasterGISOutputFormatEv
   fun:_ZN11CSimulation13nDoSimulationEiPPKc
   fun:main
}
{
   <insert_a_suppression_name_here>
   Memcheck:Leak
   match-leak-kinds: reachable
   fun:_Znwm
   fun:GDALRegister_ACE2
   fun:GDALRegister_raw_no_sidecar
   fun:GDALAllRegister
   fun:_ZN11CSimulation27bCheckRasterGISOutputFormatEv
   fun:_ZN11CSimulation13nDoSimulationEiPPKc
   fun:main
}
{
   <insert_a_suppression_name_here>
   Memcheck:Leak
   match-leak-kinds: reachable
   fun:_Znwm
   fun:GDALRegister_SNODAS
   fun:GDALRegister_raw_no_sidecar
   fun:GDALAllRegister
   fun:_ZN11CSimulation27bCheckRasterGISOutputFormatEv
   fun:_ZN11CSimulation13nDoSimulationEiPPKc
   fun:main
}
{
   <insert_a_suppression_name_here>
   Memcheck:Leak
   match-leak-kinds: reachable
   fun:_Znwm
   fun:GDALRegister_KRO
   fun:GDALRegister_raw_no_sidecar
   fun:GDALAllRegister
   fun:_ZN11CSimulation27bCheckRasterGISOutputFormatEv
   fun:_ZN11CSimulation13nDoSimulationEiPPKc
   fun:main
}
{
   <insert_a_suppression_name_here>
   Memcheck:Leak
   match-leak-kinds: reachable
   fun:_Znwm
   fun:GDALRegister_ROIPAC
   fun:GDALRegister_raw_no_sidecar
   fun:GDALAllRegister
   fun:_ZN11CSimulation27bCheckRasterGISOutputFormatEv
   fun:_ZN11CSimulation13nDoSimulationEiPPKc
   fun:main
}
{
   <insert_a_suppression_name_here>
   Memcheck:Leak
   match-leak-kinds: reachable
   fun:_Znwm
   fun:GDALRegister_RRASTER
   fun:GDALRegister_raw_no_sidecar
   fun:GDALAllRegister
   fun:_ZN11CSimulation27bCheckRasterGISOutputFormatEv
   fun:_ZN11CSimulation13nDoSimulationEiPPKc
   fun:main
}
{
   <insert_a_suppression_name_here>
   Memcheck:Leak
   match-leak-kinds: reachable
   fun:_Znwm
   fun:GDALRegister_BYN
   fun:GDALRegister_raw_no_sidecar
   fun:GDALAllRegister
   fun:_ZN11CSimulation27bCheckRasterGISOutputFormatEv
   fun:_ZN11CSimulation13nDoSimulationEiPPKc
   fun:main
}
{
   <insert_a_suppression_name_here>
   Memcheck:Leak
   match-leak-kinds: reachable
   fun:_Znwm
   fun:GDALRegister_NOAA_B
   fun:GDALRegister_raw_no_sidecar
   fun:GDALAllRegister
   fun:_ZN11CSimulation27bCheckRasterGISOutputFormatEv
   fun:_ZN11CSimulation13nDoSimulationEiPPKc
   fun:main
}
{
   <insert_a_suppression_name_here>
   Memcheck:Leak
   match-leak-kinds: reachable
   fun:_Znwm
   fun:GDALRegister_NSIDCbin
   fun:GDALAllRegister
   fun:_ZN11CSimulation27bCheckRasterGISOutputFormatEv
   fun:_ZN11CSimulation13nDoSimulationEiPPKc
   fun:main
}
{
   <insert_a_suppression_name_here>
   Memcheck:Leak
   match-leak-kinds: reachable
   fun:_Znwm
   fun:GDALRegister_RIK
   fun:GDALAllRegister
   fun:_ZN11CSimulation27bCheckRasterGISOutputFormatEv
   fun:_ZN11CSimulation13nDoSimulationEiPPKc
   fun:main
}
{
   <insert_a_suppression_name_here>
   Memcheck:Leak
   match-leak-kinds: reachable
   fun:_Znwm
   fun:GDALRegister_USGSDEM
   fun:GDALAllRegister
   fun:_ZN11CSimulation27bCheckRasterGISOutputFormatEv
   fun:_ZN11CSimulation13nDoSimulationEiPPKc
   fun:main
}
{
   <insert_a_suppression_name_here>
   Memcheck:Leak
   match-leak-kinds: reachable
   fun:_Znwm
   fun:GDALRegister_GXF
   fun:GDALAllRegister
   fun:_ZN11CSimulation27bCheckRasterGISOutputFormatEv
   fun:_ZN11CSimulation13nDoSimulationEiPPKc
   fun:main
}
{
   <insert_a_suppression_name_here>
   Memcheck:Leak
   match-leak-kinds: reachable
   fun:_Znwm
   fun:GDALRegister_BAG
   fun:GDALAllRegister
   fun:_ZN11CSimulation27bCheckRasterGISOutputFormatEv
   fun:_ZN11CSimulation13nDoSimulationEiPPKc
   fun:main
}
{
   <insert_a_suppression_name_here>
   Memcheck:Leak
